
dockercodal/build/STM32_BLUE_PILL:     file format elf32-littlearm

SYMBOL TABLE:
08000000 l    d  .boot_text	00000000 .boot_text
08006000 l    d  .text	00000000 .text
08004fcc l    d  .boot_preinit_array	00000000 .boot_preinit_array
0800cc30 l    d  .preinit_array	00000000 .preinit_array
08004fcc l    d  .boot_init_array	00000000 .boot_init_array
0800cc30 l    d  .init_array	00000000 .init_array
0800cc38 l    d  .fini_array	00000000 .fini_array
20000000 l    d  .boot_data	00000000 .boot_data
20002800 l    d  .data	00000000 .data
20000534 l    d  .boot_bss	00000000 .boot_bss
20002808 l    d  .bss	00000000 .bss
00000000 l    d  .debug_info	00000000 .debug_info
00000000 l    d  .debug_abbrev	00000000 .debug_abbrev
00000000 l    d  .debug_loc	00000000 .debug_loc
00000000 l    d  .debug_aranges	00000000 .debug_aranges
00000000 l    d  .debug_ranges	00000000 .debug_ranges
00000000 l    d  .debug_line	00000000 .debug_line
00000000 l    d  .debug_str	00000000 .debug_str
00000000 l    d  .comment	00000000 .comment
00000000 l    d  .ARM.attributes	00000000 .ARM.attributes
00000000 l    d  .debug_frame	00000000 .debug_frame
00000000 l    df *ABS*	00000000 vector.c
00000000 l    df *ABS*	00000000 reset_handler.c
00000000 l    df *ABS*	00000000 codal_target_hal.cpp
08000240 l     F .boot_text	00000010 _ZL10timer_tickv
08000250 l     F .boot_text	00000010 _ZL11timer_alarmv
08000260 l     F .boot_text	00000030 _Z25stm32bluepill_dmesg_flushv.part.0
20000540 l     O .boot_bss	00000001 _ZL11initialised
20000534 l     O .boot_bss	00000004 _ZL13tick_callback
20000538 l     O .boot_bss	00000004 _ZL14alarm_callback
00000000 l    df *ABS*	00000000 CortexContextSwitch.s.o
080004b4 l       .boot_text	00000000 store_context_complete
080004c6 l       .boot_text	00000000 store_stack_complete
080004ba l       .boot_text	00000000 store_stack
080004e0 l       .boot_text	00000000 restore_stack_complete
080004d4 l       .boot_text	00000000 restore_stack
08000534 l       .boot_text	00000000 store_stack1
00000000 l    df *ABS*	00000000 gpio_common_all.c
00000000 l    df *ABS*	00000000 pwr_common_v1.c
00000000 l    df *ABS*	00000000 rcc_common_all.c
00000000 l    df *ABS*	00000000 gpio.c
00000000 l    df *ABS*	00000000 rcc.c
08000694 l     F .boot_text	00000010 rcc_is_osc_ready.part.0
080006a4 l     F .boot_text	00000010 rcc_osc_on.part.1
00000000 l    df *ABS*	00000000 flash_common_all.c
00000000 l    df *ABS*	00000000 nvic.c
00000000 l    df *ABS*	00000000 exti_common_all.c
00000000 l    df *ABS*	00000000 flash_common_f.c
00000000 l    df *ABS*	00000000 desig.c
00000000 l    df *ABS*	00000000 flash.c
00000000 l    df *ABS*	00000000 rtc.c
00000000 l    df *ABS*	00000000 st_usbfs_v1.c
08000d00 l     F .boot_text	00000034 st_usbfs_v1_usbd_init
00000000 l    df *ABS*	00000000 usb.c
00000000 l    df *ABS*	00000000 usb_control.c
08000e64 l     F .boot_text	00000052 usb_control_send_chunk
08000eb8 l     F .boot_text	00000062 usb_control_request_dispatch
08000f1c l     F .boot_text	0000007a usb_control_setup_read
08000f98 l     F .boot_text	00000046 usb_control_recv_chunk
00000000 l    df *ABS*	00000000 usb_standard.c
08001180 l     F .boot_text	00000030 usb_standard_set_address
080011b0 l     F .boot_text	0000009e usb_standard_set_configuration
08001250 l     F .boot_text	0000002c usb_standard_get_configuration
0800127c l     F .boot_text	0000003c usb_standard_get_interface
080012b8 l     F .boot_text	00000018 usb_standard_device_get_status
080012d0 l     F .boot_text	0000002a usb_standard_endpoint_get_status
080012fc l     F .boot_text	00000010 usb_standard_endpoint_stall
0800130c l     F .boot_text	00000010 usb_standard_endpoint_unstall
0800131c l     F .boot_text	00000052 usb_standard_set_interface
08001370 l     F .boot_text	00000298 usb_standard_get_descriptor
08001608 l     F .boot_text	00000018 usb_standard_interface_get_status
00000000 l    df *ABS*	00000000 flash_common_f01.c
00000000 l    df *ABS*	00000000 st_usbfs_core.c
00000000 l    df *ABS*	00000000 os_kernel.c
00000000 l    df *ABS*	00000000 os_msgqueue.c
20000544 l     O .boot_bss	00000020 msgQList
200005f0 l     O .boot_bss	00000001 nQueues
00000000 l    df *ABS*	00000000 os_sem.c
200005f1 l     O .boot_bss	00000001 nSemaphores
00000000 l    df *ABS*	00000000 os_task.c
200005f2 l     O .boot_bss	00000001 nTasks
20000564 l     O .boot_bss	0000008c task_list
00000000 l    df *ABS*	00000000 os_event.c
200005f3 l     O .boot_bss	00000001 nEvents
00000000 l    df *ABS*	00000000 qfplib.S.o
00000001 l       *ABS*	00000000 include_faster
00000001 l       *ABS*	00000000 include_conversions
00000001 l       *ABS*	00000000 include_scientific
08001d38 l       .boot_text	00000000 xchxy
08001d40 l       .boot_text	00000000 unpackxy
08001d4e l       .boot_text	00000000 unpackx
08001d7c l       .boot_text	00000000 packx
08001d8a l       .boot_text	00000000 packx0
08001dce l       .boot_text	00000000 unpackxyalign
08001e18 l       .boot_text	00000000 packret
08001e1e l       .boot_text	00000000 mul0
08001e6e l       .boot_text	00000000 fmul0
08001e76 l       .boot_text	00000000 fdiv_n
08001eae l       .boot_text	00000000 infret
08001eb8 l       .boot_text	00000000 fdiv_fast_n
08001f68 l       .boot_text	00000000 rcpapp
08001f00 l       .boot_text	00000000 div0
08001f70 l       .boot_text	00000000 rsqrtapp
08001fca l       .boot_text	00000000 packretns
08001fe0 l       .boot_text	00000000 cordic_start
08001fea l       .boot_text	00000000 cordic_vstep
08001ff0 l       .boot_text	00000000 cordic_rstep
0800201c l       .boot_text	00000000 cordic_rot
0800203e l       .boot_text	00000000 cordic_exit
08002044 l       .boot_text	00000000 cordic_vec
08002190 l       .boot_text	00000000 pi_q29
08002190 l       .boot_text	00000000 tab_cc
080021c4 l       .boot_text	00000000 tab_ch
08002200 l       .boot_text	00000000 qfp_lib_end
00000000 l    df *ABS*	00000000 functions.c
200005f4 l     O .boot_bss	00000025 float_usage
00000000 l    df *ABS*	00000000 strtol.c
08002ea8 l     F .boot_text	000000f0 _strtol_l.isra.0
00000000 l    df *ABS*	00000000 memcpy-stub.c
00000000 l    df *ABS*	00000000 strcmp.S.o
00000000 l    df *ABS*	00000000 strlen.S.o
00000000 l    df *ABS*	00000000 memcmp.c
00000000 l    df *ABS*	00000000 memmove.c
00000000 l    df *ABS*	00000000 memset.c
00000000 l    df *ABS*	00000000 strstr.c
00000000 l    df *ABS*	00000000 strncat.c
00000000 l    df *ABS*	00000000 strncpy.c
00000000 l    df *ABS*	00000000 logger.cpp
080030cc l     F .boot_text	00000038 debug_flush.part.1
08003104 l     F .boot_text	00000058 _ZL12debug_appendPKcj
0800315c l     F .boot_text	00000014 debug_print.part.3
2000071d l     O .boot_bss	00000001 _ZL10logEnabled
2000061c l     O .boot_bss	00000101 _ZL11debugBuffer
00000000 l    df *ABS*	00000000 bluepill.cpp
20000730 l     O .boot_bss	00000001 _ZL12debugEnabled
00000000 l    df *ABS*	00000000 led.cpp
00000000 l    df *ABS*	00000000 timer.cpp
20000720 l     O .boot_bss	00000004 _ZL10alarmCount
20000724 l     O .boot_bss	00000004 _ZL8tickFunc
20000728 l     O .boot_bss	00000004 _ZL9alarmFunc
2000072c l     O .boot_bss	00000004 _ZL9tickCount
20000731 l     O .boot_bss	00000001 _ZZ20platform_start_timerE12timerStarted
00000000 l    df *ABS*	00000000 bootloader.c
00000000 l    df *ABS*	00000000 usb_conf.c
0800365c l     F .boot_text	00000060 set_aggregate_callback
080039c0 l     F .boot_text	00000078 aggregate_callback
20000734 l     O .boot_bss	00000028 config_callback
2000075c l     O .boot_bss	00000050 control_callback
200007ac l     O .boot_bss	00000019 serial_number
20000cac l     O .boot_bss	00000100 usbd_control_buffer
20000424 l     O .boot_data	00000008 capabilities
2000042c l     O .boot_data	00000024 usb_strings
080048e0 l     O .boot_text	00000009 bos_descriptor
080048ec l     O .boot_text	00000008 cdc_iface_assoc
080048f4 l     O .boot_text	00000013 cdcacm_functional_descriptors
08004908 l     O .boot_text	0000000f comm_endp
08004918 l     O .boot_text	00000015 comm_iface
08004930 l     O .boot_text	0000000d config
08004a58 l     O .boot_text	00000030 interfaces
08004940 l     O .boot_text	0000001e data_endp
08004960 l     O .boot_text	00000015 data_iface
08004978 l     O .boot_text	00000012 dev
08004a20 l     O .boot_text	0000001e hf2_endp
08004a40 l     O .boot_text	00000015 hf2_iface
00000000 l    df *ABS*	00000000 webusb.c
08003a38 l     F .boot_text	00000028 webusb_set_config
08003a60 l     F .boot_text	000000a4 webusb_control_vendor_request
200007cc l     O .boot_bss	00000004 webusb_https_url
00000000 l    df *ABS*	00000000 winusb.c
08003b5c l     F .boot_text	0000009c winusb_control_vendor_request
08003bf8 l     F .boot_text	00000028 winusb_set_config
08003c20 l     F .boot_text	00000048 winusb_descriptor_request
20000450 l     O .boot_data	000000b2 msos20_descriptor_set
20000504 l     O .boot_data	00000028 winusb_wcid
08004c18 l     O .boot_text	00000092 guid
08004d20 l     O .boot_text	00000012 winusb_string_descriptor
00000000 l    df *ABS*	00000000 target_stm32f103.c
200007d0 l     O .boot_bss	00000004 erase_end.5517
200007d4 l     O .boot_bss	00000004 erase_start.5516
00000000 l    df *ABS*	00000000 cdc.c
08003ebc l     F .boot_text	00000014 cdcacm_comm_cb
08003ed0 l     F .boot_text	00000050 cdcacm_data_rx_cb
08003f20 l     F .boot_text	00000068 cdcacm_set_config
08003f88 l     F .boot_text	00000068 cdcacm_control_request
200007d8 l     O .boot_bss	00000041 cdcbuf
08004e18 l     O .boot_text	00000007 line_coding
00000000 l    df *ABS*	00000000 hf2.c
08004014 l     F .boot_text	0000003c hf2_set_config
08004130 l     F .boot_text	00000004 hf2_data_tx_cb
08004134 l     F .boot_text	000001e4 hf2_data_rx_cb
08004050 l     F .boot_text	0000001c assert.part.0
0800406c l     F .boot_text	00000088 pokeSend
080040f4 l     F .boot_text	0000003c send_hf2_response
2000081c l     O .boot_bss	00000004 _usbd_dev
20000820 l     O .boot_bss	00000040 buf
20000860 l     O .boot_bss	00000040 buf.5928
08004e2c l     O .boot_text	0000000b bad_packet_message
00000000 l    df *ABS*	00000000 usb21_standard.c
08004344 l     F .boot_text	00000028 usb21_set_config
0800436c l     F .boot_text	00000104 usb21_standard_get_descriptor
200008a0 l     O .boot_bss	00000004 usb21_bos
00000000 l    df *ABS*	00000000 backup.c
00000000 l    df *ABS*	00000000 ghostfat.c
080044f8 l     F .boot_text	00000098 flushFlash
200008a4 l     O .boot_bss	00000400 flashBuf
20000ca4 l     O .boot_bss	00000004 lastFlush
20000ca8 l     O .boot_bss	00000004 ms
20000530 l     O .boot_data	00000001 firstFlush
2000052c l     O .boot_data	00000004 flashAddr
00000000 l    df *ABS*	00000000 ctype_.c
00000000 l    df *ABS*	00000000 core.cpp
080067d4 l     F .text	00000002 _ZN3pxtL13dtorDoNothingEv
080067d8 l     F .text	00000008 _ZN3pxtL11string_sizeEPNS_11BoxedStringE
080067e0 l     F .text	00000004 _ZN3pxtL11number_sizeEPNS_11BoxedNumberE
080067e4 l     F .text	00000008 _ZN3pxtL11buffer_sizeEPNS_11BoxedBufferE
08006d68 l     F .text	0000000e _ZN3pxt7fromIntEi.part.8
0800709c l     F .text	0000004c _ZN3pxt8toDoubleEPNS_12TValueStructE.part.12
080078d4 l     F .text	000000a6 _ZN6numopsL10valCompareEPN3pxt12TValueStructES2_
20002808 l     O .bss	00000004 _ZN3pxtL15handlerBindingsE
20002800 l     O .data	00000004 _ZN3pxtL12random_valueE
0800c368 l     O .text	00000018 CSWTCH.116
0800c45c l     O .text	00000010 _ZN3pxtL12sUndefinedTpE
0800c418 l     O .text	0000000e _ZN3pxtL10sBooleanTpE
0800c4e0 l     O .text	0000000d _ZN3pxtL9sNumberTpE
0800c500 l     O .text	0000000d _ZN3pxtL9sStringTpE
0800c4f0 l     O .text	0000000d _ZN3pxtL9sObjectTpE
0800c44c l     O .text	0000000f _ZN3pxtL11sFunctionTpE
0800c428 l     O .text	00000010 _ZN3pxtL10sUndefinedE
0800c438 l     O .text	0000000a _ZN3pxtL11emptyBufferE
0800c444 l     O .text	00000007 _ZN3pxtL11emptyStringE
0800c46c l     O .text	0000000f _ZN3pxtL4sInfE
0800c47c l     O .text	0000000a _ZN3pxtL4sNaNE
0800c488 l     O .text	00000010 _ZN3pxtL5sMInfE
0800c498 l     O .text	0000000b _ZN3pxtL5sNullE
0800c4a4 l     O .text	0000000b _ZN3pxtL5sTrueE
0800c4b0 l     O .text	0000000c _ZN3pxtL6sFalseE
0800c4bc l     O .text	0000000f _ZN3pxtL7sObjectE
0800c4cc l     O .text	00000011 _ZN3pxtL9sFunctionE
00000000 l    df *ABS*	00000000 advmath.cpp
00000000 l    df *ABS*	00000000 buffer.cpp
08006264 l     F .text	00000062 _ZN3pxtL9readBytesEPhS0_ibi
00000000 l    df *ABS*	00000000 control.cpp
00000000 l    df *ABS*	00000000 gc.cpp
08007c3c l     F .text	0000003e _ZN3pxtL13getObjectSizeEPNS_9RefObjectE
08007c7c l     F .text	00000054 _ZN3pxtL9removePtrEPNS_12TValueStructE
080080a8 l     F .text	000000d0 _ZN3pxtL13allocateBlockEv
08008514 l     F .text	00000018 _GLOBAL__sub_I__ZN3pxt16RefRecord_gcsizeEPNS_9RefRecordE
2000280c l     O .bss	00000004 _ZN3pxtL10firstBlockE
20002e55 l     O .bss	00000001 _ZN3pxtL11tempRootLenE
20002810 l     O .bss	00000004 _ZN3pxtL6midPtrE
20002814 l     O .bss	00000008 _ZN3pxtL7gcRootsE
2000281c l     O .bss	00000004 _ZN3pxtL8tempRootE
20002820 l     O .bss	00000004 _ZN3pxtL9firstFreeE
20002824 l     O .bss	00000008 _ZN3pxtL9workQueueE
00000000 l    df *ABS*	00000000 loops.cpp
00000000 l    df *ABS*	00000000 pxt.cpp
0800859c l     F .text	0000009c _ZN3pxt9LLSegment9setLengthEj.part.7
08008638 l     F .text	0000001c _ZN3pxt8checkStrEbPKc.part.8
0800c2d0 l     O .text	00000024 _ZN3pxtL13RefMap_vtableE
0800c300 l     O .text	00000024 _ZN3pxtL18RefRefLocal_vtableE
0800c330 l     O .text	00000024 _ZN3pxtL20RefCollection_vtableE
00000000 l    df *ABS*	00000000 codal.cpp
08008bf4 l     F .text	00000018 _ZN3pxtL10runAction0EPNS_12TValueStructE
08008f5c l     F .text	00000058 _GLOBAL__sub_I__ZN3pxt8devTimerE
00000000 l    df *ABS*	00000000 control.cpp
00000000 l    df *ABS*	00000000 i2c.cpp
08009064 l     F .text	00000040 _ZN4pinsL7initI2CEv.part.0
20002884 l     O .bss	00000004 _ZN4pinsL3i2cE
00000000 l    df *ABS*	00000000 pins.cpp
20002e56 l     O .bss	00000001 _ZN3pxtL10numPinPtrsE
20002888 l     O .bss	00000080 _ZN3pxtL6pinPosE
20002908 l     O .bss	00000004 _ZN3pxtL7pinPtrsE
00000000 l    df *ABS*	00000000 pinsAnalog.cpp
00000000 l    df *ABS*	00000000 pinsDigital.cpp
00000000 l    df *ABS*	00000000 pinsPWM.cpp
00000000 l    df *ABS*	00000000 platform.cpp
00000000 l    df *ABS*	00000000 spi.cpp
08009390 l     F .text	00000054 _ZN4pinsL7initSPIEv.part.0
2000290c l     O .bss	00000004 _ZN4pinsL3spiE
00000000 l    df *ABS*	00000000 usb.cpp
20002910 l     O .bss	00000004 _ZN3pxtL11pSendToUARTE
00000000 l    df *ABS*	00000000 main.cpp
00000000 l    df *ABS*	00000000 pointers.cpp
00000000 l    df *ABS*	00000000 CodalCompat.cpp
20002914 l     O .bss	00000004 _ZL12random_value
00000000 l    df *ABS*	00000000 CodalComponent.cpp
00000000 l    df *ABS*	00000000 CodalDevice.cpp
00000000 l    df *ABS*	00000000 CodalDmesg.cpp
08009770 l     F .text	00000074 _ZL9logwritenPKci
080097e4 l     F .text	00000088 _ZL11logwritenummbb
20002a18 l     O .bss	00000004 _ZL14dmesg_flush_fn
00000000 l    df *ABS*	00000000 CodalFiber.cpp
08009974 l     F .text	00000032 _ZL15get_fibers_fromPPPN5codal5FiberEPiS1_
08009be8 l     F .text	00000034 _ZL10handle_fobv
08009c1c l     F .text	00000058 _Z14__create_fibermmmi.part.2
08009ed8 l     F .text	00000184 _ZN5codal8scheduleEv.part.6
20002e24 l     O .bss	00000004 _ZN5codalL10messageBusE
20002e28 l     O .bss	00000004 _ZN5codalL10sleepQueueE
20002e58 l     O .bss	00000001 _ZN5codalL11fiber_flagsE
20002e2c l     O .bss	00000004 _ZN5codalL11forkedFiberE
20002e30 l     O .bss	00000004 _ZN5codalL8runQueueE
20002e34 l     O .bss	00000004 _ZN5codalL9fiberPoolE
20002e38 l     O .bss	00000004 _ZN5codalL9idleFiberE
20002e3c l     O .bss	00000004 _ZN5codalL9waitQueueE
00000000 l    df *ABS*	00000000 CodalHeapAllocator.cpp
20002e59 l     O .bss	00000001 _ZZ13device_mallocE11initialised
00000000 l    df *ABS*	00000000 CodalListener.cpp
00000000 l    df *ABS*	00000000 Timer.cpp
00000000 l    df *ABS*	00000000 MessageBus.cpp
20002804 l     O .data	00000002 _ZL12userNotifyId
00000000 l    df *ABS*	00000000 Event.cpp
0800ad40 l     F .text	0000002c _ZN5codal5EventC2EttNS_15EventLaunchModeE.part.0
0800ad40 l     F .text	0000002c _ZN5codal5EventC2EttmNS_15EventLaunchModeE.part.1
00000000 l    df *ABS*	00000000 MemberFunctionCallback.cpp
00000000 l    df *ABS*	00000000 CmI2C.cpp
00000000 l    df *ABS*	00000000 CmPin.cpp
0800b004 l     F .text	00000024 _ZN5codal3_cm3Pin17setAnalogPeriodUsEi.part.1
00000000 l    df *ABS*	00000000 CmSPI.cpp
0800b0f8 l     F .text	00000054 _ZN5codal3_cm16_codal_setup_pinEPNS0_3PinEmPK6PinMap.part.0
0800b14c l     F .text	0000005c _ZN5codal3_cm3SPI4initEv.part.1
00000000 l    df *ABS*	00000000 CmTimer.cpp
00000000 l    df *ABS*	00000000 CmPinMap.cpp
00000000 l    df *ABS*	00000000 I2C.cpp
00000000 l    df *ABS*	00000000 _arm_addsubdf3.o
00000000 l    df *ABS*	00000000 _arm_truncdfsf2.o
00000000 l    df *ABS*	00000000 _arm_addsubsf3.o
00000000 l    df *ABS*	00000000 _arm_muldivsf3.o
00000000 l    df *ABS*	00000000 libgcc2.c
00000000 l    df *ABS*	00000000 STM32BluePillIO.cpp
00000000 l    df *ABS*	00000000 impure.c
20000010 l     O .boot_data	00000410 impure_data
08002418 g     F .boot_text	00000034 __wrap___aeabi_dcmpun
0800b320 g     F .text	00000038 pinmap_mode
08006bd0 g     F .text	00000030 _ZN7String_7indexOfEPN3pxt11BoxedStringES2_i
0800a508 g     F .text	00000030 _ZN5codal5TimerC1Ev
080062f8 g     F .text	00000050 _ZN13BufferMethods11writeBufferEPN3pxt11BoxedBufferEiS2_ii
08004590 g     F .boot_text	00000048 flash_write
08007604 g     F .text	00000020 _ZN5Math_5roundEPN3pxt12TValueStructE
0800b0ac g     F .text	00000004 _ZN5codal3_cm3Pin15setServoPulseUsEi
0800ad24 g     F .text	00000012 _ZN5codal10MessageBusD0Ev
080022bc g     F .boot_text	00000030 __wrap___aeabi_ddiv
08008e48 g     F .text	00000020 _ZN3pxt16afterProgramPageEv
080095bc  w    F .text	00000002 _ZN5codal14CodalComponent16periodicCallbackEv
08007dc8 g     F .text	00000034 _ZN3pxt13gcScanSegmentERNS_7SegmentE
080019d4 g     F .boot_text	00000040 st_usbfs_ep_stall_get
08009a70 g     F .text	00000044 _ZN5codal14scheduler_tickENS_5EventE
08001eb6 g     F .boot_text	00000000 qfp_fdiv_fast
080024cc g     F .boot_text	0000001c log
080067b4 g     F .text	00000006 _ZN7control2gcEv
08004fcc g       .boot_preinit_array	00000000 __boot_preinit_array_start
080064f0 g     F .text	00000136 _ZN3pxt13setNumberCoreEPhiNS_12NumberFormatEPNS_12TValueStructE
080024b0 g     F .boot_text	0000001c sqrt
08001078 g     F .boot_text	0000009e _usbd_control_out
08009500  w    F .text	00000002 _ZN3pxt4decrEPNS_12TValueStructE
08002874 g     F .boot_text	000000a0 cosh
080003f4 g     F .boot_text	00000004 tcb_configure_stack_base
080029c4 g     F .boot_text	000000a0 asinh
0800b0c0 g     F .text	0000000c _ZN5codal3_cm3SPI12setFrequencyEm
08006794 g     F .text	00000004 _ZN7control13runInParallelEPN3pxt12TValueStructE
080068b4 g     F .text	00000040 _ZN3pxt8mkBufferEPKhi
08000150 g     F .boot_text	000000f0 reset_handler
080003dc g     F .boot_text	00000008 fiber_initial_stack_base
20002e5a g     O .bss	00000001 heap_count
08003568 g     F .boot_text	000000f4 bootloader_start
0800b038 g     F .text	00000054 _ZN5codal3_cm3PinC1Ei7PinNameNS_13PinCapabilityE
0800896c g     F .text	00000010 _ZN3pxt11RefRefLocalC1Ev
08000e2c g     F .boot_text	0000000e usbd_ep_write_packet
0800b8a4 g     F .text	0000005a .hidden __floatdidf
08000e4c g     F .boot_text	00000008 usbd_ep_stall_set
0800aea0 g     F .text	0000000e _ZN5codal3_cm3Pin8isOutputEv
0800cb2c g     O .text	00000048 PinMap_SPI_MOSI
080063a0 g     F .text	00000080 _ZN13BufferMethods5shiftEPN3pxt11BoxedBufferEiii
0800a470 g     F .text	00000018 _ZN5codal8ListenerD2Ev
08008a38 g     F .text	00000108 _ZN3pxt11exec_binaryEPj
080003f0 g     F .boot_text	00000004 tcb_configure_sp
080005a8  w    F .boot_text	00000002 usart3_isr
08008e68 g     F .text	00000004 _ZN3pxt15getSerialNumberEv
08003504 g     F .boot_text	00000030 rtc_isr
0800ca74 g     O .text	00000018 _ZTVN5codal3_cm5TimerE
080076c0 g     F .text	0000012a _ZN3pxt7eq_boolEPNS_12TValueStructES1_
08003234 g     F .boot_text	00000030 _Z11debug_printi
0800ac24 g     F .text	00000094 _ZN5codal10MessageBusC2Ev
08003298 g     F .boot_text	00000018 _Z13debug_printlni
080005a8  w    F .boot_text	00000002 tim7_isr
080008c4 g     F .boot_text	0000000c exti_reset_request
20000eb0 g     O .boot_bss	00000001 running_tid
20002858 g     O .bss	00000004 _ZN3pxt6deviceE
080005a8  w    F .boot_text	00000002 adc1_2_isr
0800adb4 g     F .text	00000024 _ZN5codal14EventQueueItemC2ENS_5EventE
0800b1dc g     F .text	00000060 _ZN5codal3_cm3SPIC1ERNS0_3PinES3_S3_
080062cc g     F .text	00000016 _ZN13BufferMethods7getByteEPN3pxt11BoxedBufferEi
0800bd24 g     F .text	00000136 .hidden __divsf3
08007044 g     F .text	0000000c _ZN5pxtrt13getGlobalsPtrEv
080003fc g     F .boot_text	00000004 get_current_sp
0800244c g     F .boot_text	0000002c __wrap___aeabi_d2iz
080005a8  w    F .boot_text	00000002 tim1_trg_com_isr
08006e34 g     F .text	00000010 _ZN6Array_5getAtEPN3pxt13RefCollectionEi
08007800 g     F .text	00000010 _ZN6numops3neqEPN3pxt12TValueStructES2_
08006b9c g     F .text	00000034 _ZN7String_6substrEPN3pxt11BoxedStringEii
0800920c g     F .text	00000010 _ZN3pxt9lookupPinEi
08006da4 g     F .text	00000012 _ZN3pxt7fromIntEi
08006dd4 g     F .text	0000000a _ZN3pxt8fromBoolEb
0800ae20 g     F .text	00000004 _ZN5codal3_cm3I2C12readRegisterEthPhib
08003008 g     F .boot_text	00000034 memmove
080075c8 g     F .text	00000012 _ZN5Math_5floorEPN3pxt12TValueStructE
08006f18 g     F .text	00000008 _ZN5pxtrt9ptrToBoolEPN3pxt12TValueStructE
08006e44 g     F .text	00000006 _ZN6Array_5setAtEPN3pxt13RefCollectionEiPNS0_12TValueStructE
080067d0 g     F .text	00000004 _ZN7control16profilingEnabledEv
08009520 g     F .text	0000002c _ZN5codal14string_reverseEPc
0800b3c8 g     F .text	00000050 _ZN5codal3I2C12readRegisterEthPhib
08009718 g     F .text	00000028 _ZN5codal14CodalComponent15removeComponentEv
08008cc8 g     F .text	00000004 _ZN3pxt8sleep_usEy
08008554 g     F .text	00000028 _ZN3pxt9RefAction5printEPS0_
080064d4 g     F .text	00000014 _ZN13BufferMethods5writeEPN3pxt11BoxedBufferEiS2_
08001e06 g     F .boot_text	00000000 qfp_fadd
0800be5c g     F .text	00000070 .hidden __powidf2
080016ec g     F .boot_text	00000064 _usbd_standard_request
08008804 g     F .text	00000032 _ZN3pxt7Segment3setEjPNS_12TValueStructE
08003cc4 g     F .boot_text	00000018 target_set_led
08009504  w    F .text	00000010 _ZN3pxt12ptrOfLiteralEi
08000e5c g     F .boot_text	00000008 usbd_ep_nak_set
08006808 g     F .text	00000050 _ZN3pxt10setBindingEiiPNS_12TValueStructE
080022ec g     F .boot_text	00000030 __wrap___aeabi_dmul
080005a8  w    F .boot_text	00000002 usb_hp_can_tx_isr
08006ea8 g     F .text	00000004 _ZN5pxtrt8ldlocRefEPN3pxt11RefRefLocalE
08008904 g     F .text	00000038 _ZN3pxt7Segment5printEv
080094a0 g     F .text	00000002 _ZN3pxt8usb_initEv
080084b8 g     F .text	00000006 _ZN3pxt13RefCollection4scanEPS0_
08007d48 g     F .text	00000038 _ZN3pxt6gcScanEPNS_12TValueStructE
0800a788  w    F .text	00000018 _ZN5codal14CodalComponentD2Ev
08009878 g     F .text	000000d4 codal_vdmesg
08001e00 g     F .boot_text	00000000 qfp_fsub
08007578 g     F .text	00000012 _ZN5Math_4atanEPN3pxt12TValueStructE
08000a28 g     F .boot_text	000000bc flash_erase_page
0800b3a8 g     F .text	0000001e _ZN5codal3I2C13writeRegisterEthh
08002cdc g     F .boot_text	00000088 ceil
0800b4ac g     F .text	000000d0 _ZN5codal3I2C4readEtPhib
080003ac g     F .boot_text	00000004 target_seed_random
08006628 g     F .text	0000001a _ZN13BufferMethods9setNumberEPN3pxt11BoxedBufferENS0_12NumberFormatEiPNS0_12TValueStructE
08008a14 g     F .text	0000000c _ZN3pxt12templateHashEv
080005a8  w    F .boot_text	00000002 tim6_isr
08003dc0 g     F .boot_text	00000004 target_flash_unlock
08004fcc g       *ABS*	00000000 _boot_data_loadaddr
08002c54 g     F .boot_text	00000088 floor
0800c240 g     O .text	00000024 _ZN3pxt9number_vtE
0800cc38 g       .init_array	00000000 _etext
0800895c g     F .text	00000010 _ZN3pxt13RefCollectionC1Ev
0800061c g     F .boot_text	00000076 gpio_set_mode
08006fe4 g     F .text	00000014 _ZN5pxtrt6mapGetEPN3pxt6RefMapEj
08009a04 g     F .text	00000036 _ZN5codal11queue_fiberEPNS_5FiberEPS1_
0800b038 g     F .text	00000054 _ZN5codal3_cm3PinC2Ei7PinNameNS_13PinCapabilityE
080005a8  w    F .boot_text	00000002 usb_wakeup_isr
080077f0 g     F .text	00000010 _ZN6numops2eqEPN3pxt12TValueStructES2_
20000eb8 g     O .boot_bss	00001044 pkt
080005a8 g     F .boot_text	00000002 blocking_handler
08009748 g     F .text	00000006 _ZN5codal11CodalDevice5sleepEm
20000eb1 g     O .boot_bss	00000001 running
08003394 g     F .boot_text	00000020 led_setup
0800b9ac g     F .text	00000160 .hidden __aeabi_fadd
080005a8  w    F .boot_text	00000002 tim5_isr
0800b9a8 g     F .text	00000164 .hidden __subsf3
080071e8 g     F .text	0000002a _ZN6numops4asrsEPN3pxt12TValueStructES2_
08003270 g     F .boot_text	00000028 debug_println
080079c4 g     F .text	00000022 _ZN6numops2ltEPN3pxt12TValueStructES2_
080005a8  w    F .boot_text	00000002 otg_fs_isr
0800040c g     F .boot_text	00000070 test_codal
0800ae8c g     F .text	00000004 _ZN5codal3_cm3Pin14getAnalogValueEv
0800b2e4 g     F .text	0000003c pinmap_peripheral
080005a8  w    F .boot_text	00000002 spi1_isr
08000378 g     F .boot_text	00000034 target_wait_us
08000304 g     F .boot_text	00000014 target_reset
0800730c g     F .text	00000026 _ZN6numops4subsEPN3pxt12TValueStructES2_
0800a264 g     F .text	0000003c _Z18device_create_heapmm
080070e8 g     F .text	00000004 _ZN3pxt8toDoubleEPNS_12TValueStructE
08007054 g     F .text	00000048 _ZN3pxt7valTypeEPNS_12TValueStructE
0800a2c4 g     F .text	0000008e _Z16device_malloc_injR14HeapDefinition
08003c68 g     F .boot_text	0000005c winusb_setup
0800afc4 g     F .text	00000040 _ZN5codal3_cm3Pin7eventOnEi
08002fac g     F .boot_text	0000001c memcpy
08008cac  w    F .text	00000014 _ZN5codal3_cm5TimerD2Ev
080005a8  w    F .boot_text	00000002 exti2_isr
080005a8  w    F .boot_text	00000002 dma1_channel6_isr
08006e18 g     F .text	00000006 _ZN6Array_9setLengthEPN3pxt13RefCollectionEi
08006784 g     F .text	00000004 _ZN7control15internalOnEventEiiPN3pxt12TValueStructEi
080093e4 g     F .text	00000028 _ZN4pins8spiWriteEi
08009240 g     F .text	00000010 _ZN22DigitalInOutPinMethods11digitalReadEPN5codal16STM32BluePillPinE
080005ac g     F .boot_text	00000002 null_handler
08006f0c g     F .text	0000000c _ZN5pxtrt11emptyToNullEPN3pxt11BoxedStringE
08008990 g     F .text	00000064 _ZN3pxt6RefMap7findIdxEPNS_11BoxedStringE
20000004 g     O .boot_data	00000004 rcc_ahb_frequency
0800b82c g     F .text	00000022 .hidden __floatsidf
0800add8 g     F .text	00000020 _ZN5codal22MemberFunctionCallback4fireENS_5EventE
0800c270 g     O .text	00000024 _ZN3pxt9string_vtE
20001f04 g     O .boot_bss	00000001 dataToSendFlag
0800b1dc g     F .text	00000060 _ZN5codal3_cm3SPIC2ERNS0_3PinES3_S3_
08008c7c g     F .text	0000000e _ZN3pxt9fiberDoneEPv
08006000 g     F .text	0000016c _ZN6numops5mycvtEdPc
08000404 g     F .boot_text	00000008 tcb_configure_args
08004318 g     F .boot_text	0000002c hf2_setup
0800c2a0 g     O .text	00000024 _ZN3pxt16RefAction_vtableE
08008cc4 g     F .text	00000004 _ZN3pxt8sleep_msEj
080005a8  w    F .boot_text	00000002 can_rx1_isr
0800cc38 g       .fini_array	00000000 __fini_array_end
080005a8  w    F .boot_text	00000002 dma1_channel5_isr
0800933c g     F .text	00000018 _ZN22DigitalInOutPinMethods7setPullEPN5codal16STM32BluePillPinE11PinPullMode
08007810 g     F .text	0000002e _ZN6Array_7indexOfEPN3pxt13RefCollectionEPNS0_12TValueStructEi
0800b1a8 g     F .text	00000032 _ZN5codal3_cm3SPI13startTransferEPKhmPhmPFvPvES5_
08006200 g     F .text	00000012 _ZN5Math_4sinhEPN3pxt12TValueStructE
08009230 g     F .text	00000006 _ZN18AnalogInPinMethods10analogReadEPN5codal16STM32BluePillPinE
08008334 g     F .text	00000028 malloc
0800c86c g     O .text	00000024 _ZTVN5codal11CodalDeviceE
08006e14 g     F .text	00000004 _ZN6Array_6lengthEPN3pxt13RefCollectionE
080005a8  w    F .boot_text	00000002 dma2_channel5_isr
0800986c g     F .text	0000000c codal_dmesg_set_flush_fn
0800a470 g     F .text	00000018 _ZN5codal8ListenerD1Ev
0800bb14 g     F .text	0000001c .hidden __aeabi_i2f
0800852c g     F .text	00000004 _ZN5loops7foreverEPN3pxt12TValueStructE
08004674 g     O .boot_text	00000034 st_usbfs_v1_usb_driver
08000c9c g     F .boot_text	00000034 rtc_clear_flag
0800a538 g     F .text	000000b8 _ZN5codal5Timer8setEventEmttb
0800753c g     F .text	00000012 _ZN5Math_3tanEPN3pxt12TValueStructE
0800785c g     F .text	00000064 _ZN6numops6toBoolEPN3pxt12TValueStructE
0800893c g     F .text	00000020 _ZN3pxt13RefCollection5printEPS0_
080005a8  w    F .boot_text	00000002 usart1_isr
080067bc g     F .text	00000014 _ZN7control8heapDumpEv
080099a8 g     F .text	0000005c _ZN5codal11list_fibersEPPNS_5FiberE
0800938c g     F .text	00000002 _Z14cpu_clock_initv
08009e90 g     F .text	00000048 _ZN5codal4idleEv
0800758c g     F .text	00000012 _ZN5Math_4asinEPN3pxt12TValueStructE
2000053c g     O .boot_bss	00000004 .hidden __dso_handle
0800b80c g     F .text	0000001e .hidden __aeabi_ui2d
0800b358 g     F .text	00000038 pinmap_cnf
0800872c g     F .text	0000002e _ZN3pxt9LLSegment3setEjPNS_12TValueStructE
08000400 g     F .boot_text	00000004 tcb_get_sp
08001620 g     F .boot_text	00000032 usbd_register_set_config_callback
080017b0 g     F .boot_text	00000118 st_usbfs_ep_setup
080008e8 g     F .boot_text	00000010 flash_lock
080090f0 g     F .text	00000034 _ZN4pins14i2cWriteBufferEiPN3pxt11BoxedBufferEb
080003b0 g     F .boot_text	0000000c target_get_serial
0800aed4 g     F .text	00000008 _ZN5codal3_cm3Pin17getAnalogPeriodUsEv
08007e54 g     F .text	00000254 _ZN3pxt2gcEi
0800b588 g     F .text	00000000 .hidden __aeabi_drsub
0800ae1c g     F .text	00000004 _ZN5codal3_cm3I2C4readEtPhib
08009370 g     F .text	0000001c _ZN3pxt13platform_initEv
0800a170 g     F .text	00000014 _ZN5codal13release_fiberEPv
0800a3b0 g     F .text	00000040 device_free
08008708 g     F .text	0000000a _ZN3pxt15deleteRefObjectEPNS_9RefObjectE
08006214 g     F .text	00000012 _ZN5Math_4coshEPN3pxt12TValueStructE
08009134  w    F .text	00000006 _ZN5codal3Pin8drainPinEv
08007030 g     F .text	00000014 _ZN5pxtrt6mapSetEPN3pxt6RefMapEjPNS0_12TValueStructE
080084fc g     F .text	00000004 _ZN3pxt13RefCollection6gcsizeEPS0_
080005a8  w    F .boot_text	00000002 usage_fault_handler
080005a8  w    F .boot_text	00000002 tim8_trg_com_isr
0800b2bc g     F .text	00000028 _ZN5codal3_cm5TimerC1Ev
08009358 g     F .text	00000014 _ZN17PwmOnlyPinMethods10servoWriteEPN5codal16STM32BluePillPinEi
080032b4 g     F .boot_text	00000048 debug_printhex
080005a8  w    F .boot_text	00000002 can2_rx0_isr
0800695c g     F .text	00000040 _ZN7String_6charAtEPN3pxt11BoxedStringEi
08008fb4 g     F .text	00000064 _ZN3pxt15registerWithDalEiiPNS_12TValueStructEi
0800b3a0 g     F .text	00000006 _ZN5codal3I2C4readENS_15AcknowledgeTypeE
080005a8  w    F .boot_text	00000002 tim1_brk_isr
08008e7c g     F .text	0000000c _ZN3pxt16setThreadContextEPNS_13ThreadContextE
08001fa8 g     F .boot_text	00000000 qfp_float2ufix
20000eb4 g     O .boot_bss	00000004 msTimer
0800aa54 g     F .text	0000009c _ZN5codal10MessageBus7processERNS_5EventEb
08008d14 g     F .text	00000008 _ZN3pxt12waitForEventEii
20002830 g     O .bss	00000004 _ZN3pxt8bytecodeE
0800a788  w    F .text	00000018 _ZN5codal14CodalComponentD1Ev
08006ec4 g     F .text	00000042 _ZN5pxtrt5stcloEPN3pxt9RefActionEiPNS0_12TValueStructE
080084c8 g     F .text	00000006 _ZN3pxt11RefRefLocal4scanEPS0_
08001f06 g     F .boot_text	00000000 qfp_fsqrt_fast
20001efc g     O .boot_bss	00000004 dataToSend
08003188 g     F .boot_text	00000010 debug_flush
0800b850 g     F .text	00000042 .hidden __extendsfdf2
08003b04 g     F .boot_text	00000058 webusb_setup
0800b594 g     F .text	00000276 .hidden __adddf3
08009030 g     F .text	00000010 _ZN7control16deviceDalVersionEv
0800944c g     F .text	00000028 _ZN4pins12spiFrequencyEi
0800b390 g     F .text	00000006 _ZN5codal3I2C12setFrequencyEm
0800a070 g     F .text	00000048 _ZN5codal11fiber_sleepEm
0800ab54 g     F .text	00000018 _ZN5codal10MessageBus4sendENS_5EventE
08000afc g     F .boot_text	00000018 rtc_exit_config_mode
08009514  w    F .text	00000002 _ZN3pxt16startPerfCounterENS_12PerfCountersE
0800c93c g     O .text	0000002c _ZTVN5codal3_cm3I2CE
080005a8  w    F .boot_text	00000002 can2_rx1_isr
08000990 g     F .boot_text	00000098 flash_program_half_word
08003390 g     F .boot_text	00000004 _ZdlPv
080070ec g     F .text	000000cc _ZN3pxt6toUIntEPNS_12TValueStructE
080005bc g     F .boot_text	00000010 pwr_disable_backup_domain_write_protect
080084c0 g     F .text	00000008 _ZN3pxt9RefAction4scanEPS0_
080075dc g     F .text	00000012 _ZN5Math_4ceilEPN3pxt12TValueStructE
0800b24c g     F .text	00000004 _ZN5codal3_cm14alarm_callbackEv
080005a8  w    F .boot_text	00000002 tim1_cc_isr
0800a730 g     F .text	0000002c _ZN5codal27system_timer_event_every_usEmtt
0800af64 g     F .text	00000028 _ZN5codal3_cm3Pin15getAnalogPeriodEv
080005dc g     F .boot_text	0000001a rcc_periph_clock_enable
08000ddc g     F .boot_text	00000038 _usbd_reset
0800b80c g     F .text	0000001e .hidden __floatunsidf
080075b4 g     F .text	00000012 _ZN5Math_4sqrtEPN3pxt12TValueStructE
080037f8 g     F .boot_text	00000050 dump_buffer
0800b250 g     F .text	00000012 _ZN5codal3_cm5Timer9triggerInEm
080005a8  w    F .boot_text	00000002 sdio_isr
08006460 g     F .text	00000072 _ZN13BufferMethods6rotateEPN3pxt11BoxedBufferEiii
080075f0 g     F .text	00000012 _ZN5Math_5truncEPN3pxt12TValueStructE
08006940 g     F .text	0000001c _ZN7String_12fromCharCodeEi
08001118 g     F .boot_text	00000068 _usbd_control_in
080044a8 g     F .boot_text	00000038 backup_write
080005a8  w    F .boot_text	00000002 eth_isr
080088c0 g     F .text	00000044 _ZN3pxt7Segment6insertEjPNS_12TValueStructE
08006798 g     F .text	00000004 _ZN7control12waitForEventEii
08008510 g     F .text	00000004 _ZN3pxt6RefMap6gcsizeEPS0_
0800b3a0 g     F .text	00000006 _ZN5codal3I2C5writeEh
080044e0 g     F .boot_text	00000018 backup_read
20000008 g     O .boot_data	00000004 rcc_apb1_frequency
08001fd0 g     F .boot_text	00000000 qfp_ufix2float
08009278 g     F .text	00000038 _ZN22DigitalInOutPinMethods7onEventEPN5codal16STM32BluePillPinE8PinEventPN3pxt12TValueStructE
20002e57 g     O .bss	00000001 _ZN5codal14CodalComponent13configurationE
08002f98 g     F .boot_text	00000014 strtol
08002350 g     F .boot_text	00000030 __wrap___aeabi_dcmplt
080005a8  w    F .boot_text	00000002 dma1_channel4_isr
08006a08 g     F .text	00000024 _ZN7String_7compareEPN3pxt11BoxedStringES2_
080005a8  w    F .boot_text	00000002 tim8_brk_isr
0800a6f8 g     F .text	0000001c _ZN5codal25system_timer_current_timeEv
080089f8 g     F .text	0000001c _ZN3pxt5errorENS_9PXT_PANICEi
080023e4 g     F .boot_text	00000034 __wrap___aeabi_dcmpgt
080005a8  w    F .boot_text	00000002 dma2_channel4_5_isr
0800936c g     F .text	00000004 _ZN17PwmOnlyPinMethods13servoSetPulseEPN5codal16STM32BluePillPinEi
0800adb4 g     F .text	00000024 _ZN5codal14EventQueueItemC1ENS_5EventE
080072dc g     F .text	0000000c _ZN3pxt7toFloatEPNS_12TValueStructE
20002e20 g     O .bss	00000004 _ZN5codal12currentFiberE
0800b900 g     F .text	0000009e .hidden __aeabi_d2f
0800a6f4 g     F .text	00000002 _ZN5codal5TimerD2Ev
080002b8 g     F .boot_text	0000000c target_set_alarm_callback
0800b9a8 g     F .text	00000164 .hidden __aeabi_fsub
20002e4c g     O .bss	00000004 _ZN5codal10EventModel15defaultEventBusE
08009e80 g     F .text	00000010 _ZN5codal24scheduler_runqueue_emptyEv
080095cc g     F .text	00000074 _Z18component_callbackN5codal5EventE
20002e5c g       .bss	00000000 _ebss
08006420 g     F .text	00000040 _ZN13BufferMethods5toHexEPN3pxt11BoxedBufferE
0800ad6c g     F .text	0000001c _ZN5codal5EventC1EttNS_15EventLaunchModeE
08001c84 g     F .boot_text	00000034 os_init
08000e1c g     F .boot_text	0000000e usbd_ep_setup
08006c10 g     F .text	00000008 _ZN8Boolean_4bangEi
080071bc g     F .text	0000002a _ZN6numops4lslsEPN3pxt12TValueStructES2_
0800057a g       .boot_text	00000000 restore_register_context
08008bec  w    F .text	00000008 _ZN5codal14CodalComponent4initEv
08000fe0 g     F .boot_text	00000032 usbd_register_control_callback
0800a5f0 g     F .text	0000002e _ZN5codal5Timer4syncEm
080005a8  w    F .boot_text	00000002 pvd_isr
08000e3c g     F .boot_text	0000000e usbd_ep_read_packet
080084e8 g     F .text	00000012 _ZN3pxt14RefRecord_scanEPNS_9RefRecordE
0800b57c g     F .text	0000000c _ZN5codal3I2CC2ERNS_3PinES2_
0800ad88 g     F .text	00000018 _ZN5codal5EventC1EttmNS_15EventLaunchModeE
0800858c g     F .text	00000010 _ZN3pxt6RefMap5printEPS0_
0800a3f0 g     F .text	00000020 calloc
08003320 g     F .boot_text	00000054 platform_setup
080076a0 g     F .text	00000010 _ZN6numops3eqqEPN3pxt12TValueStructES2_
08006e2c g     F .text	00000006 _ZN6Array_3popEPN3pxt13RefCollectionE
08008a2c g     F .text	0000000c _ZN3pxt13getNumGlobalsEv
0800850c g     F .text	00000004 _ZN3pxt11RefRefLocal6gcsizeEPS0_
0800bb40 g     F .text	0000007c .hidden __floatdisf
08001fa6 g     F .boot_text	00000000 qfp_float2uint
0800996c  w    F .text	00000008 _ZN5codal10EventModel6removeEPNS_8ListenerE
08001d2c g     F .boot_text	0000000c os_event_init
08008ccc g     F .text	00000024 _ZN3pxt10runForeverEPNS_12TValueStructE
080086b8 g     F .text	00000044 _ZN3pxt15mkClassInstanceEPNS_6VTableE
08006a2c g     F .text	00000004 _ZN7String_6lengthEPN3pxt11BoxedStringE
200007c8 g     O .boot_bss	00000004 usbd_dev
0800678c g     F .text	00000006 _ZN7control10waitMicrosEi
0800032c g     F .boot_text	00000004 target_disable_irq
080033b4 g     F .boot_text	00000010 led_on
0800b594 g     F .text	00000276 .hidden __aeabi_dadd
0800a160 g     F .text	00000010 _ZN5codal16launch_new_fiberEPFvvES1_
20000eb2 g     O .boot_bss	00000001 last_running_task
0800951c  w    F .text	00000002 _ZN3pxt16dumpPerfCountersEv
0800acb8 g     F .text	00000064 _ZN5codal10MessageBusD2Ev
080005ac  w    F .boot_text	00000002 sv_call_handler
0800c210 g     O .text	00000024 _ZN3pxt9buffer_vtE
08006764 g     F .text	0000001c _ZN13BufferMethods9getNumberEPN3pxt11BoxedBufferENS0_12NumberFormatEi
080005a8  w    F .boot_text	00000002 rcc_isr
08000000 g     O .boot_text	00000150 vector_table
080008f8 g     F .boot_text	00000070 desig_get_unique_id_as_string
0800b894 g     F .text	0000006a .hidden __aeabi_ul2d
0800054a g       .boot_text	00000000 save_register_context
080020ba g     F .boot_text	00000000 qfp_fexp
08007264 g     F .text	0000001e _ZN6numops4bnotEPN3pxt12TValueStructE
0800378c g     F .boot_text	00000050 aggregate_register_callback
080020a8 g     F .boot_text	00000000 qfp_fcos
0800857c g     F .text	00000010 _ZN3pxt11RefRefLocal5printEPS0_
0800895c g     F .text	00000010 _ZN3pxt13RefCollectionC2Ev
0800913c g     F .text	000000bc _ZN3pxt6getPinEi
08006250 g     F .text	00000012 _ZN5Math_5acoshEPN3pxt12TValueStructE
08006e5c g     F .text	00000010 _ZN3pxt11programSizeEv
080005a8  w    F .boot_text	00000002 flash_isr
0800cc38 g       *ABS*	00000000 _data_loadaddr
08009dbc g     F .text	00000098 _ZN5codal19fiber_wake_on_eventEtt
08009040 g     F .text	00000008 _ZN7control19allocateNotifyEventEv
20002e5c g       .bss	00000000 end
080005a8  w    F .boot_text	00000002 uart4_isr
08007334 g     F .text	00000054 _ZN6numops4mulsEPN3pxt12TValueStructES2_
08000bec g     F .boot_text	00000058 rtc_interrupt_enable
0800aee4 g     F .text	00000080 _ZN5codal3_cm3Pin15setDigitalValueEi
08003534 g     F .boot_text	00000030 rtc_alarm_isr
0800679c g     F .text	00000004 _ZN7control18deviceSerialNumberEv
080005a8  w    F .boot_text	00000002 exti15_10_isr
08004fcc g       .boot_init_array	00000000 __boot_init_array_end
08009dac g     F .text	00000010 _ZN5codal23fiber_scheduler_runningEv
20001f00 g     O .boot_bss	00000004 dataToSendLength
08009764  w    F .text	00000006 _ZN5codal11CodalDevice4waitEm
0800a620 g     F .text	000000d4 _ZN5codal5Timer7triggerEv
0800a410 g     F .text	0000002e device_realloc
0800ae40 g     F .text	00000004 _ZN5codal3_cm3Pin15getDigitalValueEv
080003f8 g     F .boot_text	00000004 tcb_get_stack_base
0800ada0 g     F .text	00000012 _ZN5codal5EventC2Ev
080003e4 g     F .boot_text	00000006 tcb_allocate
08007214 g     F .text	00000028 _ZN6numops4eorsEPN3pxt12TValueStructES2_
0800c8b8 g     O .text	00000018 _ZTVN5codal5TimerE
08002d64 g     F .boot_text	00000144 fmod
0800a2a0 g     F .text	00000024 _Z16device_heap_sizeh
080025fc g     F .boot_text	00000034 cos
0800ca4c g     O .text	0000001c _ZTVN5codal3_cm3SPIE
08008b40 g     F .text	00000028 _ZN3pxt5startEv
0800cb74 g     O .text	00000048 PinMap_SPI_NSS
08002914 g     F .boot_text	000000b0 tanh
080005a8  w    F .boot_text	00000002 hard_fault_handler
0800b418 g     F .text	00000094 _ZN5codal3I2C5writeEtPhib
080005a8  w    F .boot_text	00000002 exti1_isr
08006db8 g     F .text	0000001c _ZN3pxt8fromUIntEj
0800aedc g     F .text	00000006 _ZN5codal3_cm3Pin7setPullENS_8PullModeE
08009054 g     F .text	00000010 _ZN7control8dmesgPtrEPN3pxt11BoxedStringEPv
080023b4 g     F .boot_text	00000030 __wrap___aeabi_dcmpge
0800b290 g     F .text	0000002c _ZN5codal3_cm5Timer4initEv
080037dc g     F .boot_text	0000001c usb_set_serial_number
08007cd0 g     F .text	0000000c _ZN3pxt16RefRecord_gcsizeEPNS_9RefRecordE
080005a8  w    F .boot_text	00000002 i2c1_ev_isr
2000287c g     O .bss	00000008 _ZN3pxt9lastEventE
0800a0e4 g     F .text	0000007c _ZN5codal13release_fiberEv
080005f8 g     F .boot_text	00000024 rcc_periph_reset_pulse
08001e64 g     F .boot_text	00000000 qfp_fmul
0800cbbc g     O .text	00000048 PinMap_SPI_SCK
08001a64 g     F .boot_text	00000088 st_usbfs_ep_write_packet
08008488 g     F .text	0000001c _ZN3pxt13registerGCPtrEPNS_12TValueStructE
080018c8 g     F .boot_text	00000048 st_usbfs_endpoints_reset
0800994c g     F .text	0000001e codal_dmesg
0800b590 g     F .text	0000027a .hidden __aeabi_dsub
080005a8  w    F .boot_text	00000002 dma2_channel1_isr
0800a7c0  w    F .text	00000030 _ZN5codal22MemberFunctionCallback10methodCallINS_10MessageBusEEEvPvPmNS_5EventE
080095c4  w    F .text	00000008 _ZN5codal10EventModel3addEPNS_8ListenerE
0800a354 g     F .text	0000005c device_malloc
08002124 g     F .boot_text	00000000 qfp_fln
08007410 g     F .text	00000026 _ZN5Math_3powEPN3pxt12TValueStructES2_
08003170 g     F .boot_text	00000018 enable_log
080082f8 g     F .text	0000001a _ZN3pxt15gcAllocateArrayEi
0800304c g     F .boot_text	0000002e strstr
080005ac  w    F .boot_text	00000002 pend_sv_handler
08006eac g     F .text	00000004 _ZN5pxtrt8stlocRefEPN3pxt11RefRefLocalEPNS0_12TValueStructE
080025e0 g     F .boot_text	0000001c sin
0800b894 g     F .text	0000006a .hidden __floatundidf
08003384 g     F .boot_text	00000008 __cxa_pure_virtual
08009ab4 g     F .text	000000e4 _ZN5codal15scheduler_eventENS_5EventE
08000cd0 g     F .boot_text	00000030 rtc_check_flag
0800cae4 g     O .text	00000048 PinMap_SPI_MISO
080094b4 g     F .text	0000003c _ZN3pxt9dumpDmesgEv
080005a8  w    F .boot_text	00000002 spi2_isr
0800264c g     F .boot_text	00000054 atan2
08008548 g     F .text	0000000c _ZN3pxt6RefMap7destroyEPS0_
0800bb14 g     F .text	0000001c .hidden __floatsisf
08009758  w    F .text	00000006 _ZN5codal11CodalDevice5panicEi
0800ae44 g     F .text	0000001c _ZN5codal3_cm3Pin14setAnalogValueEi
20002e54 g     O .bss	00000001 _ZN3pxt4inGCE
080002c8 g     F .boot_text	0000003c target_init
20001f08 g       .boot_bss	00000000 boot_end
08009c74 g     F .text	00000138 _ZN5codal14scheduler_initERNS_10EventModelE
08007cdc g     F .text	0000006a _ZN3pxt16popThreadContextEPNS_13ThreadContextE
0800ae1c g     F .text	00000004 _ZN5codal3_cm3I2C5writeEtPhib
080094fc  w    F .text	00000002 _ZN3pxt4incrEPNS_12TValueStructE
08000e54 g     F .boot_text	00000008 usbd_ep_stall_get
0800231c g     F .boot_text	00000034 __wrap___aeabi_dcmpeq
08001f7c g     F .boot_text	00000000 qfp_float2int
080005a8  w    F .boot_text	00000002 tim8_up_isr
08008b68 g     F .text	0000002a _ZN6Array_7isArrayEPN3pxt12TValueStructE
08002148 g     F .boot_text	00000000 qfp_fatan2
08002554 g     F .boot_text	0000008c pow
080030a4 g     F .boot_text	00000026 strncpy
080027d4 g     F .boot_text	000000a0 sinh
08002b10 g     F .boot_text	000000b8 atanh
0800252c g     F .boot_text	00000028 log10
08001cdc g     F .boot_text	0000000c os_sem_init
0800abb0 g     F .text	00000010 _ZN5codal19allocateNotifyEventEv
08009224 g     F .text	0000000c _ZN4pins13pulseDurationEv
0800abc0  w    F .text	00000064 _ZN5codal8ListenerC2INS_10MessageBusEEEttPT_MS3_FvNS_5EventEEt
0800835c g     F .text	00000074 realloc
08008314 g     F .text	0000001e app_alloc
08009a3c g     F .text	00000034 _ZN5codal13dequeue_fiberEPNS_5FiberE
080072ac g     F .text	0000002e _ZN6numops4lsrsEPN3pxt12TValueStructES2_
0800875c g     F .text	0000001c _ZN3pxt9LLSegment3popEv
0800bd24 g     F .text	00000136 .hidden __aeabi_fdiv
08009518  w    F .text	00000002 _ZN3pxt15stopPerfCounterENS_12PerfCountersE
08006f34 g     F .text	0000001e _ZN5pxtrt14mapGetByStringEPN3pxt6RefMapEPNS0_11BoxedStringE
0800b82c g     F .text	00000022 .hidden __aeabi_i2d
080005a8  w    F .boot_text	00000002 dma2_channel2_isr
080089f4 g     F .text	00000002 _ZN3pxt13debugMemLeaksEv
08000828 g     F .boot_text	00000014 flash_set_ws
080006c4 g     F .boot_text	00000098 rcc_set_rtc_clock_source
0800176c g     F .boot_text	00000044 st_usbfs_set_ep_rx_bufsize
08003848 g     F .boot_text	00000178 dump_usb_request
08004fcc g       .boot_init_array	00000000 _boot_etext
0800c8d0  w    O .text	0000001c _ZTVN5codal14CodalComponentE
08002fec g     F .boot_text	0000001c memcmp
08001fc4 g     F .boot_text	00000000 qfp_fix2float
08001014 g     F .boot_text	00000064 _usbd_control_setup
0800bb30 g     F .text	0000008c .hidden __floatundisf
08007bc8 g     F .text	00000058 _ZN3pxt10failedCastEPNS_12TValueStructE
0800aebc g     F .text	0000000e _ZN5codal3_cm3Pin8isAnalogEv
080005ac  w    F .boot_text	00000002 debug_monitor_handler
080005a8  w    F .boot_text	00000002 exti3_isr
080005a8  w    F .boot_text	00000002 adc3_isr
0800307a g     F .boot_text	0000002a strncat
080077ec g     F .text	00000004 _ZN3pxt9switch_eqEPNS_12TValueStructES1_
0800a7a0  w    F .text	00000020 _ZN5codal14CodalComponentD0Ev
08000506 g       .boot_text	00000000 save_context
080005a8  w    F .boot_text	00000002 tim3_isr
080020b2 g     F .boot_text	00000000 qfp_ftan
080005a8  w    F .boot_text	00000002 usart2_isr
08002380 g     F .boot_text	00000034 __wrap___aeabi_dcmple
0800bb0c g     F .text	00000024 .hidden __aeabi_ui2f
080003bc  w    F .boot_text	00000020 target_panic
08003dc8 g     F .boot_text	000000f4 target_flash_program_array
08009250 g     F .text	00000006 _ZN22DigitalInOutPinMethods12digitalWriteEPN5codal16STM32BluePillPinEb
08003264 g     F .boot_text	0000000a debug_print
080005a8  w    F .boot_text	00000002 usb_lp_can_rx0_isr
08008874 g     F .text	0000004a _ZN3pxt7Segment6removeEj
08008540 g     F .text	00000008 _ZN3pxt13RefCollection7destroyEPS0_
08000484 g       .boot_text	00000000 swap_context
080079a0 g     F .text	00000022 _ZN6numops2leEPN3pxt12TValueStructES2_
0800cc38 g       .fini_array	00000000 __fini_array_start
080005a8  w    F .boot_text	00000002 i2c2_er_isr
080067ec g     F .text	0000001c _ZN3pxt11findBindingEii
08008714 g     F .text	00000018 _ZN3pxt15RefRecord_printEPNS_9RefRecordE
08007dfc g     F .text	00000058 _ZN3pxt9gcProcessEPNS_12TValueStructE
080061c4 g     F .text	00000012 _ZN5Math_4log2EPN3pxt12TValueStructE
08007b48 g     F .text	00000080 _ZN3pxt8anyPrintEPNS_12TValueStructE
08001a14 g     F .boot_text	00000050 st_usbfs_ep_nak_set
08007514 g     F .text	00000012 _ZN5Math_3logEPN3pxt12TValueStructE
080081c8 g     F .text	00000130 _ZN3pxt10gcAllocateEi
0800303c g     F .boot_text	00000010 memset
20002e48 g     O .bss	00000004 _ZN5codal12system_timerE
080094f0 g     F .text	0000000a main
08001750 g     F .boot_text	0000000c flash_wait_for_last_operation
08009e54 g     F .text	0000002c _ZN5codal12create_fiberEPFvPvES0_S2_
08002066 g     F .boot_text	00000000 qfp_fsin
08000d88 g     F .boot_text	00000054 usbd_init
08007438 g     F .text	00000026 _ZN5Math_5atan2EPN3pxt12TValueStructES2_
20002918 g     O .bss	00000100 _ZN5codal14CodalComponent10componentsE
0800b57c g     F .text	0000000c _ZN5codal3I2CC1ERNS_3PinES2_
080005a8  w    F .boot_text	00000002 i2c2_ev_isr
08003dc4 g     F .boot_text	00000004 target_flash_lock
0800bb40 g     F .text	0000007c .hidden __aeabi_l2f
080092b0 g     F .text	0000008c _ZN22DigitalInOutPinMethods7pulseInEPN5codal16STM32BluePillPinE10PulseValuei
080005a8  w    F .boot_text	00000002 uart5_isr
08006378 g     F .text	00000026 _ZN13BufferMethods5sliceEPN3pxt11BoxedBufferEii
08003500 g     F .boot_text	00000004 platform_set_alarm
20002e40 g     O .bss	00000008 heap
2000285c g     O .bss	00000020 _ZN3pxt8devTimerE
0800b0e0 g     F .text	00000018 _ZN5codal3_cm3SPI7setModeEii
08006eb0 g     F .text	00000012 _ZN5pxtrt8mklocRefEv
080005ac  w    F .boot_text	00000002 sys_tick_handler
0800c8ec  w    O .text	00000014 _ZTVN5codal10EventModelE
0800b900 g     F .text	0000009e .hidden __truncdfsf2
0800acb8 g     F .text	00000064 _ZN5codal10MessageBusD1Ev
08007050 g     F .text	00000002 _ZN5pxtrt14runtimeWarningEPN3pxt11BoxedStringE
0800cc38 g       .init_array	00000000 __init_array_end
080005a8  w    F .boot_text	00000002 fsmc_isr
080005a8  w    F .boot_text	00000002 dma1_channel1_isr
080005a8  w    F .boot_text	00000002 exti4_isr
08006d94 g     F .text	0000000e _ZN3pxt9fromFloatEf
0800940c g     F .text	00000040 _ZN4pins11spiTransferEPN3pxt11BoxedBufferES2_
0800b2bc g     F .text	00000028 _ZN5codal3_cm5TimerC2Ev
08007460 g     F .text	000000b2 _ZN5Math_11randomRangeEPN3pxt12TValueStructES2_
0800c9c4 g     O .text	00000054 _ZTVN5codal3_cm3PinE
0800b8a4 g     F .text	0000005a .hidden __aeabi_l2d
080020ea g     F .boot_text	00000000 qfp_fsqrt
20000000 g     O .boot_data	00000004 codal_heap_start
08006ff8 g     F .text	00000038 _ZN5pxtrt14mapSetByStringEPN3pxt6RefMapEPNS0_11BoxedStringEPNS0_12TValueStructE
08006df0 g     F .text	00000006 _ZN5Math_4imulEii
0800b0cc g     F .text	0000000e _ZN5codal3_cm3SPI5writeEi
0800a508 g     F .text	00000030 _ZN5codal5TimerC2Ev
08000330 g     F .boot_text	00000020 target_wait_for_event
0800a0b8 g     F .text	0000002c _ZN5codal20fiber_wait_for_eventEtt
08004470 g     F .boot_text	00000038 usb21_setup
0800a440 g     F .text	0000002e _ZN5codal8ListenerC2EttPFvNS_5EventEEt
08008cc0 g     F .text	00000004 _ZN3pxt12releaseFiberEv
0800b0b0 g     F .text	0000000e _ZN5codal3_cm3Pin17setAnalogPeriodUsEi
0800897c g     F .text	00000014 _ZN3pxt6RefMapC1Ev
08003198 g     F .boot_text	0000009c _Z11debug_printj
0800bb30 g     F .text	0000008c .hidden __aeabi_ul2f
08007624 g     F .text	0000007a _ZN3pxt8eqq_boolEPNS_12TValueStructES1_
080024e8 g     F .boot_text	0000001c exp
0800976c  w    F .text	00000004 _ZN5codal11CodalDevice5resetEv
0800ae18 g     F .text	00000004 _ZN5codal3_cm3I2C12setFrequencyEm
08008658 g     F .text	00000002 _ZN3pxt11RefRefLocal7destroyEPS0_
0800bbbc g     F .text	00000168 .hidden __mulsf3
08006c00 g     F .text	0000000e _ZN7String_8includesEPN3pxt11BoxedStringES2_i
0800699c g     F .text	0000006c _ZN7String_6concatEPN3pxt11BoxedStringES2_
08008e6c g     F .text	00000004 _ZN3pxt15current_time_msEv
0800ac24 g     F .text	00000094 _ZN5codal10MessageBusC1Ev
08002fc8 g     F .boot_text	00000014 strcmp
08001fc2 g     F .boot_text	00000000 qfp_int2float
08008778 g     F .text	0000008c _ZN3pxt7Segment9growByMinEt
0800a7f0 g     F .text	00000088 _ZN5codal10MessageBus6removeEPNS_8ListenerE
08006348 g     F .text	00000004 _ZN13BufferMethods6lengthEPN3pxt11BoxedBufferE
080008a8 g     F .boot_text	0000001c exti_enable_request
08002630 g     F .boot_text	0000001c tan
08007550 g     F .text	00000012 _ZN5Math_3sinEPN3pxt12TValueStructE
08000858 g     F .boot_text	00000050 exti_set_trigger
080008d0 g     F .boot_text	00000018 flash_unlock
080005a8  w    F .boot_text	00000002 mem_manage_handler
08008530 g     F .text	0000000a _ZN5loops5pauseEi
0800ae90 g     F .text	0000000e _ZN5codal3_cm3Pin7isInputEv
0800aeb0 g     F .text	0000000c _ZN5codal3_cm3Pin9isDigitalEv
08006a30 g     F .text	0000016c _ZN7String_8mystrtodEPKcPPc
2000000c g     O .boot_data	00000004 rcc_apb2_frequency
08000b14 g     F .boot_text	00000040 rtc_set_alarm_time
0800ada0 g     F .text	00000012 _ZN5codal5EventC1Ev
080064e8 g     F .text	00000008 _ZN7control12createBufferEi
08000e14 g     F .boot_text	00000008 usbd_poll
0800b398 g     F .text	00000006 _ZN5codal3I2C4stopEv
0800047c g     F .boot_text	00000002 _fini
0800a714 g     F .text	0000001c _ZN5codal28system_timer_current_time_usEv
08000350 g     F .boot_text	00000028 target_wait
08008a20 g     F .text	0000000c _ZN3pxt11programHashEv
080005a8  w    F .boot_text	00000002 can2_tx_isr
080026a0 g     F .boot_text	000000a8 atan
0800ae24 g     F .text	0000001c _ZN5codal3_cm3I2CC1ERNS_3PinES3_
08007528 g     F .text	00000012 _ZN5Math_5log10EPN3pxt12TValueStructE
0800a184 g     F .text	000000a0 _ZN5codal6invokeEPFvPvES0_
080072e8 g     F .text	00000022 _ZN6numops4addsEPN3pxt12TValueStructES2_
08003d78 g     F .boot_text	00000040 target_get_force_bootloader
20002a1c g     O .bss	00000404 codalLogStore
080067b0 g     F .text	00000004 _ZN7control10dmesgValueEPN3pxt12TValueStructE
080005a8  w    F .boot_text	00000002 exti9_5_isr
080062c8 g     F .text	00000004 _ZN13BufferMethods8getBytesEPN3pxt11BoxedBufferE
08006e6c g     F .text	0000003c _ZN3pxt9getConfigEii
080033c4 g     F .boot_text	00000010 led_off
08009124  w    F .text	00000006 _ZN5codal3Pin15setServoPulseUsEm
08002748 g     F .boot_text	0000008c asin
080005a8  w    F .boot_text	00000002 dma2_channel3_isr
08001f7e g     F .boot_text	00000000 qfp_float2fix
0800b9a0 g     F .text	0000016c .hidden __aeabi_frsub
080006b4 g     F .boot_text	00000010 rcc_enable_rtc_clock
0800a960 g     F .text	0000007c _Z14async_callbackPv
20000420 g     O .boot_data	00000004 _impure_ptr
080016ac g     F .boot_text	00000040 _usbd_standard_request_endpoint
0800bbbc g     F .text	00000168 .hidden __aeabi_fmul
080095c0  w    F .text	00000002 _ZN5codal14CodalComponent12idleCallbackEv
080084a4 g     F .text	00000012 _ZN3pxt15unregisterGCPtrEPNS_12TValueStructE
08000318 g     F .boot_text	00000010 target_in_isr
0800cc30 g       .preinit_array	00000000 __preinit_array_end
0800083c g     F .boot_text	0000001a nvic_enable_irq
080033d4 g     F .boot_text	00000010 led_wait
080002c4 g     F .boot_text	00000004 target_enable_debug
08007388 g     F .text	00000026 _ZN6numops3divEPN3pxt12TValueStructES2_
080005a8  w    F .boot_text	00000002 dma1_channel7_isr
080033e4 g     F .boot_text	0000011c platform_start_timer
08008d1c g     F .text	0000012c _ZN3pxt11initRuntimeEv
0800a440 g     F .text	0000002e _ZN5codal8ListenerC1EttPFvNS_5EventEEt
08003ff0 g     F .boot_text	00000024 cdc_setup
080005a8  w    F .boot_text	00000002 tim1_up_isr
08007284 g     F .text	00000028 _ZN6numops4andsEPN3pxt12TValueStructES2_
20002800 g       .data	00000000 _data
08006df8 g     F .text	00000006 _ZN5Math_4idivEii
08000b54 g     F .boot_text	00000040 rtc_set_prescale_val
08000968 g     F .boot_text	00000028 flash_get_status_flags
08009474 g     F .text	0000002c _ZN4pins7spiModeEi
08006644 g     F .text	00000120 _ZN3pxt13getNumberCoreEPhiNS_12NumberFormatE
0800b264 g     F .text	0000002a _ZN5codal3_cm5Timer11syncRequestEv
08006d78 g     F .text	0000001c _ZN7String_10charCodeAtEPN3pxt11BoxedStringEi
0800af8c g     F .text	00000038 _ZN5codal3_cm3Pin15getDigitalValueENS_8PullModeE
08002a64 g     F .boot_text	000000ac acosh
080062e4 g     F .text	00000012 _ZN13BufferMethods7setByteEPN3pxt11BoxedBufferEii
20002e50 g     O .bss	00000004 _ZN5codal3_cm5Timer8instanceE
0800ae24 g     F .text	0000001c _ZN5codal3_cm3I2CC2ERNS_3PinES3_
0800075c g     F .boot_text	000000cc rcc_clock_setup_in_hse_8mhz_out_72mhz
0800b23c g     F .text	00000010 _ZN5codal3_cm13tick_callbackEv
08002478 g     F .boot_text	00000038 __wrap___aeabi_d2uiz
0800bee0 g     O .text	00000324 _ZN3pxt20functionsAndBytecodeE
08001fce g     F .boot_text	00000000 qfp_uint2float
08006e20 g     F .text	0000000c _ZN6Array_4pushEPN3pxt13RefCollectionEPNS0_12TValueStructE
08006e54 g     F .text	00000006 _ZN6Array_8insertAtEPN3pxt13RefCollectionEiPNS0_12TValueStructE
08007d80 g     F .text	00000048 _ZN3pxt10gcScanManyEPPNS_12TValueStructEj
0800adf8 g     F .text	00000020 _ZN5codal22MemberFunctionCallbackeqERKS0_
08009018 g     F .text	00000016 _ZN7control10raiseEventEii
08000b94 g     F .boot_text	00000018 rtc_get_counter_val
0800912c  w    F .text	00000006 _ZN5codal3Pin17setAnalogPeriodUsEm
0800b028 g     F .text	0000000e _ZN5codal3_cm3Pin15setAnalogPeriodEi
08008e70 g     F .text	0000000c _ZN3pxt16getThreadContextEv
080005cc g     F .boot_text	00000010 pwr_enable_backup_domain_write_protect
080005a8  w    F .boot_text	00000002 can2_sce_isr
080079e8 g     F .text	0000001e _ZN6numops2geEPN3pxt12TValueStructES2_
080005a8  w    F .boot_text	00000002 tim4_isr
080086fc g     F .text	0000000a _ZN3pxt9RefObject9destroyVTEv
0800cc04 g     O .text	0000002c _ZTVN5codal3I2CE
0800a9dc g     F .text	00000024 _ZN5codal10MessageBus12dequeueEventEv
08007a08 g     F .text	0000001e _ZN6numops2gtEPN3pxt12TValueStructES2_
08001910 g     F .boot_text	000000c4 st_usbfs_ep_stall_set
0800aa00 g     F .text	00000052 _ZN5codal10MessageBus21deleteMarkedListenersEv
08006934 g     F .text	0000000c _ZN7String_7mkEmptyEv
080090a4 g     F .text	0000004c _ZN4pins13i2cReadBufferEiib
080036bc g     F .boot_text	00000094 usb_setup
20001f08 g       .boot_bss	00000000 _boot_ebss
20002808 g       .data	00000000 _edata
0800a224 g     F .text	00000028 _ZN5codal22launch_new_fiber_paramEPFvPvES2_S0_
0800a878 g     F .text	000000e8 _ZN5codal10MessageBus3addEPNS_8ListenerE
080005a8  w    F .boot_text	00000002 dma1_channel2_isr
0800c7f0  w    O .text	00000054 _ZTVN5codal16STM32BluePillPinE
080005a8  w    F .boot_text	00000002 i2c1_er_isr
0800ad88 g     F .text	00000018 _ZN5codal5EventC2EttmNS_15EventLaunchModeE
08009760  w    F .text	00000004 _ZN5codal11CodalDevice15getSerialNumberEv
08001654 g     F .boot_text	00000058 _usbd_standard_request_device
08009b98 g     F .text	00000050 _Z15getFiberContextv
08000328 g     F .boot_text	00000004 target_enable_irq
08008454 g     F .text	00000034 _ZN3pxt10registerGCEPPNS_12TValueStructEi
0800a4f0 g     F .text	0000000a _ZN5codal5Timer17disableInterruptsEv
080005a8  w    F .boot_text	00000002 can_sce_isr
0800b0dc g     F .text	00000004 _ZN5codal3_cm3SPI8transferEPKhmPhm
0800921c g     F .text	00000008 _ZN4pins12createBufferEi
08001e74 g     F .boot_text	00000000 qfp_fdiv
080005ac  w    F .boot_text	00000002 nmi_handler
0800abc0  w    F .text	00000064 _ZN5codal8ListenerC1INS_10MessageBusEEEttPT_MS3_FvNS_5EventEEt
08000c44 g     F .boot_text	00000058 rtc_interrupt_disable
08004fcc g       .boot_preinit_array	00000000 __boot_preinit_array_end
08001e48 g     F .boot_text	00000000 qfp_fcmp
0800338c g     F .boot_text	00000004 _Znwj
20000dac g     O .boot_bss	00000008 st_usbfs_force_nak
08007564 g     F .text	00000012 _ZN5Math_3cosEPN3pxt12TValueStructE
0800c900 g     O .text	0000003c _ZTVN5codal10MessageBusE
080068f4 g     F .text	00000040 _ZN3pxt9getRandomEj
20000000 g       .boot_data	00000000 _boot_data
0800a24c g     F .text	00000018 _ZN5codal9idle_taskEv
08009258 g     F .text	00000020 _ZN22DigitalInOutPinMethods8onPulsedEPN5codal16STM32BluePillPinE10PulseValuePN3pxt12TValueStructE
08002504 g     F .boot_text	00000028 log2
0800bb0c g     F .text	00000024 .hidden __floatunsisf
080067a0 g     F .text	0000000e _ZN7control5__logEiPN3pxt11BoxedStringE
0800ad38 g     F .text	00000008 _ZThn8_N5codal10MessageBusD0Ev
0800723c g     F .text	00000028 _ZN6numops4orrsEPN3pxt12TValueStructES2_
080005a8  w    F .boot_text	00000002 tim8_cc_isr
08008654 g     F .text	00000002 _ZN3pxt9RefAction7destroyEPS0_
08006858 g     F .text	0000005c _ZN3pxt8mkStringEPKci
080078c0 g     F .text	00000014 _ZN6numops10toBoolDecrEPN3pxt12TValueStructE
080094a4 g     F .text	00000010 _ZN3pxt10sendSerialEPKci
08006cc4 g     F .text	000000a4 _ZN7String_8toNumberEPN3pxt11BoxedStringE
0800a770 g     F .text	00000016 _ZN5codal10MessageBus9elementAtEi
08009238  w    F .text	00000006 _ZN19AnalogOutPinMethods11analogWriteEPN5codal16STM32BluePillPinEi
08009740  w    F .text	00000008 _ZN5codal11CodalDevice10getVersionEv
08001ba0 g     F .boot_text	000000e4 st_usbfs_poll
08004bc8 g     O .boot_text	00000018 webusb_platform_capability_descriptor
0800ad1c g     F .text	00000008 _ZThn8_N5codal10MessageBusD1Ev
08006f08 g     F .text	00000004 _ZN5pxtrt5panicEi
08008500 g     F .text	0000000a _ZN3pxt9RefAction6gcsizeEPS0_
0800a05c g     F .text	00000014 _ZN5codal8scheduleEv
08004fcc g       .boot_init_array	00000000 __boot_init_array_start
08008858 g     F .text	0000001c _ZN3pxt7Segment3popEv
08000290 g     F .boot_text	0000001c _Z25stm32bluepill_dmesg_flushv
0800ae60 g     F .text	0000002c _ZN5codal3_cm3Pin13setServoValueEiii
080005a8  w    F .boot_text	00000002 tamper_isr
08007a28 g     F .text	000000fc _ZN6numops8toStringEPN3pxt12TValueStructE
08003d4c g     F .boot_text	0000002c target_usb_init
080046a8 g     O .boot_text	00000101 _ctype_
08009750  w    F .text	00000006 _ZN5codal11CodalDevice10seedRandomEm
0800cc30 g       .init_array	00000000 __init_array_start
080005b4 g     F .boot_text	00000006 gpio_clear
08003750 g     F .boot_text	0000003c aggregate_register_config_callback
08009640 g     F .text	000000d8 _ZN5codal14CodalComponent12addComponentEv
080061ec g     F .text	00000012 _ZN5Math_4tanhEPN3pxt12TValueStructE
0800865c g     F .text	0000005c _ZN3pxt8mkActionEiPNS_9RefActionE
08009354 g     F .text	00000004 _ZN17PwmOnlyPinMethods15analogSetPeriodEPN5codal16STM32BluePillPinEi
080005a8  w    F .boot_text	00000002 eth_wkup_isr
08006c18 g     F .text	000000ac _ZN3pxt10fromDoubleEd
08003374 g     F .boot_text	00000010 enable_debug
08000d34 g     F .boot_text	00000020 st_usbfs_copy_to_pm
08006f54 g     F .text	00000090 _ZN5pxtrt12lookupMapKeyEPN3pxt11BoxedStringE
080083d0 g     F .text	00000084 _ZN3pxt17pushThreadContextEPvS0_
0800ab6c g     F .text	00000042 _ZN5codal10MessageBus4idleENS_5EventE
0800ad6c g     F .text	0000001c _ZN5codal5EventC2EttNS_15EventLaunchModeE
0800634c g     F .text	0000002a _ZN13BufferMethods4fillEPN3pxt11BoxedBufferEiii
0800a75c  w    F .text	00000014 _ZN5codal10EventModel4sendENS_5EventE
0800853c g     F .text	00000002 _ZN3pxt17RefRecord_destroyEPNS_9RefRecordE
08001ce8 g     F .boot_text	00000044 os_task_init
08006f20 g     F .text	00000012 _ZN5pxtrt5mkMapEv
08006780 g     F .text	00000004 _ZN7control6millisEv
0800aaf0 g     F .text	00000062 _ZN5codal10MessageBus10queueEventERNS_5EventE
0800797c g     F .text	00000024 _ZN6numops7lt_boolEPN3pxt12TValueStructES2_
08000d54 g     F .boot_text	00000034 st_usbfs_copy_from_pm
08003db8 g     F .boot_text	00000006 target_get_serial_number
08002fdc g     F .boot_text	00000010 strlen
080003ec g     F .boot_text	00000004 tcb_configure_lr
080032fc g     F .boot_text	00000024 debug_printhex_unsigned
20000534 g       .boot_data	00000000 _boot_edata
20005000 g       .bss	00000000 _stack
080076b0 g     F .text	00000010 _ZN6numops4neqqEPN3pxt12TValueStructES2_
080005b0 g     F .boot_text	00000004 gpio_set
0800b08c g     F .text	0000001e _ZN5codal3_cm3Pin5setupEhh
08006de0 g     F .text	0000000e _ZN5Math_6randomEv
08008c8c g     F .text	00000020 _ZN3pxt12forever_stubEPv
08006228 g     F .text	00000012 _ZN5Math_5atanhEPN3pxt12TValueStructE
0800623c g     F .text	00000012 _ZN5Math_5asinhEPN3pxt12TValueStructE
0800a488 g     F .text	00000068 _ZN5codal8Listener5queueENS_5EventE
08008b94 g     F .text	00000058 _ZN5pxtrt6keysOfEPN3pxt12TValueStructE
0800b850 g     F .text	00000042 .hidden __aeabi_f2d
080005a8  w    F .boot_text	00000002 bus_fault_handler
080005a8  w    F .boot_text	00000002 wwdg_isr
2000282c g     O .bss	00000004 _ZN3pxt7globalsE
08006e00 g     F .text	00000012 _ZN6Array_2mkEv
08007b24 g     F .text	00000024 _ZN3pxt6typeOfEPNS_12TValueStructE
080005a8  w    F .boot_text	00000002 dma1_channel3_isr
0800a4fc g     F .text	0000000a _ZN5codal5Timer16enableInterruptsEv
08006170 g     F .text	00000054 _ZN5Math_12randomDoubleEv
08008cac  w    F .text	00000014 _ZN5codal3_cm5TimerD1Ev
0800954c g     F .text	00000064 _ZN5codal4itoaEiPc
20002834 g     O .bss	00000024 _ZN3pxt13devMessageBusE
08008838 g     F .text	0000001e _ZN3pxt7Segment9setLengthEj
08008e88 g     F .text	000000d4 _ZN3pxt15gcProcessStacksEi
08002200 g     F .boot_text	000000bc acos
080095b0 g     F .text	0000000c _ZN5codal11seed_randomEm
08000bac g     F .boot_text	00000040 rtc_set_counter_val
20000db4 g     O .boot_bss	000000fc st_usbfs_dev
0800a6f4 g     F .text	00000002 _ZN5codal5TimerD1Ev
08006e4c g     F .text	00000006 _ZN6Array_8removeAtEPN3pxt13RefCollectionEi
080061d8 g     F .text	00000012 _ZN5Math_3expEPN3pxt12TValueStructE
08007c20 g     F .text	0000001c _ZN3pxt15missingPropertyEPNS_12TValueStructE
08008c0c g     F .text	00000070 _ZN3pxt13dispatchEventEN5codal5EventE
08003cdc g     F .boot_text	00000070 target_gpio_setup
0800b590 g     F .text	0000027a .hidden __subdf3
08001cb8 g     F .boot_text	00000024 os_msgQ_init
0800cc30 g       .preinit_array	00000000 __preinit_array_start
08002bc8 g     F .boot_text	0000008c trunc
08006788 g     F .text	00000004 _ZN7control5resetEv
08001aec g     F .boot_text	000000b4 st_usbfs_ep_read_packet
0800897c g     F .text	00000014 _ZN3pxt6RefMapC2Ev
080005a8  w    F .boot_text	00000002 spi3_isr
08009048 g     F .text	0000000c _ZN7control5dmesgEPN3pxt11BoxedStringE
08007840 g     F .text	0000001c _ZN6Array_13removeElementEPN3pxt13RefCollectionEPNS0_12TValueStructE
0800896c g     F .text	00000010 _ZN3pxt11RefRefLocalC2Ev
080091f8 g     F .text	00000012 _ZN3pxt9getPinCfgEi
080071b8 g     F .text	00000004 _ZN3pxt5toIntEPNS_12TValueStructE
08000480 g     F .boot_text	00000004 __aeabi_atexit
08004f74 g     O .boot_text	00000055 infoUf2File
080073b0 g     F .text	00000060 _ZN6numops3modEPN3pxt12TValueStructES2_
08003564 g     F .boot_text	00000004 millis
0800b9ac g     F .text	00000160 .hidden __addsf3
0800aecc g     F .text	00000008 _ZN5codal3_cm3Pin9isTouchedEv
080002ac g     F .boot_text	0000000c target_set_tick_callback
080005a8  w    F .boot_text	00000002 tim2_isr
080075a0 g     F .text	00000012 _ZN5Math_4acosEPN3pxt12TValueStructE
080032b0 g     F .boot_text	00000004 debug_print_unsigned
08004cac g     O .boot_text	0000001c microsoft_platform_capability_descriptor
08008178 g     F .text	00000050 free
08008cf0 g     F .text	00000024 _ZN3pxt13runInParallelEPNS_12TValueStructE
08000ae4 g     F .boot_text	00000018 rtc_enter_config_mode
0800175c g     F .boot_text	00000010 st_usbfs_set_address
080005a8  w    F .boot_text	00000002 exti0_isr
080084d0 g     F .text	00000016 _ZN3pxt6RefMap4scanEPS0_
0800b398 g     F .text	00000006 _ZN5codal3I2C5startEv



Disassembly of section .boot_text:

08000000 <vector_table>:
 8000000:	00 50 00 20 51 01 00 08 ad 05 00 08 a9 05 00 08     .P. Q...........
 8000010:	a9 05 00 08 a9 05 00 08 a9 05 00 08 00 00 00 00     ................
	...
 800002c:	ad 05 00 08 ad 05 00 08 00 00 00 00 ad 05 00 08     ................
 800003c:	ad 05 00 08 a9 05 00 08 a9 05 00 08 a9 05 00 08     ................
 800004c:	05 35 00 08 a9 05 00 08 a9 05 00 08 a9 05 00 08     .5..............
 800005c:	a9 05 00 08 a9 05 00 08 a9 05 00 08 a9 05 00 08     ................
 800006c:	a9 05 00 08 a9 05 00 08 a9 05 00 08 a9 05 00 08     ................
 800007c:	a9 05 00 08 a9 05 00 08 a9 05 00 08 a9 05 00 08     ................
 800008c:	a9 05 00 08 a9 05 00 08 a9 05 00 08 a9 05 00 08     ................
 800009c:	a9 05 00 08 a9 05 00 08 a9 05 00 08 a9 05 00 08     ................
 80000ac:	a9 05 00 08 a9 05 00 08 a9 05 00 08 a9 05 00 08     ................
 80000bc:	a9 05 00 08 a9 05 00 08 a9 05 00 08 a9 05 00 08     ................
 80000cc:	a9 05 00 08 a9 05 00 08 a9 05 00 08 a9 05 00 08     ................
 80000dc:	a9 05 00 08 a9 05 00 08 35 35 00 08 a9 05 00 08     ........55......
 80000ec:	a9 05 00 08 a9 05 00 08 a9 05 00 08 a9 05 00 08     ................
 80000fc:	a9 05 00 08 a9 05 00 08 a9 05 00 08 a9 05 00 08     ................
 800010c:	a9 05 00 08 a9 05 00 08 a9 05 00 08 a9 05 00 08     ................
 800011c:	a9 05 00 08 a9 05 00 08 a9 05 00 08 a9 05 00 08     ................
 800012c:	a9 05 00 08 a9 05 00 08 a9 05 00 08 a9 05 00 08     ................
 800013c:	a9 05 00 08 a9 05 00 08 a9 05 00 08 a9 05 00 08     ................
 800014c:	a9 05 00 08                                         ....

08000150 <reset_handler>:
    //  Run the unit tests if any.
	//  TODO: Don't run unit test in bootloader, because we will run out of space in bootrom.
    //  run_unit_test();	
}

void reset_handler(void) {
 8000150:	b570      	push	{r4, r5, r6, lr}
	//  The wrapping is done by the linker option "-Wl,-wrap,reset_handler".  The vector table points to the wrapped function.
	volatile unsigned *src, *dest, *boot_dest;
	funcp_t *fp;

	//  Copy data section from ROM to RAM.  Handle bootloader and firmware.
	for (src = &_boot_data_loadaddr, boot_dest = &_boot_data;
 8000152:	4a30      	ldr	r2, [pc, #192]	; (8000214 <reset_handler+0xc4>)
 8000154:	4d30      	ldr	r5, [pc, #192]	; (8000218 <reset_handler+0xc8>)
 8000156:	42aa      	cmp	r2, r5
 8000158:	d20f      	bcs.n	800017a <reset_handler+0x2a>
 800015a:	4611      	mov	r1, r2
 800015c:	3d01      	subs	r5, #1
 800015e:	1aad      	subs	r5, r5, r2
 8000160:	4c2e      	ldr	r4, [pc, #184]	; (800021c <reset_handler+0xcc>)
 8000162:	f025 0503 	bic.w	r5, r5, #3
 8000166:	3504      	adds	r5, #4
 8000168:	4623      	mov	r3, r4
 800016a:	442c      	add	r4, r5
		boot_dest < &_boot_edata;  //  Bootloader
		src++, boot_dest++) {
		*boot_dest = *src;
 800016c:	f853 0b04 	ldr.w	r0, [r3], #4
	//  The wrapping is done by the linker option "-Wl,-wrap,reset_handler".  The vector table points to the wrapped function.
	volatile unsigned *src, *dest, *boot_dest;
	funcp_t *fp;

	//  Copy data section from ROM to RAM.  Handle bootloader and firmware.
	for (src = &_boot_data_loadaddr, boot_dest = &_boot_data;
 8000170:	42a3      	cmp	r3, r4
		boot_dest < &_boot_edata;  //  Bootloader
		src++, boot_dest++) {
		*boot_dest = *src;
 8000172:	f841 0b04 	str.w	r0, [r1], #4
	//  The wrapping is done by the linker option "-Wl,-wrap,reset_handler".  The vector table points to the wrapped function.
	volatile unsigned *src, *dest, *boot_dest;
	funcp_t *fp;

	//  Copy data section from ROM to RAM.  Handle bootloader and firmware.
	for (src = &_boot_data_loadaddr, boot_dest = &_boot_data;
 8000176:	d1f9      	bne.n	800016c <reset_handler+0x1c>
 8000178:	442a      	add	r2, r5
		boot_dest < &_boot_edata;  //  Bootloader
		src++, boot_dest++) {
		*boot_dest = *src;
	}
	for (src = &_data_loadaddr, dest = &_data;
 800017a:	4b29      	ldr	r3, [pc, #164]	; (8000220 <reset_handler+0xd0>)
 800017c:	4e29      	ldr	r6, [pc, #164]	; (8000224 <reset_handler+0xd4>)
 800017e:	42b3      	cmp	r3, r6
 8000180:	d20f      	bcs.n	80001a2 <reset_handler+0x52>
 8000182:	4618      	mov	r0, r3
 8000184:	3e01      	subs	r6, #1
 8000186:	1af6      	subs	r6, r6, r3
 8000188:	4d27      	ldr	r5, [pc, #156]	; (8000228 <reset_handler+0xd8>)
 800018a:	f026 0603 	bic.w	r6, r6, #3
 800018e:	3604      	adds	r6, #4
 8000190:	4629      	mov	r1, r5
 8000192:	4435      	add	r5, r6
		dest < &_edata;  //  Firmware
		src++, dest++) {
		*dest = *src;
 8000194:	f851 4b04 	ldr.w	r4, [r1], #4
	for (src = &_boot_data_loadaddr, boot_dest = &_boot_data;
		boot_dest < &_boot_edata;  //  Bootloader
		src++, boot_dest++) {
		*boot_dest = *src;
	}
	for (src = &_data_loadaddr, dest = &_data;
 8000198:	42a9      	cmp	r1, r5
		dest < &_edata;  //  Firmware
		src++, dest++) {
		*dest = *src;
 800019a:	f840 4b04 	str.w	r4, [r0], #4
	for (src = &_boot_data_loadaddr, boot_dest = &_boot_data;
		boot_dest < &_boot_edata;  //  Bootloader
		src++, boot_dest++) {
		*boot_dest = *src;
	}
	for (src = &_data_loadaddr, dest = &_data;
 800019e:	d1f9      	bne.n	8000194 <reset_handler+0x44>
 80001a0:	4433      	add	r3, r6
		src++, dest++) {
		*dest = *src;
	}

	//  Init variables in BSS section to null.  Handle bootloader and firmware.
	while (boot_dest < &_boot_ebss) { *boot_dest++ = 0; }
 80001a2:	4922      	ldr	r1, [pc, #136]	; (800022c <reset_handler+0xdc>)
 80001a4:	428a      	cmp	r2, r1
 80001a6:	d20a      	bcs.n	80001be <reset_handler+0x6e>
 80001a8:	2000      	movs	r0, #0
 80001aa:	3901      	subs	r1, #1
 80001ac:	1a89      	subs	r1, r1, r2
 80001ae:	f021 0103 	bic.w	r1, r1, #3
 80001b2:	3104      	adds	r1, #4
 80001b4:	4411      	add	r1, r2
 80001b6:	f842 0b04 	str.w	r0, [r2], #4
 80001ba:	428a      	cmp	r2, r1
 80001bc:	d1fb      	bne.n	80001b6 <reset_handler+0x66>
	while (dest < &_ebss) { *dest++ = 0; }
 80001be:	4a1c      	ldr	r2, [pc, #112]	; (8000230 <reset_handler+0xe0>)
 80001c0:	4293      	cmp	r3, r2
 80001c2:	d20a      	bcs.n	80001da <reset_handler+0x8a>
 80001c4:	2100      	movs	r1, #0
 80001c6:	3a01      	subs	r2, #1
 80001c8:	1ad2      	subs	r2, r2, r3
 80001ca:	f022 0203 	bic.w	r2, r2, #3
 80001ce:	3204      	adds	r2, #4
 80001d0:	441a      	add	r2, r3
 80001d2:	f843 1b04 	str.w	r1, [r3], #4
 80001d6:	4293      	cmp	r3, r2
 80001d8:	d1fb      	bne.n	80001d2 <reset_handler+0x82>

	/* Ensure 8-byte alignment of stack pointer on interrupts */
	/* Enabled by default on most Cortex-M parts, but not M3 r1 */
	SCB_CCR |= SCB_CCR_STKALIGN;
 80001da:	4a16      	ldr	r2, [pc, #88]	; (8000234 <reset_handler+0xe4>)

	/* Call the application's entry point. */
	main();

	//  Call C++ destructors.  Not used because we never return from main().
	for (fp = &__fini_array_start; fp < &__fini_array_end; fp++) {
 80001dc:	4d16      	ldr	r5, [pc, #88]	; (8000238 <reset_handler+0xe8>)
	while (boot_dest < &_boot_ebss) { *boot_dest++ = 0; }
	while (dest < &_ebss) { *dest++ = 0; }

	/* Ensure 8-byte alignment of stack pointer on interrupts */
	/* Enabled by default on most Cortex-M parts, but not M3 r1 */
	SCB_CCR |= SCB_CCR_STKALIGN;
 80001de:	6813      	ldr	r3, [r2, #0]
 80001e0:	f443 7300 	orr.w	r3, r3, #512	; 0x200
 80001e4:	6013      	str	r3, [r2, #0]
int run_unit_test(void);

void pre_main() {
	//  Init the STM32 platform and start the timer.
    //  Note: Must disable debug when testing Deep Sleep.  Else device will not run without ST Link.
    target_enable_debug();       //  Uncomment to allow display of debug messages in development devices. NOTE: This will hang if no Arm Semihosting debugger is attached.
 80001e6:	f000 f86d 	bl	80002c4 <target_enable_debug>
    //  target_disable_debug();  //  Uncomment to disable display of debug messages.  For use in production devices.
    target_init();               //  Init the STM32 platform, which calls the bootloader.  If the bootloader decides to launch the firmware, this function will not return.
 80001ea:	f000 f86d 	bl	80002c8 <target_init>
		(*fp)();
	}
	*/

	/* Call the application's entry point. */
	main();
 80001ee:	f009 f97f 	bl	80094f0 <main>

	//  Call C++ destructors.  Not used because we never return from main().
	for (fp = &__fini_array_start; fp < &__fini_array_end; fp++) {
 80001f2:	4b12      	ldr	r3, [pc, #72]	; (800023c <reset_handler+0xec>)
 80001f4:	429d      	cmp	r5, r3
 80001f6:	d20b      	bcs.n	8000210 <reset_handler+0xc0>
 80001f8:	3b01      	subs	r3, #1
 80001fa:	1b5b      	subs	r3, r3, r5
 80001fc:	f023 0303 	bic.w	r3, r3, #3
 8000200:	3304      	adds	r3, #4
 8000202:	462c      	mov	r4, r5
 8000204:	441d      	add	r5, r3
		(*fp)();
 8000206:	f854 3b04 	ldr.w	r3, [r4], #4
 800020a:	4798      	blx	r3

	/* Call the application's entry point. */
	main();

	//  Call C++ destructors.  Not used because we never return from main().
	for (fp = &__fini_array_start; fp < &__fini_array_end; fp++) {
 800020c:	42ac      	cmp	r4, r5
 800020e:	d1fa      	bne.n	8000206 <reset_handler+0xb6>
		(*fp)();
	}

}
 8000210:	bd70      	pop	{r4, r5, r6, pc}
 8000212:	bf00      	nop
 8000214:	20000000 	.word	0x20000000
 8000218:	20000534 	.word	0x20000534
 800021c:	08004fcc 	.word	0x08004fcc
 8000220:	20002800 	.word	0x20002800
 8000224:	20002808 	.word	0x20002808
 8000228:	0800cc38 	.word	0x0800cc38
 800022c:	20001f08 	.word	0x20001f08
 8000230:	20002e5c 	.word	0x20002e5c
 8000234:	e000ed14 	.word	0xe000ed14
 8000238:	0800cc38 	.word	0x0800cc38
 800023c:	0800cc38 	.word	0x0800cc38

08000240 <_ZL10timer_tickv>:
int target_seed_random(uint32_t rand) {
    return codal::seed_random(rand);
}

int target_random(int max) {
    return codal::random(max);
 8000240:	4b02      	ldr	r3, [pc, #8]	; (800024c <_ZL10timer_tickv+0xc>)
 8000242:	681b      	ldr	r3, [r3, #0]
 8000244:	b103      	cbz	r3, 8000248 <_ZL10timer_tickv+0x8>
 8000246:	4718      	bx	r3
 8000248:	4770      	bx	lr
 800024a:	bf00      	nop
 800024c:	20000534 	.word	0x20000534

08000250 <_ZL11timer_alarmv>:
 8000250:	4b02      	ldr	r3, [pc, #8]	; (800025c <_ZL11timer_alarmv+0xc>)
 8000252:	681b      	ldr	r3, [r3, #0]
 8000254:	b103      	cbz	r3, 8000258 <_ZL11timer_alarmv+0x8>
 8000256:	4718      	bx	r3
 8000258:	4770      	bx	lr
 800025a:	bf00      	nop
 800025c:	20000538 	.word	0x20000538

08000260 <_Z25stm32bluepill_dmesg_flushv.part.0>:
 8000260:	b538      	push	{r3, r4, r5, lr}
 8000262:	4d0a      	ldr	r5, [pc, #40]	; (800028c <_Z25stm32bluepill_dmesg_flushv.part.0+0x2c>)
 8000264:	682b      	ldr	r3, [r5, #0]
 8000266:	b153      	cbz	r3, 800027e <_Z25stm32bluepill_dmesg_flushv.part.0+0x1e>
 8000268:	1cec      	adds	r4, r5, #3
 800026a:	7860      	ldrb	r0, [r4, #1]
 800026c:	f002 ffe2 	bl	8003234 <_Z11debug_printi>
 8000270:	1ea3      	subs	r3, r4, #2
 8000272:	682a      	ldr	r2, [r5, #0]
 8000274:	1b5b      	subs	r3, r3, r5
 8000276:	429a      	cmp	r2, r3
 8000278:	f104 0401 	add.w	r4, r4, #1
 800027c:	d8f5      	bhi.n	800026a <_Z25stm32bluepill_dmesg_flushv.part.0+0xa>
 800027e:	2300      	movs	r3, #0
 8000280:	602b      	str	r3, [r5, #0]
 8000282:	e8bd 4038 	ldmia.w	sp!, {r3, r4, r5, lr}
 8000286:	f002 bf7f 	b.w	8003188 <debug_flush>
 800028a:	bf00      	nop
 800028c:	20002a1c 	.word	0x20002a1c

08000290 <_Z25stm32bluepill_dmesg_flushv>:
 8000290:	4b04      	ldr	r3, [pc, #16]	; (80002a4 <_Z25stm32bluepill_dmesg_flushv+0x14>)
 8000292:	681b      	ldr	r3, [r3, #0]
 8000294:	b123      	cbz	r3, 80002a0 <_Z25stm32bluepill_dmesg_flushv+0x10>
 8000296:	4b04      	ldr	r3, [pc, #16]	; (80002a8 <_Z25stm32bluepill_dmesg_flushv+0x18>)
 8000298:	781b      	ldrb	r3, [r3, #0]
 800029a:	b10b      	cbz	r3, 80002a0 <_Z25stm32bluepill_dmesg_flushv+0x10>
 800029c:	f7ff bfe0 	b.w	8000260 <_Z25stm32bluepill_dmesg_flushv.part.0>
 80002a0:	4770      	bx	lr
 80002a2:	bf00      	nop
 80002a4:	20002a1c 	.word	0x20002a1c
 80002a8:	20000540 	.word	0x20000540

080002ac <target_set_tick_callback>:
 80002ac:	4b01      	ldr	r3, [pc, #4]	; (80002b4 <target_set_tick_callback+0x8>)
 80002ae:	6018      	str	r0, [r3, #0]
 80002b0:	4770      	bx	lr
 80002b2:	bf00      	nop
 80002b4:	20000534 	.word	0x20000534

080002b8 <target_set_alarm_callback>:
 80002b8:	4b01      	ldr	r3, [pc, #4]	; (80002c0 <target_set_alarm_callback+0x8>)
 80002ba:	6018      	str	r0, [r3, #0]
 80002bc:	4770      	bx	lr
 80002be:	bf00      	nop
 80002c0:	20000538 	.word	0x20000538

080002c4 <target_enable_debug>:
 80002c4:	f003 b856 	b.w	8003374 <enable_debug>

080002c8 <target_init>:
 80002c8:	b508      	push	{r3, lr}
 80002ca:	4b0a      	ldr	r3, [pc, #40]	; (80002f4 <target_init+0x2c>)
 80002cc:	781a      	ldrb	r2, [r3, #0]
 80002ce:	b102      	cbz	r2, 80002d2 <target_init+0xa>
 80002d0:	bd08      	pop	{r3, pc}
 80002d2:	2201      	movs	r2, #1
 80002d4:	701a      	strb	r2, [r3, #0]
 80002d6:	f003 f947 	bl	8003568 <bootloader_start>
 80002da:	f003 f821 	bl	8003320 <platform_setup>
 80002de:	f001 fcd1 	bl	8001c84 <os_init>
 80002e2:	4805      	ldr	r0, [pc, #20]	; (80002f8 <target_init+0x30>)
 80002e4:	4905      	ldr	r1, [pc, #20]	; (80002fc <target_init+0x34>)
 80002e6:	f003 f87d 	bl	80033e4 <platform_start_timer>
 80002ea:	4805      	ldr	r0, [pc, #20]	; (8000300 <target_init+0x38>)
 80002ec:	e8bd 4008 	ldmia.w	sp!, {r3, lr}
 80002f0:	f009 babc 	b.w	800986c <codal_dmesg_set_flush_fn>
 80002f4:	20000540 	.word	0x20000540
 80002f8:	08000241 	.word	0x08000241
 80002fc:	08000251 	.word	0x08000251
 8000300:	08000291 	.word	0x08000291

08000304 <target_reset>:
 8000304:	b508      	push	{r3, lr}
 8000306:	4803      	ldr	r0, [pc, #12]	; (8000314 <target_reset+0x10>)
 8000308:	f002 ffb2 	bl	8003270 <debug_println>
 800030c:	e8bd 4008 	ldmia.w	sp!, {r3, lr}
 8000310:	f002 bf3a 	b.w	8003188 <debug_flush>
 8000314:	080045ec 	.word	0x080045ec

08000318 <target_in_isr>:
 8000318:	4b02      	ldr	r3, [pc, #8]	; (8000324 <target_in_isr+0xc>)
 800031a:	6818      	ldr	r0, [r3, #0]
 800031c:	f3c0 0008 	ubfx	r0, r0, #0, #9
 8000320:	4770      	bx	lr
 8000322:	bf00      	nop
 8000324:	e000ed04 	.word	0xe000ed04

08000328 <target_enable_irq>:
 8000328:	b662      	cpsie	i
 800032a:	4770      	bx	lr

0800032c <target_disable_irq>:
 800032c:	b672      	cpsid	i
 800032e:	4770      	bx	lr

08000330 <target_wait_for_event>:
 8000330:	b508      	push	{r3, lr}
 8000332:	4b05      	ldr	r3, [pc, #20]	; (8000348 <target_wait_for_event+0x18>)
 8000334:	681b      	ldr	r3, [r3, #0]
 8000336:	b123      	cbz	r3, 8000342 <target_wait_for_event+0x12>
 8000338:	4b04      	ldr	r3, [pc, #16]	; (800034c <target_wait_for_event+0x1c>)
 800033a:	781b      	ldrb	r3, [r3, #0]
 800033c:	b10b      	cbz	r3, 8000342 <target_wait_for_event+0x12>
 800033e:	f7ff ff8f 	bl	8000260 <_Z25stm32bluepill_dmesg_flushv.part.0>
 8000342:	bf20      	wfe
 8000344:	bd08      	pop	{r3, pc}
 8000346:	bf00      	nop
 8000348:	20002a1c 	.word	0x20002a1c
 800034c:	20000540 	.word	0x20000540

08000350 <target_wait>:
 8000350:	b510      	push	{r4, lr}
 8000352:	4604      	mov	r4, r0
 8000354:	4807      	ldr	r0, [pc, #28]	; (8000374 <target_wait+0x24>)
 8000356:	f002 ff8b 	bl	8003270 <debug_println>
 800035a:	b904      	cbnz	r4, 800035e <target_wait+0xe>
 800035c:	bd10      	pop	{r4, pc}
 800035e:	f003 f901 	bl	8003564 <millis>
 8000362:	4404      	add	r4, r0
 8000364:	e000      	b.n	8000368 <target_wait+0x18>
 8000366:	bf20      	wfe
 8000368:	f003 f8fc 	bl	8003564 <millis>
 800036c:	42a0      	cmp	r0, r4
 800036e:	d3fa      	bcc.n	8000366 <target_wait+0x16>
 8000370:	bd10      	pop	{r4, pc}
 8000372:	bf00      	nop
 8000374:	08004600 	.word	0x08004600

08000378 <target_wait_us>:
 8000378:	b510      	push	{r4, lr}
 800037a:	4604      	mov	r4, r0
 800037c:	4809      	ldr	r0, [pc, #36]	; (80003a4 <target_wait_us+0x2c>)
 800037e:	f002 ff77 	bl	8003270 <debug_println>
 8000382:	b904      	cbnz	r4, 8000386 <target_wait_us+0xe>
 8000384:	bd10      	pop	{r4, pc}
 8000386:	f003 f8ed 	bl	8003564 <millis>
 800038a:	4b07      	ldr	r3, [pc, #28]	; (80003a8 <target_wait_us+0x30>)
 800038c:	fba3 3404 	umull	r3, r4, r3, r4
 8000390:	eb00 1494 	add.w	r4, r0, r4, lsr #6
 8000394:	e000      	b.n	8000398 <target_wait_us+0x20>
 8000396:	bf20      	wfe
 8000398:	f003 f8e4 	bl	8003564 <millis>
 800039c:	42a0      	cmp	r0, r4
 800039e:	d3fa      	bcc.n	8000396 <target_wait_us+0x1e>
 80003a0:	bd10      	pop	{r4, pc}
 80003a2:	bf00      	nop
 80003a4:	08004610 	.word	0x08004610
 80003a8:	10624dd3 	.word	0x10624dd3

080003ac <target_seed_random>:
        __asm("wfe");  //  Allow CPU to go to sleep.
    }
}

int target_seed_random(uint32_t rand) {
    return codal::seed_random(rand);
 80003ac:	f009 b900 	b.w	80095b0 <_ZN5codal11seed_randomEm>

080003b0 <target_get_serial>:
    The 96-bit unique device identifier can also be read in single bytes/half-words/words in different ways and then be concatenated using a custom algorithm.
*/
#define STM32_UUID ((uint32_t *)0x1FFF7A10)
uint32_t target_get_serial() {
    // uuid[1] is the wafer number plus the lot number, need to check the uniqueness of this...
    return (uint32_t)STM32_UUID[1];
 80003b0:	4b01      	ldr	r3, [pc, #4]	; (80003b8 <target_get_serial+0x8>)
}
 80003b2:	6818      	ldr	r0, [r3, #0]
 80003b4:	4770      	bx	lr
 80003b6:	bf00      	nop
 80003b8:	1fff7a14 	.word	0x1fff7a14

080003bc <target_panic>:
extern "C" void assert_failed(uint8_t* file, uint32_t line) {
    target_panic(920);
}

__attribute__((weak))
void target_panic(int statusCode) {
 80003bc:	b510      	push	{r4, lr}
 80003be:	4604      	mov	r4, r0
 *
 * Mask all interrupts globally
 */
static inline void cm_disable_interrupts(void)
{
	__asm__ volatile ("CPSID I\n");
 80003c0:	b672      	cpsid	i
	//  TODO
    target_disable_irq();
	debug_print("*****target_panic ");
 80003c2:	4805      	ldr	r0, [pc, #20]	; (80003d8 <target_panic+0x1c>)
 80003c4:	f002 ff4e 	bl	8003264 <debug_print>
	debug_println((int) statusCode);
 80003c8:	4620      	mov	r0, r4
 80003ca:	f002 ff65 	bl	8003298 <_Z13debug_printlni>
	debug_flush();
 80003ce:	f002 fedb 	bl	8003188 <debug_flush>
    ////DMESG("*** CODAL PANIC : [%d]", statusCode);
	for (;;) {
        __asm("wfe");  //  Allow CPU to go to sleep.
 80003d2:	bf20      	wfe
 80003d4:	e7fd      	b.n	80003d2 <target_panic+0x16>
 80003d6:	bf00      	nop
 80003d8:	080045d8 	.word	0x080045d8

080003dc <fiber_initial_stack_base>:
    uint32_t stack_base;
};

PROCESSOR_WORD_TYPE fiber_initial_stack_base() {
    return (PROCESSOR_WORD_TYPE) DEVICE_STACK_BASE;
}
 80003dc:	4800      	ldr	r0, [pc, #0]	; (80003e0 <fiber_initial_stack_base+0x4>)
 80003de:	4770      	bx	lr
 80003e0:	20005000 	.word	0x20005000

080003e4 <tcb_allocate>:

void *tcb_allocate() {
    return (void *)malloc(sizeof(PROCESSOR_TCB));
 80003e4:	2040      	movs	r0, #64	; 0x40
 80003e6:	f007 bfa5 	b.w	8008334 <malloc>
 80003ea:	bf00      	nop

080003ec <tcb_configure_lr>:
 * @param tcb The tcb to modify
 * @param function the function the link register should point to.
 */
void tcb_configure_lr(void *tcb, PROCESSOR_WORD_TYPE function) {
    PROCESSOR_TCB *tcbPointer = (PROCESSOR_TCB *)tcb;
    tcbPointer->LR = function;
 80003ec:	6381      	str	r1, [r0, #56]	; 0x38
}
 80003ee:	4770      	bx	lr

080003f0 <tcb_configure_sp>:
 * @param tcb The tcb to modify
 * @param function the function the link register should point to.
 */
void tcb_configure_sp(void *tcb, PROCESSOR_WORD_TYPE sp) {
    PROCESSOR_TCB *tcbPointer = (PROCESSOR_TCB *)tcb;
    tcbPointer->SP = sp;
 80003f0:	6341      	str	r1, [r0, #52]	; 0x34
}
 80003f2:	4770      	bx	lr

080003f4 <tcb_configure_stack_base>:

void tcb_configure_stack_base(void *tcb, PROCESSOR_WORD_TYPE stack_base) {
    PROCESSOR_TCB *tcbPointer = (PROCESSOR_TCB *)tcb;
    tcbPointer->stack_base = stack_base;
 80003f4:	63c1      	str	r1, [r0, #60]	; 0x3c
}
 80003f6:	4770      	bx	lr

080003f8 <tcb_get_stack_base>:

PROCESSOR_WORD_TYPE tcb_get_stack_base(void *tcb) {
    PROCESSOR_TCB *tcbPointer = (PROCESSOR_TCB *)tcb;
    return tcbPointer->stack_base;
}
 80003f8:	6bc0      	ldr	r0, [r0, #60]	; 0x3c
 80003fa:	4770      	bx	lr

080003fc <get_current_sp>:
register unsigned int _sp __asm("sp");

PROCESSOR_WORD_TYPE get_current_sp() {
    return _sp;
    //  Formerly: return __get_MSP();
}
 80003fc:	4668      	mov	r0, sp
 80003fe:	4770      	bx	lr

08000400 <tcb_get_sp>:

PROCESSOR_WORD_TYPE tcb_get_sp(void *tcb) {
    PROCESSOR_TCB *tcbPointer = (PROCESSOR_TCB *)tcb;
    return tcbPointer->SP;
}
 8000400:	6b40      	ldr	r0, [r0, #52]	; 0x34
 8000402:	4770      	bx	lr

08000404 <tcb_configure_args>:

void tcb_configure_args(void *tcb, PROCESSOR_WORD_TYPE ep, PROCESSOR_WORD_TYPE cp,
                        PROCESSOR_WORD_TYPE pm) {
    PROCESSOR_TCB *tcbPointer = (PROCESSOR_TCB *)tcb;
    tcbPointer->R0 = (uint32_t)ep;
    tcbPointer->R1 = (uint32_t)cp;
 8000404:	e9c0 1200 	strd	r1, r2, [r0]
    tcbPointer->R2 = (uint32_t)pm;
 8000408:	6083      	str	r3, [r0, #8]
}
 800040a:	4770      	bx	lr

0800040c <test_codal>:

void test_codal() {
 800040c:	b538      	push	{r3, r4, r5, lr}
	PROCESSOR_WORD_TYPE start = (PROCESSOR_WORD_TYPE)(codal_heap_start); 
 800040e:	4b14      	ldr	r3, [pc, #80]	; (8000460 <test_codal+0x54>)
	PROCESSOR_WORD_TYPE end = (PROCESSOR_WORD_TYPE)(DEVICE_STACK_BASE) - (PROCESSOR_WORD_TYPE)(DEVICE_STACK_SIZE);
	PROCESSOR_WORD_TYPE size = end - start;
	debug_print("heap start: "); debug_printhex_unsigned((size_t) start);
 8000410:	4814      	ldr	r0, [pc, #80]	; (8000464 <test_codal+0x58>)
    tcbPointer->R1 = (uint32_t)cp;
    tcbPointer->R2 = (uint32_t)pm;
}

void test_codal() {
	PROCESSOR_WORD_TYPE start = (PROCESSOR_WORD_TYPE)(codal_heap_start); 
 8000412:	681d      	ldr	r5, [r3, #0]
	PROCESSOR_WORD_TYPE end = (PROCESSOR_WORD_TYPE)(DEVICE_STACK_BASE) - (PROCESSOR_WORD_TYPE)(DEVICE_STACK_SIZE);
	PROCESSOR_WORD_TYPE size = end - start;
	debug_print("heap start: "); debug_printhex_unsigned((size_t) start);
	debug_print(", end: ");      debug_printhex_unsigned((size_t) end);
 8000414:	4c14      	ldr	r4, [pc, #80]	; (8000468 <test_codal+0x5c>)

void test_codal() {
	PROCESSOR_WORD_TYPE start = (PROCESSOR_WORD_TYPE)(codal_heap_start); 
	PROCESSOR_WORD_TYPE end = (PROCESSOR_WORD_TYPE)(DEVICE_STACK_BASE) - (PROCESSOR_WORD_TYPE)(DEVICE_STACK_SIZE);
	PROCESSOR_WORD_TYPE size = end - start;
	debug_print("heap start: "); debug_printhex_unsigned((size_t) start);
 8000416:	f002 ff25 	bl	8003264 <debug_print>
 800041a:	4628      	mov	r0, r5
 800041c:	f002 ff6e 	bl	80032fc <debug_printhex_unsigned>
	debug_print(", end: ");      debug_printhex_unsigned((size_t) end);
 8000420:	4812      	ldr	r0, [pc, #72]	; (800046c <test_codal+0x60>)
 8000422:	f002 ff1f 	bl	8003264 <debug_print>
 8000426:	4620      	mov	r0, r4
 8000428:	f002 ff68 	bl	80032fc <debug_printhex_unsigned>
	debug_print(", size: ");     debug_print((size_t) (size >> 10));
 800042c:	4810      	ldr	r0, [pc, #64]	; (8000470 <test_codal+0x64>)
 800042e:	f002 ff19 	bl	8003264 <debug_print>
}

void test_codal() {
	PROCESSOR_WORD_TYPE start = (PROCESSOR_WORD_TYPE)(codal_heap_start); 
	PROCESSOR_WORD_TYPE end = (PROCESSOR_WORD_TYPE)(DEVICE_STACK_BASE) - (PROCESSOR_WORD_TYPE)(DEVICE_STACK_SIZE);
	PROCESSOR_WORD_TYPE size = end - start;
 8000432:	1b60      	subs	r0, r4, r5
	debug_print("heap start: "); debug_printhex_unsigned((size_t) start);
	debug_print(", end: ");      debug_printhex_unsigned((size_t) end);
	debug_print(", size: ");     debug_print((size_t) (size >> 10));
 8000434:	0a80      	lsrs	r0, r0, #10
 8000436:	f002 feaf 	bl	8003198 <_Z11debug_printj>
	debug_print(" KB, stack used: "); debug_print((size_t) 
 800043a:	480e      	ldr	r0, [pc, #56]	; (8000474 <test_codal+0x68>)
 800043c:	f002 ff12 	bl	8003264 <debug_print>
        ((PROCESSOR_WORD_TYPE)(DEVICE_STACK_BASE) - get_current_sp()) >> 10);
 8000440:	466b      	mov	r3, sp
 8000442:	f1c3 5000 	rsb	r0, r3, #536870912	; 0x20000000
 8000446:	f500 40a0 	add.w	r0, r0, #20480	; 0x5000
	PROCESSOR_WORD_TYPE end = (PROCESSOR_WORD_TYPE)(DEVICE_STACK_BASE) - (PROCESSOR_WORD_TYPE)(DEVICE_STACK_SIZE);
	PROCESSOR_WORD_TYPE size = end - start;
	debug_print("heap start: "); debug_printhex_unsigned((size_t) start);
	debug_print(", end: ");      debug_printhex_unsigned((size_t) end);
	debug_print(", size: ");     debug_print((size_t) (size >> 10));
	debug_print(" KB, stack used: "); debug_print((size_t) 
 800044a:	0a80      	lsrs	r0, r0, #10
 800044c:	f002 fea4 	bl	8003198 <_Z11debug_printj>
        ((PROCESSOR_WORD_TYPE)(DEVICE_STACK_BASE) - get_current_sp()) >> 10);
    debug_println(" KB"); debug_flush();
 8000450:	4809      	ldr	r0, [pc, #36]	; (8000478 <test_codal+0x6c>)
 8000452:	f002 ff0d 	bl	8003270 <debug_println>
}
 8000456:	e8bd 4038 	ldmia.w	sp!, {r3, r4, r5, lr}
	debug_print("heap start: "); debug_printhex_unsigned((size_t) start);
	debug_print(", end: ");      debug_printhex_unsigned((size_t) end);
	debug_print(", size: ");     debug_print((size_t) (size >> 10));
	debug_print(" KB, stack used: "); debug_print((size_t) 
        ((PROCESSOR_WORD_TYPE)(DEVICE_STACK_BASE) - get_current_sp()) >> 10);
    debug_println(" KB"); debug_flush();
 800045a:	f002 be95 	b.w	8003188 <debug_flush>
 800045e:	bf00      	nop
 8000460:	20000000 	.word	0x20000000
 8000464:	08004624 	.word	0x08004624
 8000468:	20004800 	.word	0x20004800
 800046c:	08004634 	.word	0x08004634
 8000470:	0800463c 	.word	0x0800463c
 8000474:	08004648 	.word	0x08004648
 8000478:	0800465c 	.word	0x0800465c

0800047c <_fini>:
}

//  Handle exit.  From https://arobenko.gitbooks.io/bare_metal_cpp/content/compiler_output/static.html.
extern "C" {
    void* __dso_handle = nullptr;
    void _fini(void) { }
 800047c:	4770      	bx	lr
 800047e:	bf00      	nop

08000480 <__aeabi_atexit>:
    { 
        static_cast<void>(object); 
        static_cast<void>(destructor); 
        static_cast<void>(dso_handle); 
        return 0; 
    }
 8000480:	2000      	movs	r0, #0
 8000482:	4770      	bx	lr

08000484 <swap_context>:

    @ Write our core registers into the TCB
    @ First, store the general registers

    @ Skip this is we're given a NULL parameter for the TCB
    CMP     R0, #0
 8000484:	2800      	cmp	r0, #0
    BEQ     store_context_complete
 8000486:	d015      	beq.n	80004b4 <store_context_complete>

    STR     R0, [R0,#0]
 8000488:	6000      	str	r0, [r0, #0]
    STR     R1, [R0,#4]
 800048a:	6041      	str	r1, [r0, #4]
    STR     R2, [R0,#8]
 800048c:	6082      	str	r2, [r0, #8]
    STR     R3, [R0,#12]
 800048e:	60c3      	str	r3, [r0, #12]
    STR     R4, [R0,#16]
 8000490:	6104      	str	r4, [r0, #16]
    STR     R5, [R0,#20]
 8000492:	6145      	str	r5, [r0, #20]
    STR     R6, [R0,#24]
 8000494:	6186      	str	r6, [r0, #24]
    STR     R7, [R0,#28]
 8000496:	61c7      	str	r7, [r0, #28]

    @ Now the high general purpose registers
    MOV     R4, R8
 8000498:	4644      	mov	r4, r8
    STR     R4, [R0,#32]
 800049a:	6204      	str	r4, [r0, #32]
    MOV     R4, R9
 800049c:	464c      	mov	r4, r9
    STR     R4, [R0,#36]
 800049e:	6244      	str	r4, [r0, #36]	; 0x24
    MOV     R4, R10
 80004a0:	4654      	mov	r4, sl
    STR     R4, [R0,#40]
 80004a2:	6284      	str	r4, [r0, #40]	; 0x28
    MOV     R4, R11
 80004a4:	465c      	mov	r4, fp
    STR     R4, [R0,#44]
 80004a6:	62c4      	str	r4, [r0, #44]	; 0x2c
    MOV     R4, R12
 80004a8:	4664      	mov	r4, ip
    STR     R4, [R0,#48]
 80004aa:	6304      	str	r4, [r0, #48]	; 0x30

    @ Now the Stack and Link Register.
    @ As this context is only intended for use with a fiber scheduler,
    @ we don't need the PC.
    MOV     R6, SP
 80004ac:	466e      	mov	r6, sp
    STR     R6, [R0,#52]
 80004ae:	6346      	str	r6, [r0, #52]	; 0x34
    MOV     R4, LR
 80004b0:	4674      	mov	r4, lr
    STR     R4, [R0,#56]
 80004b2:	6384      	str	r4, [r0, #56]	; 0x38

080004b4 <store_context_complete>:
store_context_complete:
    @ Finally, Copy the stack. We do this to reduce RAM footprint, as stack is usually very small at the point
    @ of scheduling, but we need a lot of capacity for interrupt handling and other functions.

    @ Skip this is we're given a NULL parameter for the stack.
    CMP     R1, #0
 80004b4:	2900      	cmp	r1, #0
    BEQ     store_stack_complete
 80004b6:	d006      	beq.n	80004c6 <store_stack_complete>

    LDR     R4, [R0,#60]         @ Load R4 with the fiber's defined stack_base.
 80004b8:	6bc4      	ldr	r4, [r0, #60]	; 0x3c

080004ba <store_stack>:
store_stack:
    SUBS    R4, #4
 80004ba:	3c04      	subs	r4, #4
    SUBS    R1, #4
 80004bc:	3904      	subs	r1, #4

    LDR     R5, [R4]
 80004be:	6825      	ldr	r5, [r4, #0]
    STR     R5, [R1]
 80004c0:	600d      	str	r5, [r1, #0]

    CMP     R4, R6
 80004c2:	42b4      	cmp	r4, r6
    BNE     store_stack
 80004c4:	d1f9      	bne.n	80004ba <store_stack>

080004c6 <store_stack_complete>:

    @
    @ Now page in the new context.
    @ Update all registers except the PC. We can also safely ignore the STATUS register, as we're just a fiber scheduler.
    @
    LDR     R4, [R2, #56]
 80004c6:	6b94      	ldr	r4, [r2, #56]	; 0x38
    MOV     LR, R4
 80004c8:	46a6      	mov	lr, r4
    LDR     R6, [R2, #52]
 80004ca:	6b56      	ldr	r6, [r2, #52]	; 0x34
    MOV     SP, R6
 80004cc:	46b5      	mov	sp, r6

    @ Copy the stack in.
    @ n.b. we do this after setting the SP to make comparisons easier.

    @ Skip this is we're given a NULL parameter for the stack.
    CMP     R3, #0
 80004ce:	2b00      	cmp	r3, #0
    BEQ     restore_stack_complete
 80004d0:	d006      	beq.n	80004e0 <restore_stack_complete>

    LDR     R4, [R2,#60]         @ Load R4 with the fiber's defined stack_base.
 80004d2:	6bd4      	ldr	r4, [r2, #60]	; 0x3c

080004d4 <restore_stack>:

restore_stack:
    SUBS    R4, #4
 80004d4:	3c04      	subs	r4, #4
    SUBS    R3, #4
 80004d6:	3b04      	subs	r3, #4

    LDR     R5, [R3]
 80004d8:	681d      	ldr	r5, [r3, #0]
    STR     R5, [R4]
 80004da:	6025      	str	r5, [r4, #0]

    CMP     R4, R6
 80004dc:	42b4      	cmp	r4, r6
    BNE     restore_stack
 80004de:	d1f9      	bne.n	80004d4 <restore_stack>

080004e0 <restore_stack_complete>:

restore_stack_complete:
    LDR     R4, [R2, #48]
 80004e0:	6b14      	ldr	r4, [r2, #48]	; 0x30
    MOV     R12, R4
 80004e2:	46a4      	mov	ip, r4
    LDR     R4, [R2, #44]
 80004e4:	6ad4      	ldr	r4, [r2, #44]	; 0x2c
    MOV     R11, R4
 80004e6:	46a3      	mov	fp, r4
    LDR     R4, [R2, #40]
 80004e8:	6a94      	ldr	r4, [r2, #40]	; 0x28
    MOV     R10, R4
 80004ea:	46a2      	mov	sl, r4
    LDR     R4, [R2, #36]
 80004ec:	6a54      	ldr	r4, [r2, #36]	; 0x24
    MOV     R9, R4
 80004ee:	46a1      	mov	r9, r4
    LDR     R4, [R2, #32]
 80004f0:	6a14      	ldr	r4, [r2, #32]
    MOV     R8, R4
 80004f2:	46a0      	mov	r8, r4

    LDR     R7, [R2, #28]
 80004f4:	69d7      	ldr	r7, [r2, #28]
    LDR     R6, [R2, #24]
 80004f6:	6996      	ldr	r6, [r2, #24]
    LDR     R5, [R2, #20]
 80004f8:	6955      	ldr	r5, [r2, #20]
    LDR     R4, [R2, #16]
 80004fa:	6914      	ldr	r4, [r2, #16]
    LDR     R3, [R2, #12]
 80004fc:	68d3      	ldr	r3, [r2, #12]
    LDR     R1, [R2, #4]
 80004fe:	6851      	ldr	r1, [r2, #4]
    LDR     R0, [R2, #0]
 8000500:	6810      	ldr	r0, [r2, #0]
    LDR     R2, [R2, #8]
 8000502:	6892      	ldr	r2, [r2, #8]

    @ Return to caller (scheduler).
    BX      LR
 8000504:	4770      	bx	lr

08000506 <save_context>:
save_context:

    @ Write our core registers into the TCB
    @ First, store the general registers

    STR     R0, [R0,#0]
 8000506:	6000      	str	r0, [r0, #0]
    STR     R1, [R0,#4]
 8000508:	6041      	str	r1, [r0, #4]
    STR     R2, [R0,#8]
 800050a:	6082      	str	r2, [r0, #8]
    STR     R3, [R0,#12]
 800050c:	60c3      	str	r3, [r0, #12]
    STR     R4, [R0,#16]
 800050e:	6104      	str	r4, [r0, #16]
    STR     R5, [R0,#20]
 8000510:	6145      	str	r5, [r0, #20]
    STR     R6, [R0,#24]
 8000512:	6186      	str	r6, [r0, #24]
    STR     R7, [R0,#28]
 8000514:	61c7      	str	r7, [r0, #28]

    @ Now the high general purpose registers
    MOV     R4, R8
 8000516:	4644      	mov	r4, r8
    STR     R4, [R0,#32]
 8000518:	6204      	str	r4, [r0, #32]
    MOV     R4, R9
 800051a:	464c      	mov	r4, r9
    STR     R4, [R0,#36]
 800051c:	6244      	str	r4, [r0, #36]	; 0x24
    MOV     R4, R10
 800051e:	4654      	mov	r4, sl
    STR     R4, [R0,#40]
 8000520:	6284      	str	r4, [r0, #40]	; 0x28
    MOV     R4, R11
 8000522:	465c      	mov	r4, fp
    STR     R4, [R0,#44]
 8000524:	62c4      	str	r4, [r0, #44]	; 0x2c
    MOV     R4, R12
 8000526:	4664      	mov	r4, ip
    STR     R4, [R0,#48]
 8000528:	6304      	str	r4, [r0, #48]	; 0x30

    @ Now the Stack and Link Register.
    @ As this context is only intended for use with a fiber scheduler,
    @ we don't need the PC.
    MOV     R6, SP
 800052a:	466e      	mov	r6, sp
    STR     R6, [R0,#52]
 800052c:	6346      	str	r6, [r0, #52]	; 0x34
    MOV     R4, LR
 800052e:	4674      	mov	r4, lr
    STR     R4, [R0,#56]
 8000530:	6384      	str	r4, [r0, #56]	; 0x38

    @ Finally, Copy the stack. We do this to reduce RAM footprint, as stackis usually very small at the point
    @ of sceduling, but we need a lot of capacity for interrupt handling and other functions.

    LDR     R4, [R0,#60]         @ Load R4 with the fiber's defined stack_base.
 8000532:	6bc4      	ldr	r4, [r0, #60]	; 0x3c

08000534 <store_stack1>:

store_stack1:
    SUBS    R4, #4
 8000534:	3c04      	subs	r4, #4
    SUBS    R1, #4
 8000536:	3904      	subs	r1, #4

    LDR     R5, [R4]
 8000538:	6825      	ldr	r5, [r4, #0]
    STR     R5, [R1]
 800053a:	600d      	str	r5, [r1, #0]

    CMP     R4, R6
 800053c:	42b4      	cmp	r4, r6
    BNE     store_stack1
 800053e:	d1f9      	bne.n	8000534 <store_stack1>

    @ Restore scratch registers.

    LDR     R7, [R0, #28]
 8000540:	69c7      	ldr	r7, [r0, #28]
    LDR     R6, [R0, #24]
 8000542:	6986      	ldr	r6, [r0, #24]
    LDR     R5, [R0, #20]
 8000544:	6945      	ldr	r5, [r0, #20]
    LDR     R4, [R0, #16]
 8000546:	6904      	ldr	r4, [r0, #16]

    @ Return to caller (scheduler).
    BX      LR
 8000548:	4770      	bx	lr

0800054a <save_register_context>:
save_register_context:

    @ Write our core registers into the TCB
    @ First, store the general registers

    STR     R0, [R0,#0]
 800054a:	6000      	str	r0, [r0, #0]
    STR     R1, [R0,#4]
 800054c:	6041      	str	r1, [r0, #4]
    STR     R2, [R0,#8]
 800054e:	6082      	str	r2, [r0, #8]
    STR     R3, [R0,#12]
 8000550:	60c3      	str	r3, [r0, #12]
    STR     R4, [R0,#16]
 8000552:	6104      	str	r4, [r0, #16]
    STR     R5, [R0,#20]
 8000554:	6145      	str	r5, [r0, #20]
    STR     R6, [R0,#24]
 8000556:	6186      	str	r6, [r0, #24]
    STR     R7, [R0,#28]
 8000558:	61c7      	str	r7, [r0, #28]

    @ Now the high general purpose registers
    MOV     R4, R8
 800055a:	4644      	mov	r4, r8
    STR     R4, [R0,#32]
 800055c:	6204      	str	r4, [r0, #32]
    MOV     R4, R9
 800055e:	464c      	mov	r4, r9
    STR     R4, [R0,#36]
 8000560:	6244      	str	r4, [r0, #36]	; 0x24
    MOV     R4, R10
 8000562:	4654      	mov	r4, sl
    STR     R4, [R0,#40]
 8000564:	6284      	str	r4, [r0, #40]	; 0x28
    MOV     R4, R11
 8000566:	465c      	mov	r4, fp
    STR     R4, [R0,#44]
 8000568:	62c4      	str	r4, [r0, #44]	; 0x2c
    MOV     R4, R12
 800056a:	4664      	mov	r4, ip
    STR     R4, [R0,#48]
 800056c:	6304      	str	r4, [r0, #48]	; 0x30

    @ Now the Stack Pointer and Link Register.
    @ As this context is only intended for use with a fiber scheduler,
    @ we don't need the PC.
    MOV     R4, SP
 800056e:	466c      	mov	r4, sp
    STR     R4, [R0,#52]
 8000570:	6344      	str	r4, [r0, #52]	; 0x34
    MOV     R4, LR
 8000572:	4674      	mov	r4, lr
    STR     R4, [R0,#56]
 8000574:	6384      	str	r4, [r0, #56]	; 0x38

    @ Restore scratch registers.
    LDR     R4, [R0, #16]
 8000576:	6904      	ldr	r4, [r0, #16]

    @ Return to caller (scheduler).
    BX      LR
 8000578:	4770      	bx	lr

0800057a <restore_register_context>:

    @
    @ Now page in the new context.
    @ Update all registers except the PC. We can also safely ignore the STATUS register, as we're just a fiber scheduler.
    @
    LDR     R4, [R0, #56]
 800057a:	6b84      	ldr	r4, [r0, #56]	; 0x38
    MOV     LR, R4
 800057c:	46a6      	mov	lr, r4
    LDR     R4, [R0, #52]
 800057e:	6b44      	ldr	r4, [r0, #52]	; 0x34
    MOV     SP, R4
 8000580:	46a5      	mov	sp, r4

    @ High registers...
    LDR     R4, [R0, #48]
 8000582:	6b04      	ldr	r4, [r0, #48]	; 0x30
    MOV     R12, R4
 8000584:	46a4      	mov	ip, r4
    LDR     R4, [R0, #44]
 8000586:	6ac4      	ldr	r4, [r0, #44]	; 0x2c
    MOV     R11, R4
 8000588:	46a3      	mov	fp, r4
    LDR     R4, [R0, #40]
 800058a:	6a84      	ldr	r4, [r0, #40]	; 0x28
    MOV     R10, R4
 800058c:	46a2      	mov	sl, r4
    LDR     R4, [R0, #36]
 800058e:	6a44      	ldr	r4, [r0, #36]	; 0x24
    MOV     R9, R4
 8000590:	46a1      	mov	r9, r4
    LDR     R4, [R0, #32]
 8000592:	6a04      	ldr	r4, [r0, #32]
    MOV     R8, R4
 8000594:	46a0      	mov	r8, r4

    @ Low registers...
    LDR     R7, [R0, #28]
 8000596:	69c7      	ldr	r7, [r0, #28]
    LDR     R6, [R0, #24]
 8000598:	6986      	ldr	r6, [r0, #24]
    LDR     R5, [R0, #20]
 800059a:	6945      	ldr	r5, [r0, #20]
    LDR     R4, [R0, #16]
 800059c:	6904      	ldr	r4, [r0, #16]
    LDR     R3, [R0, #12]
 800059e:	68c3      	ldr	r3, [r0, #12]
    LDR     R2, [R0, #8]
 80005a0:	6882      	ldr	r2, [r0, #8]
    LDR     R0, [R0, #0]
 80005a2:	6800      	ldr	r0, [r0, #0]
    LDR     R1, [R0, #4]
 80005a4:	6841      	ldr	r1, [r0, #4]

    @ Return to caller (normally the scheduler).
    BX      LR
 80005a6:	4770      	bx	lr

080005a8 <blocking_handler>:

}

void blocking_handler(void)
{
	while (1);
 80005a8:	e7fe      	b.n	80005a8 <blocking_handler>
 80005aa:	bf00      	nop

080005ac <null_handler>:
}

void null_handler(void)
{
	/* Do nothing. */
}
 80005ac:	4770      	bx	lr
 80005ae:	bf00      	nop

080005b0 <gpio_set>:
	     If multiple pins are to be changed, use bitwise OR '|' to separate
	     them.
*/
void gpio_set(uint32_t gpioport, uint16_t gpios)
{
	GPIO_BSRR(gpioport) = gpios;
 80005b0:	6101      	str	r1, [r0, #16]
}
 80005b2:	4770      	bx	lr

080005b4 <gpio_clear>:
	     If multiple pins are to be changed, use bitwise OR '|' to separate
	     them.
*/
void  gpio_clear(uint32_t gpioport, uint16_t gpios)
{
	GPIO_BSRR(gpioport) = (gpios << 16);
 80005b4:	0409      	lsls	r1, r1, #16
 80005b6:	6101      	str	r1, [r0, #16]
}
 80005b8:	4770      	bx	lr
 80005ba:	bf00      	nop

080005bc <pwr_disable_backup_domain_write_protect>:
protected after a reset.
*/

void pwr_disable_backup_domain_write_protect(void)
{
	PWR_CR |= PWR_CR_DBP;
 80005bc:	4a02      	ldr	r2, [pc, #8]	; (80005c8 <pwr_disable_backup_domain_write_protect+0xc>)
 80005be:	6813      	ldr	r3, [r2, #0]
 80005c0:	f443 7380 	orr.w	r3, r3, #256	; 0x100
 80005c4:	6013      	str	r3, [r2, #0]
}
 80005c6:	4770      	bx	lr
 80005c8:	40007000 	.word	0x40007000

080005cc <pwr_enable_backup_domain_write_protect>:
This protects backup domain registers from inadvertent change.
*/

void pwr_enable_backup_domain_write_protect(void)
{
	PWR_CR &= ~PWR_CR_DBP;
 80005cc:	4a02      	ldr	r2, [pc, #8]	; (80005d8 <pwr_enable_backup_domain_write_protect+0xc>)
 80005ce:	6813      	ldr	r3, [r2, #0]
 80005d0:	f423 7380 	bic.w	r3, r3, #256	; 0x100
 80005d4:	6013      	str	r3, [r2, #0]
}
 80005d6:	4770      	bx	lr
 80005d8:	40007000 	.word	0x40007000

080005dc <rcc_periph_clock_enable>:
 * For available constants, see #rcc_periph_clken (RCC_UART1 for example)
 */

void rcc_periph_clock_enable(enum rcc_periph_clken clken)
{
	_RCC_REG(clken) |= _RCC_BIT(clken);
 80005dc:	2201      	movs	r2, #1
 80005de:	0943      	lsrs	r3, r0, #5
 80005e0:	f103 4380 	add.w	r3, r3, #1073741824	; 0x40000000
 80005e4:	f503 3304 	add.w	r3, r3, #135168	; 0x21000
 80005e8:	6819      	ldr	r1, [r3, #0]
 80005ea:	f000 001f 	and.w	r0, r0, #31
 80005ee:	4082      	lsls	r2, r0
 80005f0:	430a      	orrs	r2, r1
 80005f2:	601a      	str	r2, [r3, #0]
}
 80005f4:	4770      	bx	lr
 80005f6:	bf00      	nop

080005f8 <rcc_periph_reset_pulse>:
 * For available constants, see #rcc_periph_rst (RST_UART1 for example)
 */

void rcc_periph_reset_pulse(enum rcc_periph_rst rst)
{
	_RCC_REG(rst) |= _RCC_BIT(rst);
 80005f8:	2201      	movs	r2, #1
 80005fa:	0943      	lsrs	r3, r0, #5
 80005fc:	f103 4380 	add.w	r3, r3, #1073741824	; 0x40000000
 8000600:	f503 3304 	add.w	r3, r3, #135168	; 0x21000
 8000604:	6819      	ldr	r1, [r3, #0]
 8000606:	f000 001f 	and.w	r0, r0, #31
 800060a:	fa02 f000 	lsl.w	r0, r2, r0
 800060e:	4301      	orrs	r1, r0
 8000610:	6019      	str	r1, [r3, #0]
	_RCC_REG(rst) &= ~_RCC_BIT(rst);
 8000612:	681a      	ldr	r2, [r3, #0]
 8000614:	ea22 0000 	bic.w	r0, r2, r0
 8000618:	6018      	str	r0, [r3, #0]
}
 800061a:	4770      	bx	lr

0800061c <gpio_set_mode>:
	     If multiple pins are to be set, use bitwise OR '|' to separate
	     them.
*/

void gpio_set_mode(uint32_t gpioport, uint8_t mode, uint8_t cnf, uint16_t gpios)
{
 800061c:	e92d 43f0 	stmdb	sp!, {r4, r5, r6, r7, r8, r9, lr}

		/* Use tmp32 to either modify crl or crh. */
		tmp32 = (i < 8) ? crl : crh;

		/* Modify bits are needed. */
		tmp32 &= ~(0xf << offset);	/* Clear the bits first. */
 8000620:	f04f 0c0f 	mov.w	ip, #15

	/*
	 * We want to set the config only for the pins mentioned in gpios,
	 * but keeping the others, so read out the actual config first.
	 */
	crl = GPIO_CRL(gpioport);
 8000624:	6807      	ldr	r7, [r0, #0]
	crh = GPIO_CRH(gpioport);
 8000626:	2400      	movs	r4, #0
 8000628:	f8d0 e004 	ldr.w	lr, [r0, #4]

	/* Iterate over all bits, use i as the bitnumber. */
	for (i = 0; i < 16; i++) {
 800062c:	e004      	b.n	8000638 <gpio_set_mode+0x1c>
		/* Use tmp32 to either modify crl or crh. */
		tmp32 = (i < 8) ? crl : crh;

		/* Modify bits are needed. */
		tmp32 &= ~(0xf << offset);	/* Clear the bits first. */
		tmp32 |= (mode << offset) | (cnf << (offset + 2));
 800062e:	ea46 0709 	orr.w	r7, r6, r9

		/* Write tmp32 into crl or crh, leave the other unchanged. */
		crl = (i < 8) ? tmp32 : crl;
 8000632:	3401      	adds	r4, #1
	 */
	crl = GPIO_CRL(gpioport);
	crh = GPIO_CRH(gpioport);

	/* Iterate over all bits, use i as the bitnumber. */
	for (i = 0; i < 16; i++) {
 8000634:	2c10      	cmp	r4, #16
 8000636:	d027      	beq.n	8000688 <gpio_set_mode+0x6c>
		/* Only set the config if the bit is set in gpios. */
		if (!((1 << i) & gpios)) {
 8000638:	fa43 f504 	asr.w	r5, r3, r4
 800063c:	f015 0f01 	tst.w	r5, #1
 8000640:	b2a5      	uxth	r5, r4
 8000642:	d0f6      	beq.n	8000632 <gpio_set_mode+0x16>

		/* Use tmp32 to either modify crl or crh. */
		tmp32 = (i < 8) ? crl : crh;

		/* Modify bits are needed. */
		tmp32 &= ~(0xf << offset);	/* Clear the bits first. */
 8000644:	00a6      	lsls	r6, r4, #2
		tmp32 |= (mode << offset) | (cnf << (offset + 2));
 8000646:	f106 0802 	add.w	r8, r6, #2

		/* Use tmp32 to either modify crl or crh. */
		tmp32 = (i < 8) ? crl : crh;

		/* Modify bits are needed. */
		tmp32 &= ~(0xf << offset);	/* Clear the bits first. */
 800064a:	fa0c f906 	lsl.w	r9, ip, r6
		tmp32 |= (mode << offset) | (cnf << (offset + 2));
 800064e:	fa02 f808 	lsl.w	r8, r2, r8
 8000652:	fa01 f606 	lsl.w	r6, r1, r6
		if (!((1 << i) & gpios)) {
			continue;
		}

		/* Calculate bit offset. */
		offset = (i < 8) ? (i * 4) : ((i - 8) * 4);
 8000656:	2c07      	cmp	r4, #7

		/* Use tmp32 to either modify crl or crh. */
		tmp32 = (i < 8) ? crl : crh;

		/* Modify bits are needed. */
		tmp32 &= ~(0xf << offset);	/* Clear the bits first. */
 8000658:	ea27 0909 	bic.w	r9, r7, r9
		tmp32 |= (mode << offset) | (cnf << (offset + 2));
 800065c:	ea48 0606 	orr.w	r6, r8, r6
		if (!((1 << i) & gpios)) {
			continue;
		}

		/* Calculate bit offset. */
		offset = (i < 8) ? (i * 4) : ((i - 8) * 4);
 8000660:	d9e5      	bls.n	800062e <gpio_set_mode+0x12>

		/* Use tmp32 to either modify crl or crh. */
		tmp32 = (i < 8) ? crl : crh;

		/* Modify bits are needed. */
		tmp32 &= ~(0xf << offset);	/* Clear the bits first. */
 8000662:	00ad      	lsls	r5, r5, #2
 8000664:	3d20      	subs	r5, #32
 8000666:	b2ad      	uxth	r5, r5
		tmp32 |= (mode << offset) | (cnf << (offset + 2));
 8000668:	1cae      	adds	r6, r5, #2
 800066a:	fa01 f805 	lsl.w	r8, r1, r5
 800066e:	fa02 f606 	lsl.w	r6, r2, r6

		/* Use tmp32 to either modify crl or crh. */
		tmp32 = (i < 8) ? crl : crh;

		/* Modify bits are needed. */
		tmp32 &= ~(0xf << offset);	/* Clear the bits first. */
 8000672:	fa0c f505 	lsl.w	r5, ip, r5
 8000676:	3401      	adds	r4, #1
		tmp32 |= (mode << offset) | (cnf << (offset + 2));
 8000678:	ea46 0608 	orr.w	r6, r6, r8

		/* Use tmp32 to either modify crl or crh. */
		tmp32 = (i < 8) ? crl : crh;

		/* Modify bits are needed. */
		tmp32 &= ~(0xf << offset);	/* Clear the bits first. */
 800067c:	ea2e 0505 	bic.w	r5, lr, r5
	 */
	crl = GPIO_CRL(gpioport);
	crh = GPIO_CRH(gpioport);

	/* Iterate over all bits, use i as the bitnumber. */
	for (i = 0; i < 16; i++) {
 8000680:	2c10      	cmp	r4, #16
		/* Use tmp32 to either modify crl or crh. */
		tmp32 = (i < 8) ? crl : crh;

		/* Modify bits are needed. */
		tmp32 &= ~(0xf << offset);	/* Clear the bits first. */
		tmp32 |= (mode << offset) | (cnf << (offset + 2));
 8000682:	ea46 0e05 	orr.w	lr, r6, r5
	 */
	crl = GPIO_CRL(gpioport);
	crh = GPIO_CRH(gpioport);

	/* Iterate over all bits, use i as the bitnumber. */
	for (i = 0; i < 16; i++) {
 8000686:	d1d7      	bne.n	8000638 <gpio_set_mode+0x1c>
		/* Write tmp32 into crl or crh, leave the other unchanged. */
		crl = (i < 8) ? tmp32 : crl;
		crh = (i >= 8) ? tmp32 : crh;
	}

	GPIO_CRL(gpioport) = crl;
 8000688:	6007      	str	r7, [r0, #0]
	GPIO_CRH(gpioport) = crh;
 800068a:	f8c0 e004 	str.w	lr, [r0, #4]
}
 800068e:	e8bd 83f0 	ldmia.w	sp!, {r4, r5, r6, r7, r8, r9, pc}
 8000692:	bf00      	nop

08000694 <rcc_is_osc_ready.part.0>:

bool rcc_is_osc_ready(enum rcc_osc osc)
{
	switch (osc) {
	case RCC_PLL:
		return RCC_CR & RCC_CR_PLLRDY;
 8000694:	4b02      	ldr	r3, [pc, #8]	; (80006a0 <rcc_is_osc_ready.part.0+0xc>)
 8000696:	6818      	ldr	r0, [r3, #0]
		return RCC_BDCR & RCC_BDCR_LSERDY;
	case RCC_LSI:
		return RCC_CSR & RCC_CSR_LSIRDY;
	}
	return false;
}
 8000698:	f3c0 6040 	ubfx	r0, r0, #25, #1
 800069c:	4770      	bx	lr
 800069e:	bf00      	nop
 80006a0:	40021000 	.word	0x40021000

080006a4 <rcc_osc_on.part.1>:

void rcc_osc_on(enum rcc_osc osc)
{
	switch (osc) {
	case RCC_PLL:
		RCC_CR |= RCC_CR_PLLON;
 80006a4:	4a02      	ldr	r2, [pc, #8]	; (80006b0 <rcc_osc_on.part.1+0xc>)
 80006a6:	6813      	ldr	r3, [r2, #0]
 80006a8:	f043 7380 	orr.w	r3, r3, #16777216	; 0x1000000
 80006ac:	6013      	str	r3, [r2, #0]
		break;
	case RCC_LSI:
		RCC_CSR |= RCC_CSR_LSION;
		break;
	}
}
 80006ae:	4770      	bx	lr
 80006b0:	40021000 	.word	0x40021000

080006b4 <rcc_enable_rtc_clock>:

*/

void rcc_enable_rtc_clock(void)
{
	RCC_BDCR |= RCC_BDCR_RTCEN;
 80006b4:	4a02      	ldr	r2, [pc, #8]	; (80006c0 <rcc_enable_rtc_clock+0xc>)
 80006b6:	6813      	ldr	r3, [r2, #0]
 80006b8:	f443 4300 	orr.w	r3, r3, #32768	; 0x8000
 80006bc:	6013      	str	r3, [r2, #0]
}
 80006be:	4770      	bx	lr
 80006c0:	40021020 	.word	0x40021020

080006c4 <rcc_set_rtc_clock_source>:

void rcc_set_rtc_clock_source(enum rcc_osc clock_source)
{
	uint32_t reg32;

	switch (clock_source) {
 80006c4:	2806      	cmp	r0, #6
 80006c6:	d80a      	bhi.n	80006de <rcc_set_rtc_clock_source+0x1a>
 80006c8:	e8df f000 	tbb	[pc, r0]
 80006cc:	2f040404 	.word	0x2f040404
 80006d0:	1d04      	.short	0x1d04
 80006d2:	0a          	.byte	0x0a
 80006d3:	00          	.byte	0x00
	case RCC_PLL2:
	case RCC_PLL3:
	case RCC_HSI:
		/* Unusable clock source, here to prevent warnings. */
		/* Turn off clock sources to RTC. */
		RCC_BDCR &= ~((1 << 8) | (1 << 9));
 80006d4:	4a1e      	ldr	r2, [pc, #120]	; (8000750 <rcc_set_rtc_clock_source+0x8c>)
 80006d6:	6813      	ldr	r3, [r2, #0]
 80006d8:	f423 7340 	bic.w	r3, r3, #768	; 0x300
 80006dc:	6013      	str	r3, [r2, #0]
		break;
	}
}
 80006de:	4770      	bx	lr
		RCC_BDCR &= ~((1 << 8) | (1 << 9));
		RCC_BDCR |= (1 << 8);
		break;
	case RCC_LSI:
		/* Turn the LSI on and wait while it stabilises. */
		RCC_CSR |= RCC_CSR_LSION;
 80006e0:	4b1c      	ldr	r3, [pc, #112]	; (8000754 <rcc_set_rtc_clock_source+0x90>)
		while ((reg32 = (RCC_CSR & RCC_CSR_LSIRDY)) == 0);
 80006e2:	461a      	mov	r2, r3
		RCC_BDCR &= ~((1 << 8) | (1 << 9));
		RCC_BDCR |= (1 << 8);
		break;
	case RCC_LSI:
		/* Turn the LSI on and wait while it stabilises. */
		RCC_CSR |= RCC_CSR_LSION;
 80006e4:	6819      	ldr	r1, [r3, #0]
 80006e6:	f041 0101 	orr.w	r1, r1, #1
 80006ea:	6019      	str	r1, [r3, #0]
		while ((reg32 = (RCC_CSR & RCC_CSR_LSIRDY)) == 0);
 80006ec:	6813      	ldr	r3, [r2, #0]
 80006ee:	0799      	lsls	r1, r3, #30
 80006f0:	d5fc      	bpl.n	80006ec <rcc_set_rtc_clock_source+0x28>

		/* Choose LSI as the RTC clock source. */
		RCC_BDCR &= ~((1 << 8) | (1 << 9));
 80006f2:	4b17      	ldr	r3, [pc, #92]	; (8000750 <rcc_set_rtc_clock_source+0x8c>)
 80006f4:	681a      	ldr	r2, [r3, #0]
 80006f6:	f422 7240 	bic.w	r2, r2, #768	; 0x300
 80006fa:	601a      	str	r2, [r3, #0]
		RCC_BDCR |= (1 << 9);
 80006fc:	681a      	ldr	r2, [r3, #0]
 80006fe:	f442 7200 	orr.w	r2, r2, #512	; 0x200
 8000702:	601a      	str	r2, [r3, #0]
		break;
 8000704:	4770      	bx	lr
	uint32_t reg32;

	switch (clock_source) {
	case RCC_LSE:
		/* Turn the LSE on and wait while it stabilises. */
		RCC_BDCR |= RCC_BDCR_LSEON;
 8000706:	4b12      	ldr	r3, [pc, #72]	; (8000750 <rcc_set_rtc_clock_source+0x8c>)
		while ((reg32 = (RCC_BDCR & RCC_BDCR_LSERDY)) == 0);
 8000708:	461a      	mov	r2, r3
	uint32_t reg32;

	switch (clock_source) {
	case RCC_LSE:
		/* Turn the LSE on and wait while it stabilises. */
		RCC_BDCR |= RCC_BDCR_LSEON;
 800070a:	6819      	ldr	r1, [r3, #0]
 800070c:	f041 0101 	orr.w	r1, r1, #1
 8000710:	6019      	str	r1, [r3, #0]
		while ((reg32 = (RCC_BDCR & RCC_BDCR_LSERDY)) == 0);
 8000712:	6813      	ldr	r3, [r2, #0]
 8000714:	0798      	lsls	r0, r3, #30
 8000716:	d5fc      	bpl.n	8000712 <rcc_set_rtc_clock_source+0x4e>

		/* Choose LSE as the RTC clock source. */
		RCC_BDCR &= ~((1 << 8) | (1 << 9));
 8000718:	6813      	ldr	r3, [r2, #0]
 800071a:	f423 7340 	bic.w	r3, r3, #768	; 0x300
 800071e:	6013      	str	r3, [r2, #0]
		RCC_BDCR |= (1 << 8);
 8000720:	6813      	ldr	r3, [r2, #0]
 8000722:	f443 7380 	orr.w	r3, r3, #256	; 0x100
 8000726:	6013      	str	r3, [r2, #0]
		break;
 8000728:	4770      	bx	lr
		RCC_BDCR &= ~((1 << 8) | (1 << 9));
		RCC_BDCR |= (1 << 9);
		break;
	case RCC_HSE:
		/* Turn the HSE on and wait while it stabilises. */
		RCC_CR |= RCC_CR_HSEON;
 800072a:	4b0b      	ldr	r3, [pc, #44]	; (8000758 <rcc_set_rtc_clock_source+0x94>)
		while ((reg32 = (RCC_CR & RCC_CR_HSERDY)) == 0);
 800072c:	461a      	mov	r2, r3
		RCC_BDCR &= ~((1 << 8) | (1 << 9));
		RCC_BDCR |= (1 << 9);
		break;
	case RCC_HSE:
		/* Turn the HSE on and wait while it stabilises. */
		RCC_CR |= RCC_CR_HSEON;
 800072e:	6819      	ldr	r1, [r3, #0]
 8000730:	f441 3180 	orr.w	r1, r1, #65536	; 0x10000
 8000734:	6019      	str	r1, [r3, #0]
		while ((reg32 = (RCC_CR & RCC_CR_HSERDY)) == 0);
 8000736:	6813      	ldr	r3, [r2, #0]
 8000738:	039b      	lsls	r3, r3, #14
 800073a:	d5fc      	bpl.n	8000736 <rcc_set_rtc_clock_source+0x72>

		/* Choose HSE as the RTC clock source. */
		RCC_BDCR &= ~((1 << 8) | (1 << 9));
 800073c:	4b04      	ldr	r3, [pc, #16]	; (8000750 <rcc_set_rtc_clock_source+0x8c>)
 800073e:	681a      	ldr	r2, [r3, #0]
 8000740:	f422 7240 	bic.w	r2, r2, #768	; 0x300
 8000744:	601a      	str	r2, [r3, #0]
		RCC_BDCR |= (1 << 9) | (1 << 8);
 8000746:	681a      	ldr	r2, [r3, #0]
 8000748:	f442 7240 	orr.w	r2, r2, #768	; 0x300
 800074c:	601a      	str	r2, [r3, #0]
		break;
 800074e:	4770      	bx	lr
 8000750:	40021020 	.word	0x40021020
 8000754:	40021024 	.word	0x40021024
 8000758:	40021000 	.word	0x40021000

0800075c <rcc_clock_setup_in_hse_8mhz_out_72mhz>:
/** @brief RCC Set System Clock PLL at 72MHz from HSE at 8MHz

*/

void rcc_clock_setup_in_hse_8mhz_out_72mhz(void)
{
 800075c:	b538      	push	{r3, r4, r5, lr}
		break;
	case RCC_HSE:
		RCC_CR |= RCC_CR_HSEON;
		break;
	case RCC_HSI:
		RCC_CR |= RCC_CR_HSION;
 800075e:	4b2b      	ldr	r3, [pc, #172]	; (800080c <rcc_clock_setup_in_hse_8mhz_out_72mhz+0xb0>)
	case RCC_PLL3:
		return RCC_CR & RCC_CR_PLL3RDY;
	case RCC_HSE:
		return RCC_CR & RCC_CR_HSERDY;
	case RCC_HSI:
		return RCC_CR & RCC_CR_HSIRDY;
 8000760:	461a      	mov	r2, r3
		break;
	case RCC_HSE:
		RCC_CR |= RCC_CR_HSEON;
		break;
	case RCC_HSI:
		RCC_CR |= RCC_CR_HSION;
 8000762:	6819      	ldr	r1, [r3, #0]
 8000764:	f041 0101 	orr.w	r1, r1, #1
 8000768:	6019      	str	r1, [r3, #0]
	case RCC_PLL3:
		return RCC_CR & RCC_CR_PLL3RDY;
	case RCC_HSE:
		return RCC_CR & RCC_CR_HSERDY;
	case RCC_HSI:
		return RCC_CR & RCC_CR_HSIRDY;
 800076a:	6813      	ldr	r3, [r2, #0]
	return false;
}

void rcc_wait_for_osc_ready(enum rcc_osc osc)
{
	while (!rcc_is_osc_ready(osc));
 800076c:	0799      	lsls	r1, r3, #30
 800076e:	d5fc      	bpl.n	800076a <rcc_clock_setup_in_hse_8mhz_out_72mhz+0xe>
@param[in] clk Unsigned int32. System Clock Selection @ref rcc_cfgr_scs
*/

void rcc_set_sysclk_source(uint32_t clk)
{
	RCC_CFGR = (RCC_CFGR & ~RCC_CFGR_SW) |
 8000770:	4827      	ldr	r0, [pc, #156]	; (8000810 <rcc_clock_setup_in_hse_8mhz_out_72mhz+0xb4>)
	case RCC_PLL2:
		return RCC_CR & RCC_CR_PLL2RDY;
	case RCC_PLL3:
		return RCC_CR & RCC_CR_PLL3RDY;
	case RCC_HSE:
		return RCC_CR & RCC_CR_HSERDY;
 8000772:	4926      	ldr	r1, [pc, #152]	; (800080c <rcc_clock_setup_in_hse_8mhz_out_72mhz+0xb0>)
@param[in] clk Unsigned int32. System Clock Selection @ref rcc_cfgr_scs
*/

void rcc_set_sysclk_source(uint32_t clk)
{
	RCC_CFGR = (RCC_CFGR & ~RCC_CFGR_SW) |
 8000774:	6803      	ldr	r3, [r0, #0]
 8000776:	f023 0303 	bic.w	r3, r3, #3
 800077a:	6003      	str	r3, [r0, #0]
		break;
	case RCC_PLL3:
		RCC_CR |= RCC_CR_PLL3ON;
		break;
	case RCC_HSE:
		RCC_CR |= RCC_CR_HSEON;
 800077c:	6813      	ldr	r3, [r2, #0]
 800077e:	f443 3380 	orr.w	r3, r3, #65536	; 0x10000
 8000782:	6013      	str	r3, [r2, #0]
	case RCC_PLL2:
		return RCC_CR & RCC_CR_PLL2RDY;
	case RCC_PLL3:
		return RCC_CR & RCC_CR_PLL3RDY;
	case RCC_HSE:
		return RCC_CR & RCC_CR_HSERDY;
 8000784:	680b      	ldr	r3, [r1, #0]
	return false;
}

void rcc_wait_for_osc_ready(enum rcc_osc osc)
{
	while (!rcc_is_osc_ready(osc));
 8000786:	039b      	lsls	r3, r3, #14
 8000788:	d5fc      	bpl.n	8000784 <rcc_clock_setup_in_hse_8mhz_out_72mhz+0x28>
@param[in] clk Unsigned int32. System Clock Selection @ref rcc_cfgr_scs
*/

void rcc_set_sysclk_source(uint32_t clk)
{
	RCC_CFGR = (RCC_CFGR & ~RCC_CFGR_SW) |
 800078a:	4c21      	ldr	r4, [pc, #132]	; (8000810 <rcc_clock_setup_in_hse_8mhz_out_72mhz+0xb4>)
	 * Sysclk runs with 72MHz -> 2 waitstates.
	 * 0WS from 0-24MHz
	 * 1WS from 24-48MHz
	 * 2WS from 48-72MHz
	 */
	flash_set_ws(FLASH_ACR_LATENCY_2WS);
 800078c:	2002      	movs	r0, #2
@param[in] clk Unsigned int32. System Clock Selection @ref rcc_cfgr_scs
*/

void rcc_set_sysclk_source(uint32_t clk)
{
	RCC_CFGR = (RCC_CFGR & ~RCC_CFGR_SW) |
 800078e:	6823      	ldr	r3, [r4, #0]
 8000790:	f023 0303 	bic.w	r3, r3, #3
 8000794:	f043 0301 	orr.w	r3, r3, #1
 8000798:	6023      	str	r3, [r4, #0]
@param[in] hpre Unsigned int32. AHB prescale factor @ref rcc_cfgr_ahbpre
*/

void rcc_set_hpre(uint32_t hpre)
{
	RCC_CFGR = (RCC_CFGR & ~RCC_CFGR_HPRE) |
 800079a:	6823      	ldr	r3, [r4, #0]
 800079c:	f023 03f0 	bic.w	r3, r3, #240	; 0xf0
 80007a0:	6023      	str	r3, [r4, #0]
@param[in] adcpre uint32_t. Prescale divider taken from @ref rcc_cfgr_adcpre
*/

void rcc_set_adcpre(uint32_t adcpre)
{
	RCC_CFGR = (RCC_CFGR & ~RCC_CFGR_ADCPRE) |
 80007a2:	6823      	ldr	r3, [r4, #0]
 80007a4:	f443 4340 	orr.w	r3, r3, #49152	; 0xc000
 80007a8:	6023      	str	r3, [r4, #0]
@param[in] ppre1 Unsigned int32. APB1 prescale factor @ref rcc_cfgr_apb1pre
*/

void rcc_set_ppre1(uint32_t ppre1)
{
	RCC_CFGR = (RCC_CFGR & ~RCC_CFGR_PPRE1) |
 80007aa:	6823      	ldr	r3, [r4, #0]
 80007ac:	f423 63e0 	bic.w	r3, r3, #1792	; 0x700
 80007b0:	f443 6380 	orr.w	r3, r3, #1024	; 0x400
 80007b4:	6023      	str	r3, [r4, #0]
@param[in] ppre2 Unsigned int32. APB2 prescale factor @ref rcc_cfgr_apb2pre
*/

void rcc_set_ppre2(uint32_t ppre2)
{
	RCC_CFGR = (RCC_CFGR & ~RCC_CFGR_PPRE2) |
 80007b6:	6823      	ldr	r3, [r4, #0]
 80007b8:	f423 5360 	bic.w	r3, r3, #14336	; 0x3800
 80007bc:	6023      	str	r3, [r4, #0]
	 * Sysclk runs with 72MHz -> 2 waitstates.
	 * 0WS from 0-24MHz
	 * 1WS from 24-48MHz
	 * 2WS from 48-72MHz
	 */
	flash_set_ws(FLASH_ACR_LATENCY_2WS);
 80007be:	f000 f833 	bl	8000828 <flash_set_ws>
@param[in] mul Unsigned int32. PLL multiplication factor @ref rcc_cfgr_pmf
*/

void rcc_set_pll_multiplication_factor(uint32_t mul)
{
	RCC_CFGR = (RCC_CFGR & ~RCC_CFGR_PLLMUL) |
 80007c2:	6823      	ldr	r3, [r4, #0]
 80007c4:	f423 1370 	bic.w	r3, r3, #3932160	; 0x3c0000
 80007c8:	f443 13e0 	orr.w	r3, r3, #1835008	; 0x1c0000
 80007cc:	6023      	str	r3, [r4, #0]
@param[in] pllsrc Unsigned int32. PLL clock source @ref rcc_cfgr_pcs
*/

void rcc_set_pll_source(uint32_t pllsrc)
{
	RCC_CFGR = (RCC_CFGR & ~RCC_CFGR_PLLSRC) |
 80007ce:	6823      	ldr	r3, [r4, #0]
 80007d0:	f443 3380 	orr.w	r3, r3, #65536	; 0x10000
 80007d4:	6023      	str	r3, [r4, #0]
@param[in] pllxtpre Unsigned int32. HSE division factor @ref rcc_cfgr_hsepre
*/

void rcc_set_pllxtpre(uint32_t pllxtpre)
{
	RCC_CFGR = (RCC_CFGR & ~RCC_CFGR_PLLXTPRE) |
 80007d6:	6823      	ldr	r3, [r4, #0]
 80007d8:	f423 3300 	bic.w	r3, r3, #131072	; 0x20000
 80007dc:	6023      	str	r3, [r4, #0]
@param[in] osc enum ::osc_t. Oscillator ID
*/

void rcc_osc_on(enum rcc_osc osc)
{
	switch (osc) {
 80007de:	f7ff ff61 	bl	80006a4 <rcc_osc_on.part.1>
	return ((RCC_CIR & RCC_CIR_CSSF) != 0);
}

bool rcc_is_osc_ready(enum rcc_osc osc)
{
	switch (osc) {
 80007e2:	f7ff ff57 	bl	8000694 <rcc_is_osc_ready.part.0>
	return false;
}

void rcc_wait_for_osc_ready(enum rcc_osc osc)
{
	while (!rcc_is_osc_ready(osc));
 80007e6:	2800      	cmp	r0, #0
 80007e8:	d0fb      	beq.n	80007e2 <rcc_clock_setup_in_hse_8mhz_out_72mhz+0x86>
@param[in] clk Unsigned int32. System Clock Selection @ref rcc_cfgr_scs
*/

void rcc_set_sysclk_source(uint32_t clk)
{
	RCC_CFGR = (RCC_CFGR & ~RCC_CFGR_SW) |
 80007ea:	4909      	ldr	r1, [pc, #36]	; (8000810 <rcc_clock_setup_in_hse_8mhz_out_72mhz+0xb4>)

	/* Select PLL as SYSCLK source. */
	rcc_set_sysclk_source(RCC_CFGR_SW_SYSCLKSEL_PLLCLK);

	/* Set the peripheral clock frequencies used */
	rcc_ahb_frequency = 72000000;
 80007ec:	4a09      	ldr	r2, [pc, #36]	; (8000814 <rcc_clock_setup_in_hse_8mhz_out_72mhz+0xb8>)
@param[in] clk Unsigned int32. System Clock Selection @ref rcc_cfgr_scs
*/

void rcc_set_sysclk_source(uint32_t clk)
{
	RCC_CFGR = (RCC_CFGR & ~RCC_CFGR_SW) |
 80007ee:	680b      	ldr	r3, [r1, #0]

	/* Select PLL as SYSCLK source. */
	rcc_set_sysclk_source(RCC_CFGR_SW_SYSCLKSEL_PLLCLK);

	/* Set the peripheral clock frequencies used */
	rcc_ahb_frequency = 72000000;
 80007f0:	4d09      	ldr	r5, [pc, #36]	; (8000818 <rcc_clock_setup_in_hse_8mhz_out_72mhz+0xbc>)
@param[in] clk Unsigned int32. System Clock Selection @ref rcc_cfgr_scs
*/

void rcc_set_sysclk_source(uint32_t clk)
{
	RCC_CFGR = (RCC_CFGR & ~RCC_CFGR_SW) |
 80007f2:	f023 0303 	bic.w	r3, r3, #3
 80007f6:	f043 0302 	orr.w	r3, r3, #2
 80007fa:	600b      	str	r3, [r1, #0]
	rcc_set_sysclk_source(RCC_CFGR_SW_SYSCLKSEL_PLLCLK);

	/* Set the peripheral clock frequencies used */
	rcc_ahb_frequency = 72000000;
	rcc_apb1_frequency = 36000000;
	rcc_apb2_frequency = 72000000;
 80007fc:	4c07      	ldr	r4, [pc, #28]	; (800081c <rcc_clock_setup_in_hse_8mhz_out_72mhz+0xc0>)
	/* Select PLL as SYSCLK source. */
	rcc_set_sysclk_source(RCC_CFGR_SW_SYSCLKSEL_PLLCLK);

	/* Set the peripheral clock frequencies used */
	rcc_ahb_frequency = 72000000;
	rcc_apb1_frequency = 36000000;
 80007fe:	4808      	ldr	r0, [pc, #32]	; (8000820 <rcc_clock_setup_in_hse_8mhz_out_72mhz+0xc4>)
 8000800:	4b08      	ldr	r3, [pc, #32]	; (8000824 <rcc_clock_setup_in_hse_8mhz_out_72mhz+0xc8>)

	/* Select PLL as SYSCLK source. */
	rcc_set_sysclk_source(RCC_CFGR_SW_SYSCLKSEL_PLLCLK);

	/* Set the peripheral clock frequencies used */
	rcc_ahb_frequency = 72000000;
 8000802:	602a      	str	r2, [r5, #0]
	rcc_apb1_frequency = 36000000;
	rcc_apb2_frequency = 72000000;
 8000804:	6022      	str	r2, [r4, #0]
	/* Select PLL as SYSCLK source. */
	rcc_set_sysclk_source(RCC_CFGR_SW_SYSCLKSEL_PLLCLK);

	/* Set the peripheral clock frequencies used */
	rcc_ahb_frequency = 72000000;
	rcc_apb1_frequency = 36000000;
 8000806:	6003      	str	r3, [r0, #0]
	rcc_apb2_frequency = 72000000;
}
 8000808:	bd38      	pop	{r3, r4, r5, pc}
 800080a:	bf00      	nop
 800080c:	40021000 	.word	0x40021000
 8000810:	40021004 	.word	0x40021004
 8000814:	044aa200 	.word	0x044aa200
 8000818:	20000004 	.word	0x20000004
 800081c:	2000000c 	.word	0x2000000c
 8000820:	20000008 	.word	0x20000008
 8000824:	02255100 	.word	0x02255100

08000828 <flash_set_ws>:

void flash_set_ws(uint32_t ws)
{
	uint32_t reg32;

	reg32 = FLASH_ACR;
 8000828:	4a03      	ldr	r2, [pc, #12]	; (8000838 <flash_set_ws+0x10>)
 800082a:	6813      	ldr	r3, [r2, #0]
	reg32 &= ~(FLASH_ACR_LATENCY_MASK << FLASH_ACR_LATENCY_SHIFT);
 800082c:	f023 0307 	bic.w	r3, r3, #7
	reg32 |= (ws << FLASH_ACR_LATENCY_SHIFT);
 8000830:	4318      	orrs	r0, r3
	FLASH_ACR = reg32;
 8000832:	6010      	str	r0, [r2, #0]
}
 8000834:	4770      	bx	lr
 8000836:	bf00      	nop
 8000838:	40022000 	.word	0x40022000

0800083c <nvic_enable_irq>:
 * @param[in] irqn Unsigned int8. Interrupt number @ref nvic_stm32f1_userint
 */

void nvic_enable_irq(uint8_t irqn)
{
	NVIC_ISER(irqn / 32) = (1 << (irqn % 32));
 800083c:	2201      	movs	r2, #1
 800083e:	0943      	lsrs	r3, r0, #5
 8000840:	009b      	lsls	r3, r3, #2
 8000842:	f103 4360 	add.w	r3, r3, #3758096384	; 0xe0000000
 8000846:	f000 001f 	and.w	r0, r0, #31
 800084a:	f503 4361 	add.w	r3, r3, #57600	; 0xe100
 800084e:	fa02 f000 	lsl.w	r0, r2, r0
 8000852:	6018      	str	r0, [r3, #0]
}
 8000854:	4770      	bx	lr
 8000856:	bf00      	nop

08000858 <exti_set_trigger>:
#       include <libopencm3/stm32/syscfg.h>
#endif

void exti_set_trigger(uint32_t extis, enum exti_trigger_type trig)
{
	switch (trig) {
 8000858:	2901      	cmp	r1, #1
 800085a:	d00c      	beq.n	8000876 <exti_set_trigger+0x1e>
 800085c:	b1a9      	cbz	r1, 800088a <exti_set_trigger+0x32>
 800085e:	2902      	cmp	r1, #2
 8000860:	d108      	bne.n	8000874 <exti_set_trigger+0x1c>
	case EXTI_TRIGGER_FALLING:
		EXTI_RTSR &= ~extis;
		EXTI_FTSR |= extis;
		break;
	case EXTI_TRIGGER_BOTH:
		EXTI_RTSR |= extis;
 8000862:	490f      	ldr	r1, [pc, #60]	; (80008a0 <exti_set_trigger+0x48>)
		EXTI_FTSR |= extis;
 8000864:	4a0f      	ldr	r2, [pc, #60]	; (80008a4 <exti_set_trigger+0x4c>)
	case EXTI_TRIGGER_FALLING:
		EXTI_RTSR &= ~extis;
		EXTI_FTSR |= extis;
		break;
	case EXTI_TRIGGER_BOTH:
		EXTI_RTSR |= extis;
 8000866:	680b      	ldr	r3, [r1, #0]
 8000868:	4303      	orrs	r3, r0
 800086a:	600b      	str	r3, [r1, #0]
		EXTI_FTSR |= extis;
 800086c:	6813      	ldr	r3, [r2, #0]
 800086e:	4318      	orrs	r0, r3
 8000870:	6010      	str	r0, [r2, #0]
		break;
	}
}
 8000872:	4770      	bx	lr
 8000874:	4770      	bx	lr
	case EXTI_TRIGGER_RISING:
		EXTI_RTSR |= extis;
		EXTI_FTSR &= ~extis;
		break;
	case EXTI_TRIGGER_FALLING:
		EXTI_RTSR &= ~extis;
 8000876:	490a      	ldr	r1, [pc, #40]	; (80008a0 <exti_set_trigger+0x48>)
		EXTI_FTSR |= extis;
 8000878:	4a0a      	ldr	r2, [pc, #40]	; (80008a4 <exti_set_trigger+0x4c>)
	case EXTI_TRIGGER_RISING:
		EXTI_RTSR |= extis;
		EXTI_FTSR &= ~extis;
		break;
	case EXTI_TRIGGER_FALLING:
		EXTI_RTSR &= ~extis;
 800087a:	680b      	ldr	r3, [r1, #0]
 800087c:	ea23 0300 	bic.w	r3, r3, r0
 8000880:	600b      	str	r3, [r1, #0]
		EXTI_FTSR |= extis;
 8000882:	6813      	ldr	r3, [r2, #0]
 8000884:	4318      	orrs	r0, r3
 8000886:	6010      	str	r0, [r2, #0]
		break;
 8000888:	4770      	bx	lr

void exti_set_trigger(uint32_t extis, enum exti_trigger_type trig)
{
	switch (trig) {
	case EXTI_TRIGGER_RISING:
		EXTI_RTSR |= extis;
 800088a:	4905      	ldr	r1, [pc, #20]	; (80008a0 <exti_set_trigger+0x48>)
		EXTI_FTSR &= ~extis;
 800088c:	4a05      	ldr	r2, [pc, #20]	; (80008a4 <exti_set_trigger+0x4c>)

void exti_set_trigger(uint32_t extis, enum exti_trigger_type trig)
{
	switch (trig) {
	case EXTI_TRIGGER_RISING:
		EXTI_RTSR |= extis;
 800088e:	680b      	ldr	r3, [r1, #0]
 8000890:	4303      	orrs	r3, r0
 8000892:	600b      	str	r3, [r1, #0]
		EXTI_FTSR &= ~extis;
 8000894:	6813      	ldr	r3, [r2, #0]
 8000896:	ea23 0000 	bic.w	r0, r3, r0
 800089a:	6010      	str	r0, [r2, #0]
		break;
 800089c:	4770      	bx	lr
 800089e:	bf00      	nop
 80008a0:	40010408 	.word	0x40010408
 80008a4:	4001040c 	.word	0x4001040c

080008a8 <exti_enable_request>:
}

void exti_enable_request(uint32_t extis)
{
	/* Enable interrupts. */
	EXTI_IMR |= extis;
 80008a8:	4b04      	ldr	r3, [pc, #16]	; (80008bc <exti_enable_request+0x14>)

	/* Enable events. */
	EXTI_EMR |= extis;
 80008aa:	4905      	ldr	r1, [pc, #20]	; (80008c0 <exti_enable_request+0x18>)
}

void exti_enable_request(uint32_t extis)
{
	/* Enable interrupts. */
	EXTI_IMR |= extis;
 80008ac:	681a      	ldr	r2, [r3, #0]
 80008ae:	4302      	orrs	r2, r0
 80008b0:	601a      	str	r2, [r3, #0]

	/* Enable events. */
	EXTI_EMR |= extis;
 80008b2:	680b      	ldr	r3, [r1, #0]
 80008b4:	4303      	orrs	r3, r0
 80008b6:	600b      	str	r3, [r1, #0]
}
 80008b8:	4770      	bx	lr
 80008ba:	bf00      	nop
 80008bc:	40010400 	.word	0x40010400
 80008c0:	40010404 	.word	0x40010404

080008c4 <exti_reset_request>:
 * Reset the interrupt request by writing a 1 to the corresponding
 * pending bit register.
 */
void exti_reset_request(uint32_t extis)
{
	EXTI_PR = extis;
 80008c4:	4b01      	ldr	r3, [pc, #4]	; (80008cc <exti_reset_request+0x8>)
 80008c6:	6018      	str	r0, [r3, #0]
}
 80008c8:	4770      	bx	lr
 80008ca:	bf00      	nop
 80008cc:	40010414 	.word	0x40010414

080008d0 <flash_unlock>:


void flash_unlock(void)
{
	/* Authorize the FPEC access. */
	FLASH_KEYR = FLASH_KEYR_KEY1;
 80008d0:	4b02      	ldr	r3, [pc, #8]	; (80008dc <flash_unlock+0xc>)
 80008d2:	4903      	ldr	r1, [pc, #12]	; (80008e0 <flash_unlock+0x10>)
	FLASH_KEYR = FLASH_KEYR_KEY2;
 80008d4:	4a03      	ldr	r2, [pc, #12]	; (80008e4 <flash_unlock+0x14>)


void flash_unlock(void)
{
	/* Authorize the FPEC access. */
	FLASH_KEYR = FLASH_KEYR_KEY1;
 80008d6:	6019      	str	r1, [r3, #0]
	FLASH_KEYR = FLASH_KEYR_KEY2;
 80008d8:	601a      	str	r2, [r3, #0]
}
 80008da:	4770      	bx	lr
 80008dc:	40022004 	.word	0x40022004
 80008e0:	45670123 	.word	0x45670123
 80008e4:	cdef89ab 	.word	0xcdef89ab

080008e8 <flash_lock>:

void flash_lock(void)
{
	FLASH_CR |= FLASH_CR_LOCK;
 80008e8:	4a02      	ldr	r2, [pc, #8]	; (80008f4 <flash_lock+0xc>)
 80008ea:	6813      	ldr	r3, [r2, #0]
 80008ec:	f043 0380 	orr.w	r3, r3, #128	; 0x80
 80008f0:	6013      	str	r3, [r2, #0]
}
 80008f2:	4770      	bx	lr
 80008f4:	40022010 	.word	0x40022010

080008f8 <desig_get_unique_id_as_string>:

	desig_get_unique_id(dev_id_buf);

	/* Each byte produces two characters */
	len = (2 * sizeof(dev_id_buf) < string_len) ?
		2 * sizeof(dev_id_buf) : string_len - 1;
 80008f8:	2919      	cmp	r1, #25
 80008fa:	bf28      	it	cs
 80008fc:	2119      	movcs	r1, #25
	*result = DESIG_UNIQUE_ID0;
}

void desig_get_unique_id_as_string(char *string,
				   unsigned int string_len)
{
 80008fe:	b4f0      	push	{r4, r5, r6, r7}

	desig_get_unique_id(dev_id_buf);

	/* Each byte produces two characters */
	len = (2 * sizeof(dev_id_buf) < string_len) ?
		2 * sizeof(dev_id_buf) : string_len - 1;
 8000900:	460d      	mov	r5, r1
	*result = DESIG_UNIQUE_ID0;
}

void desig_get_unique_id_as_string(char *string,
				   unsigned int string_len)
{
 8000902:	b088      	sub	sp, #32
	int i, len;
	uint32_t dev_id_buf[3];
	uint8_t *device_id = (uint8_t *)dev_id_buf;
	const char chars[] = "0123456789ABCDEF";
 8000904:	4f16      	ldr	r7, [pc, #88]	; (8000960 <desig_get_unique_id_as_string+0x68>)
 8000906:	ae03      	add	r6, sp, #12
	*result = DESIG_UNIQUE_ID0;
}

void desig_get_unique_id_as_string(char *string,
				   unsigned int string_len)
{
 8000908:	4604      	mov	r4, r0
	int i, len;
	uint32_t dev_id_buf[3];
	uint8_t *device_id = (uint8_t *)dev_id_buf;
	const char chars[] = "0123456789ABCDEF";
 800090a:	cf0f      	ldmia	r7!, {r0, r1, r2, r3}
 800090c:	c60f      	stmia	r6!, {r0, r1, r2, r3}
 800090e:	683a      	ldr	r2, [r7, #0]
	return DESIG_FLASH_SIZE;
}

void desig_get_unique_id(uint32_t *result)
{
	*result++ = DESIG_UNIQUE_ID2;
 8000910:	4b14      	ldr	r3, [pc, #80]	; (8000964 <desig_get_unique_id_as_string+0x6c>)
				   unsigned int string_len)
{
	int i, len;
	uint32_t dev_id_buf[3];
	uint8_t *device_id = (uint8_t *)dev_id_buf;
	const char chars[] = "0123456789ABCDEF";
 8000912:	7032      	strb	r2, [r6, #0]
	return DESIG_FLASH_SIZE;
}

void desig_get_unique_id(uint32_t *result)
{
	*result++ = DESIG_UNIQUE_ID2;
 8000914:	681a      	ldr	r2, [r3, #0]
	*result++ = DESIG_UNIQUE_ID1;
	*result = DESIG_UNIQUE_ID0;
 8000916:	3b08      	subs	r3, #8
	return DESIG_FLASH_SIZE;
}

void desig_get_unique_id(uint32_t *result)
{
	*result++ = DESIG_UNIQUE_ID2;
 8000918:	9200      	str	r2, [sp, #0]
	*result++ = DESIG_UNIQUE_ID1;
 800091a:	685a      	ldr	r2, [r3, #4]

	desig_get_unique_id(dev_id_buf);

	/* Each byte produces two characters */
	len = (2 * sizeof(dev_id_buf) < string_len) ?
		2 * sizeof(dev_id_buf) : string_len - 1;
 800091c:	1e68      	subs	r0, r5, #1
}

void desig_get_unique_id(uint32_t *result)
{
	*result++ = DESIG_UNIQUE_ID2;
	*result++ = DESIG_UNIQUE_ID1;
 800091e:	9201      	str	r2, [sp, #4]
	*result = DESIG_UNIQUE_ID0;
 8000920:	681b      	ldr	r3, [r3, #0]

	/* Each byte produces two characters */
	len = (2 * sizeof(dev_id_buf) < string_len) ?
		2 * sizeof(dev_id_buf) : string_len - 1;

	for (i = 0; i < len; i += 2) {
 8000922:	2800      	cmp	r0, #0

void desig_get_unique_id(uint32_t *result)
{
	*result++ = DESIG_UNIQUE_ID2;
	*result++ = DESIG_UNIQUE_ID1;
	*result = DESIG_UNIQUE_ID0;
 8000924:	9302      	str	r3, [sp, #8]

	/* Each byte produces two characters */
	len = (2 * sizeof(dev_id_buf) < string_len) ?
		2 * sizeof(dev_id_buf) : string_len - 1;

	for (i = 0; i < len; i += 2) {
 8000926:	dd15      	ble.n	8000954 <desig_get_unique_id_as_string+0x5c>
 8000928:	2300      	movs	r3, #0
 800092a:	1c65      	adds	r5, r4, #1
		string[i]     = chars[(device_id[i / 2] >> 4) & 0x0F];
 800092c:	aa08      	add	r2, sp, #32
 800092e:	eb02 0263 	add.w	r2, r2, r3, asr #1
 8000932:	f812 2c20 	ldrb.w	r2, [r2, #-32]
		string[i + 1] = chars[(device_id[i / 2] >> 0) & 0x0F];
 8000936:	ae08      	add	r6, sp, #32
 8000938:	f002 010f 	and.w	r1, r2, #15
 800093c:	4431      	add	r1, r6
	/* Each byte produces two characters */
	len = (2 * sizeof(dev_id_buf) < string_len) ?
		2 * sizeof(dev_id_buf) : string_len - 1;

	for (i = 0; i < len; i += 2) {
		string[i]     = chars[(device_id[i / 2] >> 4) & 0x0F];
 800093e:	eb06 1212 	add.w	r2, r6, r2, lsr #4
		string[i + 1] = chars[(device_id[i / 2] >> 0) & 0x0F];
 8000942:	f811 1c14 	ldrb.w	r1, [r1, #-20]
	/* Each byte produces two characters */
	len = (2 * sizeof(dev_id_buf) < string_len) ?
		2 * sizeof(dev_id_buf) : string_len - 1;

	for (i = 0; i < len; i += 2) {
		string[i]     = chars[(device_id[i / 2] >> 4) & 0x0F];
 8000946:	f812 2c14 	ldrb.w	r2, [r2, #-20]
 800094a:	54e2      	strb	r2, [r4, r3]
		string[i + 1] = chars[(device_id[i / 2] >> 0) & 0x0F];
 800094c:	54e9      	strb	r1, [r5, r3]

	/* Each byte produces two characters */
	len = (2 * sizeof(dev_id_buf) < string_len) ?
		2 * sizeof(dev_id_buf) : string_len - 1;

	for (i = 0; i < len; i += 2) {
 800094e:	3302      	adds	r3, #2
 8000950:	4298      	cmp	r0, r3
 8000952:	dceb      	bgt.n	800092c <desig_get_unique_id_as_string+0x34>
		string[i]     = chars[(device_id[i / 2] >> 4) & 0x0F];
		string[i + 1] = chars[(device_id[i / 2] >> 0) & 0x0F];
	}

	string[len] = '\0';
 8000954:	2300      	movs	r3, #0
 8000956:	5423      	strb	r3, [r4, r0]
}
 8000958:	b008      	add	sp, #32
 800095a:	bcf0      	pop	{r4, r5, r6, r7}
 800095c:	4770      	bx	lr
 800095e:	bf00      	nop
 8000960:	08004660 	.word	0x08004660
 8000964:	1ffff7f0 	.word	0x1ffff7f0

08000968 <flash_get_status_flags>:
error, bit 5: end of operation.
*/

uint32_t flash_get_status_flags(void)
{
	uint32_t flags = (FLASH_SR & (FLASH_SR_PGERR |
 8000968:	4a06      	ldr	r2, [pc, #24]	; (8000984 <flash_get_status_flags+0x1c>)
			FLASH_SR_EOP |
			FLASH_SR_WRPRTERR |
			FLASH_SR_BSY));
	if (DESIG_FLASH_SIZE > 512) {
 800096a:	4b07      	ldr	r3, [pc, #28]	; (8000988 <flash_get_status_flags+0x20>)
error, bit 5: end of operation.
*/

uint32_t flash_get_status_flags(void)
{
	uint32_t flags = (FLASH_SR & (FLASH_SR_PGERR |
 800096c:	6810      	ldr	r0, [r2, #0]
			FLASH_SR_EOP |
			FLASH_SR_WRPRTERR |
			FLASH_SR_BSY));
	if (DESIG_FLASH_SIZE > 512) {
 800096e:	881b      	ldrh	r3, [r3, #0]
 8000970:	f5b3 7f00 	cmp.w	r3, #512	; 0x200
		flags |= (FLASH_SR2 & (FLASH_SR_PGERR |
 8000974:	bf82      	ittt	hi
 8000976:	4b05      	ldrhi	r3, [pc, #20]	; (800098c <flash_get_status_flags+0x24>)
 8000978:	681b      	ldrhi	r3, [r3, #0]
 800097a:	4318      	orrhi	r0, r3
 800097c:	f000 0035 	and.w	r0, r0, #53	; 0x35
			FLASH_SR_WRPRTERR |
			FLASH_SR_BSY));
	}

	return flags;
}
 8000980:	4770      	bx	lr
 8000982:	bf00      	nop
 8000984:	4002200c 	.word	0x4002200c
 8000988:	1ffff7e0 	.word	0x1ffff7e0
 800098c:	4002204c 	.word	0x4002204c

08000990 <flash_program_half_word>:
@param[in] address Full address of flash half word to be programmed.
@param[in] data half word to write
*/

void flash_program_half_word(uint32_t address, uint16_t data)
{
 8000990:	b570      	push	{r4, r5, r6, lr}
	flash_wait_for_last_operation();

	if ((DESIG_FLASH_SIZE > 512) && (address >= FLASH_BASE+0x00080000)) {
 8000992:	4c21      	ldr	r4, [pc, #132]	; (8000a18 <flash_program_half_word+0x88>)
@param[in] address Full address of flash half word to be programmed.
@param[in] data half word to write
*/

void flash_program_half_word(uint32_t address, uint16_t data)
{
 8000994:	4605      	mov	r5, r0
 8000996:	460e      	mov	r6, r1
	flash_wait_for_last_operation();
 8000998:	f000 feda 	bl	8001750 <flash_wait_for_last_operation>

	if ((DESIG_FLASH_SIZE > 512) && (address >= FLASH_BASE+0x00080000)) {
 800099c:	8823      	ldrh	r3, [r4, #0]
 800099e:	f5b3 7f00 	cmp.w	r3, #512	; 0x200
 80009a2:	d914      	bls.n	80009ce <flash_program_half_word+0x3e>
 80009a4:	4b1d      	ldr	r3, [pc, #116]	; (8000a1c <flash_program_half_word+0x8c>)
 80009a6:	429d      	cmp	r5, r3
 80009a8:	d926      	bls.n	80009f8 <flash_program_half_word+0x68>
		FLASH_CR2 |= FLASH_CR_PG;
 80009aa:	4a1d      	ldr	r2, [pc, #116]	; (8000a20 <flash_program_half_word+0x90>)
 80009ac:	6813      	ldr	r3, [r2, #0]
 80009ae:	f043 0301 	orr.w	r3, r3, #1
 80009b2:	6013      	str	r3, [r2, #0]
	} else {
		FLASH_CR |= FLASH_CR_PG;
	}

	MMIO16(address) = data;
 80009b4:	802e      	strh	r6, [r5, #0]

	flash_wait_for_last_operation();
 80009b6:	f000 fecb 	bl	8001750 <flash_wait_for_last_operation>

	if ((DESIG_FLASH_SIZE > 512) && (address >= FLASH_BASE+0x00080000)) {
 80009ba:	8823      	ldrh	r3, [r4, #0]
 80009bc:	f5b3 7f00 	cmp.w	r3, #512	; 0x200
 80009c0:	d914      	bls.n	80009ec <flash_program_half_word+0x5c>
		FLASH_CR2 &= ~FLASH_CR_PG;
 80009c2:	4a17      	ldr	r2, [pc, #92]	; (8000a20 <flash_program_half_word+0x90>)
 80009c4:	6813      	ldr	r3, [r2, #0]
 80009c6:	f023 0301 	bic.w	r3, r3, #1
 80009ca:	6013      	str	r3, [r2, #0]
	} else {
		FLASH_CR &= ~FLASH_CR_PG;
	}
}
 80009cc:	bd70      	pop	{r4, r5, r6, pc}
	flash_wait_for_last_operation();

	if ((DESIG_FLASH_SIZE > 512) && (address >= FLASH_BASE+0x00080000)) {
		FLASH_CR2 |= FLASH_CR_PG;
	} else {
		FLASH_CR |= FLASH_CR_PG;
 80009ce:	4a15      	ldr	r2, [pc, #84]	; (8000a24 <flash_program_half_word+0x94>)
 80009d0:	6813      	ldr	r3, [r2, #0]
 80009d2:	f043 0301 	orr.w	r3, r3, #1
 80009d6:	6013      	str	r3, [r2, #0]
	}

	MMIO16(address) = data;
 80009d8:	802e      	strh	r6, [r5, #0]

	flash_wait_for_last_operation();
 80009da:	f000 feb9 	bl	8001750 <flash_wait_for_last_operation>

	if ((DESIG_FLASH_SIZE > 512) && (address >= FLASH_BASE+0x00080000)) {
 80009de:	8823      	ldrh	r3, [r4, #0]
 80009e0:	f5b3 7f00 	cmp.w	r3, #512	; 0x200
 80009e4:	d902      	bls.n	80009ec <flash_program_half_word+0x5c>
 80009e6:	4b0d      	ldr	r3, [pc, #52]	; (8000a1c <flash_program_half_word+0x8c>)
 80009e8:	429d      	cmp	r5, r3
 80009ea:	d8ea      	bhi.n	80009c2 <flash_program_half_word+0x32>
		FLASH_CR2 &= ~FLASH_CR_PG;
	} else {
		FLASH_CR &= ~FLASH_CR_PG;
 80009ec:	4a0d      	ldr	r2, [pc, #52]	; (8000a24 <flash_program_half_word+0x94>)
 80009ee:	6813      	ldr	r3, [r2, #0]
 80009f0:	f023 0301 	bic.w	r3, r3, #1
 80009f4:	6013      	str	r3, [r2, #0]
	}
}
 80009f6:	bd70      	pop	{r4, r5, r6, pc}
	flash_wait_for_last_operation();

	if ((DESIG_FLASH_SIZE > 512) && (address >= FLASH_BASE+0x00080000)) {
		FLASH_CR2 |= FLASH_CR_PG;
	} else {
		FLASH_CR |= FLASH_CR_PG;
 80009f8:	4a0a      	ldr	r2, [pc, #40]	; (8000a24 <flash_program_half_word+0x94>)
 80009fa:	6813      	ldr	r3, [r2, #0]
 80009fc:	f043 0301 	orr.w	r3, r3, #1
 8000a00:	6013      	str	r3, [r2, #0]
	}

	MMIO16(address) = data;
 8000a02:	802e      	strh	r6, [r5, #0]

	flash_wait_for_last_operation();
 8000a04:	f000 fea4 	bl	8001750 <flash_wait_for_last_operation>

	if ((DESIG_FLASH_SIZE > 512) && (address >= FLASH_BASE+0x00080000)) {
		FLASH_CR2 &= ~FLASH_CR_PG;
	} else {
		FLASH_CR &= ~FLASH_CR_PG;
 8000a08:	4a06      	ldr	r2, [pc, #24]	; (8000a24 <flash_program_half_word+0x94>)

	MMIO16(address) = data;

	flash_wait_for_last_operation();

	if ((DESIG_FLASH_SIZE > 512) && (address >= FLASH_BASE+0x00080000)) {
 8000a0a:	8823      	ldrh	r3, [r4, #0]
		FLASH_CR2 &= ~FLASH_CR_PG;
	} else {
		FLASH_CR &= ~FLASH_CR_PG;
 8000a0c:	6813      	ldr	r3, [r2, #0]
 8000a0e:	f023 0301 	bic.w	r3, r3, #1
 8000a12:	6013      	str	r3, [r2, #0]
 8000a14:	e7ef      	b.n	80009f6 <flash_program_half_word+0x66>
 8000a16:	bf00      	nop
 8000a18:	1ffff7e0 	.word	0x1ffff7e0
 8000a1c:	0807ffff 	.word	0x0807ffff
 8000a20:	40022050 	.word	0x40022050
 8000a24:	40022010 	.word	0x40022010

08000a28 <flash_erase_page>:

@param[in] page_address Full address of flash page to be erased.
*/

void flash_erase_page(uint32_t page_address)
{
 8000a28:	b538      	push	{r3, r4, r5, lr}
	flash_wait_for_last_operation();

	if ((DESIG_FLASH_SIZE > 512)
 8000a2a:	4c28      	ldr	r4, [pc, #160]	; (8000acc <flash_erase_page+0xa4>)

@param[in] page_address Full address of flash page to be erased.
*/

void flash_erase_page(uint32_t page_address)
{
 8000a2c:	4605      	mov	r5, r0
	flash_wait_for_last_operation();
 8000a2e:	f000 fe8f 	bl	8001750 <flash_wait_for_last_operation>

	if ((DESIG_FLASH_SIZE > 512)
 8000a32:	8823      	ldrh	r3, [r4, #0]
 8000a34:	f5b3 7f00 	cmp.w	r3, #512	; 0x200
 8000a38:	d919      	bls.n	8000a6e <flash_erase_page+0x46>
	    && (page_address >= FLASH_BASE+0x00080000)) {
 8000a3a:	4b25      	ldr	r3, [pc, #148]	; (8000ad0 <flash_erase_page+0xa8>)
 8000a3c:	429d      	cmp	r5, r3
 8000a3e:	d930      	bls.n	8000aa2 <flash_erase_page+0x7a>
		FLASH_CR2 |= FLASH_CR_PER;
 8000a40:	4b24      	ldr	r3, [pc, #144]	; (8000ad4 <flash_erase_page+0xac>)
		FLASH_AR2 = page_address;
 8000a42:	4925      	ldr	r1, [pc, #148]	; (8000ad8 <flash_erase_page+0xb0>)
{
	flash_wait_for_last_operation();

	if ((DESIG_FLASH_SIZE > 512)
	    && (page_address >= FLASH_BASE+0x00080000)) {
		FLASH_CR2 |= FLASH_CR_PER;
 8000a44:	681a      	ldr	r2, [r3, #0]
 8000a46:	f042 0202 	orr.w	r2, r2, #2
 8000a4a:	601a      	str	r2, [r3, #0]
		FLASH_AR2 = page_address;
 8000a4c:	600d      	str	r5, [r1, #0]
		FLASH_CR2 |= FLASH_CR_STRT;
 8000a4e:	681a      	ldr	r2, [r3, #0]
 8000a50:	f042 0240 	orr.w	r2, r2, #64	; 0x40
 8000a54:	601a      	str	r2, [r3, #0]
		FLASH_CR |= FLASH_CR_PER;
		FLASH_AR = page_address;
		FLASH_CR |= FLASH_CR_STRT;
	}

	flash_wait_for_last_operation();
 8000a56:	f000 fe7b 	bl	8001750 <flash_wait_for_last_operation>

	if ((DESIG_FLASH_SIZE > 512)
 8000a5a:	8823      	ldrh	r3, [r4, #0]
 8000a5c:	f5b3 7f00 	cmp.w	r3, #512	; 0x200
 8000a60:	d919      	bls.n	8000a96 <flash_erase_page+0x6e>
	    && (page_address >= FLASH_BASE+0x00080000)) {
		FLASH_CR2 &= ~FLASH_CR_PER;
 8000a62:	4a1c      	ldr	r2, [pc, #112]	; (8000ad4 <flash_erase_page+0xac>)
 8000a64:	6813      	ldr	r3, [r2, #0]
 8000a66:	f023 0302 	bic.w	r3, r3, #2
 8000a6a:	6013      	str	r3, [r2, #0]
	} else {
		FLASH_CR &= ~FLASH_CR_PER;
	}
}
 8000a6c:	bd38      	pop	{r3, r4, r5, pc}
	    && (page_address >= FLASH_BASE+0x00080000)) {
		FLASH_CR2 |= FLASH_CR_PER;
		FLASH_AR2 = page_address;
		FLASH_CR2 |= FLASH_CR_STRT;
	} else  {
		FLASH_CR |= FLASH_CR_PER;
 8000a6e:	4b1b      	ldr	r3, [pc, #108]	; (8000adc <flash_erase_page+0xb4>)
		FLASH_AR = page_address;
 8000a70:	491b      	ldr	r1, [pc, #108]	; (8000ae0 <flash_erase_page+0xb8>)
	    && (page_address >= FLASH_BASE+0x00080000)) {
		FLASH_CR2 |= FLASH_CR_PER;
		FLASH_AR2 = page_address;
		FLASH_CR2 |= FLASH_CR_STRT;
	} else  {
		FLASH_CR |= FLASH_CR_PER;
 8000a72:	681a      	ldr	r2, [r3, #0]
 8000a74:	f042 0202 	orr.w	r2, r2, #2
 8000a78:	601a      	str	r2, [r3, #0]
		FLASH_AR = page_address;
 8000a7a:	600d      	str	r5, [r1, #0]
		FLASH_CR |= FLASH_CR_STRT;
 8000a7c:	681a      	ldr	r2, [r3, #0]
 8000a7e:	f042 0240 	orr.w	r2, r2, #64	; 0x40
 8000a82:	601a      	str	r2, [r3, #0]
	}

	flash_wait_for_last_operation();
 8000a84:	f000 fe64 	bl	8001750 <flash_wait_for_last_operation>

	if ((DESIG_FLASH_SIZE > 512)
 8000a88:	8823      	ldrh	r3, [r4, #0]
 8000a8a:	f5b3 7f00 	cmp.w	r3, #512	; 0x200
 8000a8e:	d902      	bls.n	8000a96 <flash_erase_page+0x6e>
	    && (page_address >= FLASH_BASE+0x00080000)) {
 8000a90:	4b0f      	ldr	r3, [pc, #60]	; (8000ad0 <flash_erase_page+0xa8>)
 8000a92:	429d      	cmp	r5, r3
 8000a94:	d8e5      	bhi.n	8000a62 <flash_erase_page+0x3a>
		FLASH_CR2 &= ~FLASH_CR_PER;
	} else {
		FLASH_CR &= ~FLASH_CR_PER;
 8000a96:	4a11      	ldr	r2, [pc, #68]	; (8000adc <flash_erase_page+0xb4>)
 8000a98:	6813      	ldr	r3, [r2, #0]
 8000a9a:	f023 0302 	bic.w	r3, r3, #2
 8000a9e:	6013      	str	r3, [r2, #0]
	}
}
 8000aa0:	bd38      	pop	{r3, r4, r5, pc}
	    && (page_address >= FLASH_BASE+0x00080000)) {
		FLASH_CR2 |= FLASH_CR_PER;
		FLASH_AR2 = page_address;
		FLASH_CR2 |= FLASH_CR_STRT;
	} else  {
		FLASH_CR |= FLASH_CR_PER;
 8000aa2:	4b0e      	ldr	r3, [pc, #56]	; (8000adc <flash_erase_page+0xb4>)
		FLASH_AR = page_address;
 8000aa4:	490e      	ldr	r1, [pc, #56]	; (8000ae0 <flash_erase_page+0xb8>)
	    && (page_address >= FLASH_BASE+0x00080000)) {
		FLASH_CR2 |= FLASH_CR_PER;
		FLASH_AR2 = page_address;
		FLASH_CR2 |= FLASH_CR_STRT;
	} else  {
		FLASH_CR |= FLASH_CR_PER;
 8000aa6:	681a      	ldr	r2, [r3, #0]
 8000aa8:	f042 0202 	orr.w	r2, r2, #2
 8000aac:	601a      	str	r2, [r3, #0]
		FLASH_AR = page_address;
 8000aae:	600d      	str	r5, [r1, #0]
		FLASH_CR |= FLASH_CR_STRT;
 8000ab0:	681a      	ldr	r2, [r3, #0]
 8000ab2:	f042 0240 	orr.w	r2, r2, #64	; 0x40
 8000ab6:	601a      	str	r2, [r3, #0]
	}

	flash_wait_for_last_operation();
 8000ab8:	f000 fe4a 	bl	8001750 <flash_wait_for_last_operation>

	if ((DESIG_FLASH_SIZE > 512)
	    && (page_address >= FLASH_BASE+0x00080000)) {
		FLASH_CR2 &= ~FLASH_CR_PER;
	} else {
		FLASH_CR &= ~FLASH_CR_PER;
 8000abc:	4a07      	ldr	r2, [pc, #28]	; (8000adc <flash_erase_page+0xb4>)
		FLASH_CR |= FLASH_CR_STRT;
	}

	flash_wait_for_last_operation();

	if ((DESIG_FLASH_SIZE > 512)
 8000abe:	8823      	ldrh	r3, [r4, #0]
	    && (page_address >= FLASH_BASE+0x00080000)) {
		FLASH_CR2 &= ~FLASH_CR_PER;
	} else {
		FLASH_CR &= ~FLASH_CR_PER;
 8000ac0:	6813      	ldr	r3, [r2, #0]
 8000ac2:	f023 0302 	bic.w	r3, r3, #2
 8000ac6:	6013      	str	r3, [r2, #0]
 8000ac8:	e7ea      	b.n	8000aa0 <flash_erase_page+0x78>
 8000aca:	bf00      	nop
 8000acc:	1ffff7e0 	.word	0x1ffff7e0
 8000ad0:	0807ffff 	.word	0x0807ffff
 8000ad4:	40022050 	.word	0x40022050
 8000ad8:	40022054 	.word	0x40022054
 8000adc:	40022010 	.word	0x40022010
 8000ae0:	40022014 	.word	0x40022014

08000ae4 <rtc_enter_config_mode>:
void rtc_enter_config_mode(void)
{
	uint32_t reg32;

	/* Wait until the RTOFF bit is 1 (no RTC register writes ongoing). */
	while ((reg32 = (RTC_CRL & RTC_CRL_RTOFF)) == 0);
 8000ae4:	4a04      	ldr	r2, [pc, #16]	; (8000af8 <rtc_enter_config_mode+0x14>)
 8000ae6:	6813      	ldr	r3, [r2, #0]
 8000ae8:	069b      	lsls	r3, r3, #26
 8000aea:	d5fc      	bpl.n	8000ae6 <rtc_enter_config_mode+0x2>

	/* Enter configuration mode. */
	RTC_CRL |= RTC_CRL_CNF;
 8000aec:	6813      	ldr	r3, [r2, #0]
 8000aee:	f043 0310 	orr.w	r3, r3, #16
 8000af2:	6013      	str	r3, [r2, #0]
}
 8000af4:	4770      	bx	lr
 8000af6:	bf00      	nop
 8000af8:	40002804 	.word	0x40002804

08000afc <rtc_exit_config_mode>:
void rtc_exit_config_mode(void)
{
	uint32_t reg32;

	/* Exit configuration mode. */
	RTC_CRL &= ~RTC_CRL_CNF;
 8000afc:	4b04      	ldr	r3, [pc, #16]	; (8000b10 <rtc_exit_config_mode+0x14>)

	/* Wait until the RTOFF bit is 1 (our RTC register write finished). */
	while ((reg32 = (RTC_CRL & RTC_CRL_RTOFF)) == 0);
 8000afe:	461a      	mov	r2, r3
void rtc_exit_config_mode(void)
{
	uint32_t reg32;

	/* Exit configuration mode. */
	RTC_CRL &= ~RTC_CRL_CNF;
 8000b00:	6819      	ldr	r1, [r3, #0]
 8000b02:	f021 0110 	bic.w	r1, r1, #16
 8000b06:	6019      	str	r1, [r3, #0]

	/* Wait until the RTOFF bit is 1 (our RTC register write finished). */
	while ((reg32 = (RTC_CRL & RTC_CRL_RTOFF)) == 0);
 8000b08:	6813      	ldr	r3, [r2, #0]
 8000b0a:	069b      	lsls	r3, r3, #26
 8000b0c:	d5fc      	bpl.n	8000b08 <rtc_exit_config_mode+0xc>
}
 8000b0e:	4770      	bx	lr
 8000b10:	40002804 	.word	0x40002804

08000b14 <rtc_set_alarm_time>:

@param[in] alarm_time uint32_t. time at which the alarm event is triggered.
*/

void rtc_set_alarm_time(uint32_t alarm_time)
{
 8000b14:	b430      	push	{r4, r5}
void rtc_enter_config_mode(void)
{
	uint32_t reg32;

	/* Wait until the RTOFF bit is 1 (no RTC register writes ongoing). */
	while ((reg32 = (RTC_CRL & RTC_CRL_RTOFF)) == 0);
 8000b16:	4a0c      	ldr	r2, [pc, #48]	; (8000b48 <rtc_set_alarm_time+0x34>)
 8000b18:	6813      	ldr	r3, [r2, #0]
 8000b1a:	0699      	lsls	r1, r3, #26
 8000b1c:	d5fc      	bpl.n	8000b18 <rtc_set_alarm_time+0x4>

	/* Enter configuration mode. */
	RTC_CRL |= RTC_CRL_CNF;
 8000b1e:	6813      	ldr	r3, [r2, #0]

void rtc_set_alarm_time(uint32_t alarm_time)
{
	rtc_enter_config_mode();
	RTC_ALRL = (alarm_time & 0x0000ffff);
	RTC_ALRH = (alarm_time & 0xffff0000) >> 16;
 8000b20:	490a      	ldr	r1, [pc, #40]	; (8000b4c <rtc_set_alarm_time+0x38>)
*/

void rtc_set_alarm_time(uint32_t alarm_time)
{
	rtc_enter_config_mode();
	RTC_ALRL = (alarm_time & 0x0000ffff);
 8000b22:	4c0b      	ldr	r4, [pc, #44]	; (8000b50 <rtc_set_alarm_time+0x3c>)

	/* Wait until the RTOFF bit is 1 (no RTC register writes ongoing). */
	while ((reg32 = (RTC_CRL & RTC_CRL_RTOFF)) == 0);

	/* Enter configuration mode. */
	RTC_CRL |= RTC_CRL_CNF;
 8000b24:	f043 0310 	orr.w	r3, r3, #16
*/

void rtc_set_alarm_time(uint32_t alarm_time)
{
	rtc_enter_config_mode();
	RTC_ALRL = (alarm_time & 0x0000ffff);
 8000b28:	b285      	uxth	r5, r0
	RTC_ALRH = (alarm_time & 0xffff0000) >> 16;
 8000b2a:	0c00      	lsrs	r0, r0, #16

	/* Wait until the RTOFF bit is 1 (no RTC register writes ongoing). */
	while ((reg32 = (RTC_CRL & RTC_CRL_RTOFF)) == 0);

	/* Enter configuration mode. */
	RTC_CRL |= RTC_CRL_CNF;
 8000b2c:	6013      	str	r3, [r2, #0]
*/

void rtc_set_alarm_time(uint32_t alarm_time)
{
	rtc_enter_config_mode();
	RTC_ALRL = (alarm_time & 0x0000ffff);
 8000b2e:	6025      	str	r5, [r4, #0]
	RTC_ALRH = (alarm_time & 0xffff0000) >> 16;
 8000b30:	6008      	str	r0, [r1, #0]
void rtc_exit_config_mode(void)
{
	uint32_t reg32;

	/* Exit configuration mode. */
	RTC_CRL &= ~RTC_CRL_CNF;
 8000b32:	6813      	ldr	r3, [r2, #0]

	/* Wait until the RTOFF bit is 1 (our RTC register write finished). */
	while ((reg32 = (RTC_CRL & RTC_CRL_RTOFF)) == 0);
 8000b34:	391c      	subs	r1, #28
void rtc_exit_config_mode(void)
{
	uint32_t reg32;

	/* Exit configuration mode. */
	RTC_CRL &= ~RTC_CRL_CNF;
 8000b36:	f023 0310 	bic.w	r3, r3, #16
 8000b3a:	6013      	str	r3, [r2, #0]

	/* Wait until the RTOFF bit is 1 (our RTC register write finished). */
	while ((reg32 = (RTC_CRL & RTC_CRL_RTOFF)) == 0);
 8000b3c:	680b      	ldr	r3, [r1, #0]
 8000b3e:	069b      	lsls	r3, r3, #26
 8000b40:	d5fc      	bpl.n	8000b3c <rtc_set_alarm_time+0x28>
{
	rtc_enter_config_mode();
	RTC_ALRL = (alarm_time & 0x0000ffff);
	RTC_ALRH = (alarm_time & 0xffff0000) >> 16;
	rtc_exit_config_mode();
}
 8000b42:	bc30      	pop	{r4, r5}
 8000b44:	4770      	bx	lr
 8000b46:	bf00      	nop
 8000b48:	40002804 	.word	0x40002804
 8000b4c:	40002820 	.word	0x40002820
 8000b50:	40002824 	.word	0x40002824

08000b54 <rtc_set_prescale_val>:

@param[in] prescale_val uint32_t. 20 bit prescale divider.
*/

void rtc_set_prescale_val(uint32_t prescale_val)
{
 8000b54:	b430      	push	{r4, r5}
void rtc_enter_config_mode(void)
{
	uint32_t reg32;

	/* Wait until the RTOFF bit is 1 (no RTC register writes ongoing). */
	while ((reg32 = (RTC_CRL & RTC_CRL_RTOFF)) == 0);
 8000b56:	4a0c      	ldr	r2, [pc, #48]	; (8000b88 <rtc_set_prescale_val+0x34>)
 8000b58:	6813      	ldr	r3, [r2, #0]
 8000b5a:	0699      	lsls	r1, r3, #26
 8000b5c:	d5fc      	bpl.n	8000b58 <rtc_set_prescale_val+0x4>

	/* Enter configuration mode. */
	RTC_CRL |= RTC_CRL_CNF;
 8000b5e:	6813      	ldr	r3, [r2, #0]

void rtc_set_prescale_val(uint32_t prescale_val)
{
	rtc_enter_config_mode();
	RTC_PRLL = prescale_val & 0x0000ffff;         /* PRL[15:0] */
	RTC_PRLH = (prescale_val & 0x000f0000) >> 16; /* PRL[19:16] */
 8000b60:	490a      	ldr	r1, [pc, #40]	; (8000b8c <rtc_set_prescale_val+0x38>)
*/

void rtc_set_prescale_val(uint32_t prescale_val)
{
	rtc_enter_config_mode();
	RTC_PRLL = prescale_val & 0x0000ffff;         /* PRL[15:0] */
 8000b62:	4c0b      	ldr	r4, [pc, #44]	; (8000b90 <rtc_set_prescale_val+0x3c>)

	/* Wait until the RTOFF bit is 1 (no RTC register writes ongoing). */
	while ((reg32 = (RTC_CRL & RTC_CRL_RTOFF)) == 0);

	/* Enter configuration mode. */
	RTC_CRL |= RTC_CRL_CNF;
 8000b64:	f043 0310 	orr.w	r3, r3, #16
*/

void rtc_set_prescale_val(uint32_t prescale_val)
{
	rtc_enter_config_mode();
	RTC_PRLL = prescale_val & 0x0000ffff;         /* PRL[15:0] */
 8000b68:	b285      	uxth	r5, r0
	RTC_PRLH = (prescale_val & 0x000f0000) >> 16; /* PRL[19:16] */
 8000b6a:	f3c0 4003 	ubfx	r0, r0, #16, #4

	/* Wait until the RTOFF bit is 1 (no RTC register writes ongoing). */
	while ((reg32 = (RTC_CRL & RTC_CRL_RTOFF)) == 0);

	/* Enter configuration mode. */
	RTC_CRL |= RTC_CRL_CNF;
 8000b6e:	6013      	str	r3, [r2, #0]
*/

void rtc_set_prescale_val(uint32_t prescale_val)
{
	rtc_enter_config_mode();
	RTC_PRLL = prescale_val & 0x0000ffff;         /* PRL[15:0] */
 8000b70:	6025      	str	r5, [r4, #0]
	RTC_PRLH = (prescale_val & 0x000f0000) >> 16; /* PRL[19:16] */
 8000b72:	6008      	str	r0, [r1, #0]
void rtc_exit_config_mode(void)
{
	uint32_t reg32;

	/* Exit configuration mode. */
	RTC_CRL &= ~RTC_CRL_CNF;
 8000b74:	6813      	ldr	r3, [r2, #0]

	/* Wait until the RTOFF bit is 1 (our RTC register write finished). */
	while ((reg32 = (RTC_CRL & RTC_CRL_RTOFF)) == 0);
 8000b76:	3904      	subs	r1, #4
void rtc_exit_config_mode(void)
{
	uint32_t reg32;

	/* Exit configuration mode. */
	RTC_CRL &= ~RTC_CRL_CNF;
 8000b78:	f023 0310 	bic.w	r3, r3, #16
 8000b7c:	6013      	str	r3, [r2, #0]

	/* Wait until the RTOFF bit is 1 (our RTC register write finished). */
	while ((reg32 = (RTC_CRL & RTC_CRL_RTOFF)) == 0);
 8000b7e:	680b      	ldr	r3, [r1, #0]
 8000b80:	069b      	lsls	r3, r3, #26
 8000b82:	d5fc      	bpl.n	8000b7e <rtc_set_prescale_val+0x2a>
{
	rtc_enter_config_mode();
	RTC_PRLL = prescale_val & 0x0000ffff;         /* PRL[15:0] */
	RTC_PRLH = (prescale_val & 0x000f0000) >> 16; /* PRL[19:16] */
	rtc_exit_config_mode();
}
 8000b84:	bc30      	pop	{r4, r5}
 8000b86:	4770      	bx	lr
 8000b88:	40002804 	.word	0x40002804
 8000b8c:	40002808 	.word	0x40002808
 8000b90:	4000280c 	.word	0x4000280c

08000b94 <rtc_get_counter_val>:
@returns uint32_t: the 32 bit counter value.
*/

uint32_t rtc_get_counter_val(void)
{
	return (RTC_CNTH << 16) | RTC_CNTL;
 8000b94:	4a03      	ldr	r2, [pc, #12]	; (8000ba4 <rtc_get_counter_val+0x10>)
 8000b96:	4b04      	ldr	r3, [pc, #16]	; (8000ba8 <rtc_get_counter_val+0x14>)
 8000b98:	6810      	ldr	r0, [r2, #0]
 8000b9a:	681b      	ldr	r3, [r3, #0]
}
 8000b9c:	ea43 4000 	orr.w	r0, r3, r0, lsl #16
 8000ba0:	4770      	bx	lr
 8000ba2:	bf00      	nop
 8000ba4:	40002818 	.word	0x40002818
 8000ba8:	4000281c 	.word	0x4000281c

08000bac <rtc_set_counter_val>:

@param[in] uint32_t counter_val: 32 bit time setting for the counter.
*/

void rtc_set_counter_val(uint32_t counter_val)
{
 8000bac:	b430      	push	{r4, r5}
void rtc_enter_config_mode(void)
{
	uint32_t reg32;

	/* Wait until the RTOFF bit is 1 (no RTC register writes ongoing). */
	while ((reg32 = (RTC_CRL & RTC_CRL_RTOFF)) == 0);
 8000bae:	4a0c      	ldr	r2, [pc, #48]	; (8000be0 <rtc_set_counter_val+0x34>)
 8000bb0:	6813      	ldr	r3, [r2, #0]
 8000bb2:	0699      	lsls	r1, r3, #26
 8000bb4:	d5fc      	bpl.n	8000bb0 <rtc_set_counter_val+0x4>

	/* Enter configuration mode. */
	RTC_CRL |= RTC_CRL_CNF;
 8000bb6:	6813      	ldr	r3, [r2, #0]

void rtc_set_counter_val(uint32_t counter_val)
{
	rtc_enter_config_mode();
	RTC_CNTH = (counter_val & 0xffff0000) >> 16; /* CNT[31:16] */
	RTC_CNTL = counter_val & 0x0000ffff;         /* CNT[15:0] */
 8000bb8:	490a      	ldr	r1, [pc, #40]	; (8000be4 <rtc_set_counter_val+0x38>)
*/

void rtc_set_counter_val(uint32_t counter_val)
{
	rtc_enter_config_mode();
	RTC_CNTH = (counter_val & 0xffff0000) >> 16; /* CNT[31:16] */
 8000bba:	4c0b      	ldr	r4, [pc, #44]	; (8000be8 <rtc_set_counter_val+0x3c>)

	/* Wait until the RTOFF bit is 1 (no RTC register writes ongoing). */
	while ((reg32 = (RTC_CRL & RTC_CRL_RTOFF)) == 0);

	/* Enter configuration mode. */
	RTC_CRL |= RTC_CRL_CNF;
 8000bbc:	f043 0310 	orr.w	r3, r3, #16
*/

void rtc_set_counter_val(uint32_t counter_val)
{
	rtc_enter_config_mode();
	RTC_CNTH = (counter_val & 0xffff0000) >> 16; /* CNT[31:16] */
 8000bc0:	0c05      	lsrs	r5, r0, #16
	RTC_CNTL = counter_val & 0x0000ffff;         /* CNT[15:0] */
 8000bc2:	b280      	uxth	r0, r0

	/* Wait until the RTOFF bit is 1 (no RTC register writes ongoing). */
	while ((reg32 = (RTC_CRL & RTC_CRL_RTOFF)) == 0);

	/* Enter configuration mode. */
	RTC_CRL |= RTC_CRL_CNF;
 8000bc4:	6013      	str	r3, [r2, #0]
*/

void rtc_set_counter_val(uint32_t counter_val)
{
	rtc_enter_config_mode();
	RTC_CNTH = (counter_val & 0xffff0000) >> 16; /* CNT[31:16] */
 8000bc6:	6025      	str	r5, [r4, #0]
	RTC_CNTL = counter_val & 0x0000ffff;         /* CNT[15:0] */
 8000bc8:	6008      	str	r0, [r1, #0]
void rtc_exit_config_mode(void)
{
	uint32_t reg32;

	/* Exit configuration mode. */
	RTC_CRL &= ~RTC_CRL_CNF;
 8000bca:	6813      	ldr	r3, [r2, #0]

	/* Wait until the RTOFF bit is 1 (our RTC register write finished). */
	while ((reg32 = (RTC_CRL & RTC_CRL_RTOFF)) == 0);
 8000bcc:	3918      	subs	r1, #24
void rtc_exit_config_mode(void)
{
	uint32_t reg32;

	/* Exit configuration mode. */
	RTC_CRL &= ~RTC_CRL_CNF;
 8000bce:	f023 0310 	bic.w	r3, r3, #16
 8000bd2:	6013      	str	r3, [r2, #0]

	/* Wait until the RTOFF bit is 1 (our RTC register write finished). */
	while ((reg32 = (RTC_CRL & RTC_CRL_RTOFF)) == 0);
 8000bd4:	680b      	ldr	r3, [r1, #0]
 8000bd6:	069b      	lsls	r3, r3, #26
 8000bd8:	d5fc      	bpl.n	8000bd4 <rtc_set_counter_val+0x28>
{
	rtc_enter_config_mode();
	RTC_CNTH = (counter_val & 0xffff0000) >> 16; /* CNT[31:16] */
	RTC_CNTL = counter_val & 0x0000ffff;         /* CNT[15:0] */
	rtc_exit_config_mode();
}
 8000bda:	bc30      	pop	{r4, r5}
 8000bdc:	4770      	bx	lr
 8000bde:	bf00      	nop
 8000be0:	40002804 	.word	0x40002804
 8000be4:	4000281c 	.word	0x4000281c
 8000be8:	40002818 	.word	0x40002818

08000bec <rtc_interrupt_enable>:
void rtc_enter_config_mode(void)
{
	uint32_t reg32;

	/* Wait until the RTOFF bit is 1 (no RTC register writes ongoing). */
	while ((reg32 = (RTC_CRL & RTC_CRL_RTOFF)) == 0);
 8000bec:	4a13      	ldr	r2, [pc, #76]	; (8000c3c <rtc_interrupt_enable+0x50>)
 8000bee:	6813      	ldr	r3, [r2, #0]
 8000bf0:	0699      	lsls	r1, r3, #26
 8000bf2:	d5fc      	bpl.n	8000bee <rtc_interrupt_enable+0x2>

	/* Enter configuration mode. */
	RTC_CRL |= RTC_CRL_CNF;
 8000bf4:	6813      	ldr	r3, [r2, #0]
void rtc_interrupt_enable(rtcflag_t flag_val)
{
	rtc_enter_config_mode();

	/* Set the correct interrupt enable. */
	switch (flag_val) {
 8000bf6:	2801      	cmp	r0, #1

	/* Wait until the RTOFF bit is 1 (no RTC register writes ongoing). */
	while ((reg32 = (RTC_CRL & RTC_CRL_RTOFF)) == 0);

	/* Enter configuration mode. */
	RTC_CRL |= RTC_CRL_CNF;
 8000bf8:	f043 0310 	orr.w	r3, r3, #16
 8000bfc:	6013      	str	r3, [r2, #0]
void rtc_interrupt_enable(rtcflag_t flag_val)
{
	rtc_enter_config_mode();

	/* Set the correct interrupt enable. */
	switch (flag_val) {
 8000bfe:	d011      	beq.n	8000c24 <rtc_interrupt_enable+0x38>
 8000c00:	b1b0      	cbz	r0, 8000c30 <rtc_interrupt_enable+0x44>
 8000c02:	2802      	cmp	r0, #2
 8000c04:	d104      	bne.n	8000c10 <rtc_interrupt_enable+0x24>
		break;
	case RTC_ALR:
		RTC_CRH |= RTC_CRH_ALRIE;
		break;
	case RTC_OW:
		RTC_CRH |= RTC_CRH_OWIE;
 8000c06:	4a0e      	ldr	r2, [pc, #56]	; (8000c40 <rtc_interrupt_enable+0x54>)
 8000c08:	6813      	ldr	r3, [r2, #0]
 8000c0a:	f043 0304 	orr.w	r3, r3, #4
 8000c0e:	6013      	str	r3, [r2, #0]
void rtc_exit_config_mode(void)
{
	uint32_t reg32;

	/* Exit configuration mode. */
	RTC_CRL &= ~RTC_CRL_CNF;
 8000c10:	4b0a      	ldr	r3, [pc, #40]	; (8000c3c <rtc_interrupt_enable+0x50>)

	/* Wait until the RTOFF bit is 1 (our RTC register write finished). */
	while ((reg32 = (RTC_CRL & RTC_CRL_RTOFF)) == 0);
 8000c12:	461a      	mov	r2, r3
void rtc_exit_config_mode(void)
{
	uint32_t reg32;

	/* Exit configuration mode. */
	RTC_CRL &= ~RTC_CRL_CNF;
 8000c14:	6819      	ldr	r1, [r3, #0]
 8000c16:	f021 0110 	bic.w	r1, r1, #16
 8000c1a:	6019      	str	r1, [r3, #0]

	/* Wait until the RTOFF bit is 1 (our RTC register write finished). */
	while ((reg32 = (RTC_CRL & RTC_CRL_RTOFF)) == 0);
 8000c1c:	6813      	ldr	r3, [r2, #0]
 8000c1e:	069b      	lsls	r3, r3, #26
 8000c20:	d5fc      	bpl.n	8000c1c <rtc_interrupt_enable+0x30>
		RTC_CRH |= RTC_CRH_OWIE;
		break;
	}

	rtc_exit_config_mode();
}
 8000c22:	4770      	bx	lr
	switch (flag_val) {
	case RTC_SEC:
		RTC_CRH |= RTC_CRH_SECIE;
		break;
	case RTC_ALR:
		RTC_CRH |= RTC_CRH_ALRIE;
 8000c24:	4a06      	ldr	r2, [pc, #24]	; (8000c40 <rtc_interrupt_enable+0x54>)
 8000c26:	6813      	ldr	r3, [r2, #0]
 8000c28:	f043 0302 	orr.w	r3, r3, #2
 8000c2c:	6013      	str	r3, [r2, #0]
		break;
 8000c2e:	e7ef      	b.n	8000c10 <rtc_interrupt_enable+0x24>
	rtc_enter_config_mode();

	/* Set the correct interrupt enable. */
	switch (flag_val) {
	case RTC_SEC:
		RTC_CRH |= RTC_CRH_SECIE;
 8000c30:	4a03      	ldr	r2, [pc, #12]	; (8000c40 <rtc_interrupt_enable+0x54>)
 8000c32:	6813      	ldr	r3, [r2, #0]
 8000c34:	f043 0301 	orr.w	r3, r3, #1
 8000c38:	6013      	str	r3, [r2, #0]
		break;
 8000c3a:	e7e9      	b.n	8000c10 <rtc_interrupt_enable+0x24>
 8000c3c:	40002804 	.word	0x40002804
 8000c40:	40002800 	.word	0x40002800

08000c44 <rtc_interrupt_disable>:
void rtc_enter_config_mode(void)
{
	uint32_t reg32;

	/* Wait until the RTOFF bit is 1 (no RTC register writes ongoing). */
	while ((reg32 = (RTC_CRL & RTC_CRL_RTOFF)) == 0);
 8000c44:	4a13      	ldr	r2, [pc, #76]	; (8000c94 <rtc_interrupt_disable+0x50>)
 8000c46:	6813      	ldr	r3, [r2, #0]
 8000c48:	0699      	lsls	r1, r3, #26
 8000c4a:	d5fc      	bpl.n	8000c46 <rtc_interrupt_disable+0x2>

	/* Enter configuration mode. */
	RTC_CRL |= RTC_CRL_CNF;
 8000c4c:	6813      	ldr	r3, [r2, #0]
void rtc_interrupt_disable(rtcflag_t flag_val)
{
	rtc_enter_config_mode();

	/* Disable the correct interrupt enable. */
	switch (flag_val) {
 8000c4e:	2801      	cmp	r0, #1

	/* Wait until the RTOFF bit is 1 (no RTC register writes ongoing). */
	while ((reg32 = (RTC_CRL & RTC_CRL_RTOFF)) == 0);

	/* Enter configuration mode. */
	RTC_CRL |= RTC_CRL_CNF;
 8000c50:	f043 0310 	orr.w	r3, r3, #16
 8000c54:	6013      	str	r3, [r2, #0]
void rtc_interrupt_disable(rtcflag_t flag_val)
{
	rtc_enter_config_mode();

	/* Disable the correct interrupt enable. */
	switch (flag_val) {
 8000c56:	d011      	beq.n	8000c7c <rtc_interrupt_disable+0x38>
 8000c58:	b1b0      	cbz	r0, 8000c88 <rtc_interrupt_disable+0x44>
 8000c5a:	2802      	cmp	r0, #2
 8000c5c:	d104      	bne.n	8000c68 <rtc_interrupt_disable+0x24>
		break;
	case RTC_ALR:
		RTC_CRH &= ~RTC_CRH_ALRIE;
		break;
	case RTC_OW:
		RTC_CRH &= ~RTC_CRH_OWIE;
 8000c5e:	4a0e      	ldr	r2, [pc, #56]	; (8000c98 <rtc_interrupt_disable+0x54>)
 8000c60:	6813      	ldr	r3, [r2, #0]
 8000c62:	f023 0304 	bic.w	r3, r3, #4
 8000c66:	6013      	str	r3, [r2, #0]
void rtc_exit_config_mode(void)
{
	uint32_t reg32;

	/* Exit configuration mode. */
	RTC_CRL &= ~RTC_CRL_CNF;
 8000c68:	4b0a      	ldr	r3, [pc, #40]	; (8000c94 <rtc_interrupt_disable+0x50>)

	/* Wait until the RTOFF bit is 1 (our RTC register write finished). */
	while ((reg32 = (RTC_CRL & RTC_CRL_RTOFF)) == 0);
 8000c6a:	461a      	mov	r2, r3
void rtc_exit_config_mode(void)
{
	uint32_t reg32;

	/* Exit configuration mode. */
	RTC_CRL &= ~RTC_CRL_CNF;
 8000c6c:	6819      	ldr	r1, [r3, #0]
 8000c6e:	f021 0110 	bic.w	r1, r1, #16
 8000c72:	6019      	str	r1, [r3, #0]

	/* Wait until the RTOFF bit is 1 (our RTC register write finished). */
	while ((reg32 = (RTC_CRL & RTC_CRL_RTOFF)) == 0);
 8000c74:	6813      	ldr	r3, [r2, #0]
 8000c76:	069b      	lsls	r3, r3, #26
 8000c78:	d5fc      	bpl.n	8000c74 <rtc_interrupt_disable+0x30>
		RTC_CRH &= ~RTC_CRH_OWIE;
		break;
	}

	rtc_exit_config_mode();
}
 8000c7a:	4770      	bx	lr
	switch (flag_val) {
	case RTC_SEC:
		RTC_CRH &= ~RTC_CRH_SECIE;
		break;
	case RTC_ALR:
		RTC_CRH &= ~RTC_CRH_ALRIE;
 8000c7c:	4a06      	ldr	r2, [pc, #24]	; (8000c98 <rtc_interrupt_disable+0x54>)
 8000c7e:	6813      	ldr	r3, [r2, #0]
 8000c80:	f023 0302 	bic.w	r3, r3, #2
 8000c84:	6013      	str	r3, [r2, #0]
		break;
 8000c86:	e7ef      	b.n	8000c68 <rtc_interrupt_disable+0x24>
	rtc_enter_config_mode();

	/* Disable the correct interrupt enable. */
	switch (flag_val) {
	case RTC_SEC:
		RTC_CRH &= ~RTC_CRH_SECIE;
 8000c88:	4a03      	ldr	r2, [pc, #12]	; (8000c98 <rtc_interrupt_disable+0x54>)
 8000c8a:	6813      	ldr	r3, [r2, #0]
 8000c8c:	f023 0301 	bic.w	r3, r3, #1
 8000c90:	6013      	str	r3, [r2, #0]
		break;
 8000c92:	e7e9      	b.n	8000c68 <rtc_interrupt_disable+0x24>
 8000c94:	40002804 	.word	0x40002804
 8000c98:	40002800 	.word	0x40002800

08000c9c <rtc_clear_flag>:
void rtc_clear_flag(rtcflag_t flag_val)
{
	/* Configuration mode not needed. */

	/* Clear the correct flag. */
	switch (flag_val) {
 8000c9c:	2801      	cmp	r0, #1
 8000c9e:	d009      	beq.n	8000cb4 <rtc_clear_flag+0x18>
 8000ca0:	b170      	cbz	r0, 8000cc0 <rtc_clear_flag+0x24>
 8000ca2:	2802      	cmp	r0, #2
 8000ca4:	d105      	bne.n	8000cb2 <rtc_clear_flag+0x16>
		break;
	case RTC_ALR:
		RTC_CRL &= ~RTC_CRL_ALRF;
		break;
	case RTC_OW:
		RTC_CRL &= ~RTC_CRL_OWF;
 8000ca6:	4a09      	ldr	r2, [pc, #36]	; (8000ccc <rtc_clear_flag+0x30>)
 8000ca8:	6813      	ldr	r3, [r2, #0]
 8000caa:	f023 0304 	bic.w	r3, r3, #4
 8000cae:	6013      	str	r3, [r2, #0]
		break;
	}
}
 8000cb0:	4770      	bx	lr
 8000cb2:	4770      	bx	lr
	switch (flag_val) {
	case RTC_SEC:
		RTC_CRL &= ~RTC_CRL_SECF;
		break;
	case RTC_ALR:
		RTC_CRL &= ~RTC_CRL_ALRF;
 8000cb4:	4a05      	ldr	r2, [pc, #20]	; (8000ccc <rtc_clear_flag+0x30>)
 8000cb6:	6813      	ldr	r3, [r2, #0]
 8000cb8:	f023 0302 	bic.w	r3, r3, #2
 8000cbc:	6013      	str	r3, [r2, #0]
		break;
 8000cbe:	4770      	bx	lr
	/* Configuration mode not needed. */

	/* Clear the correct flag. */
	switch (flag_val) {
	case RTC_SEC:
		RTC_CRL &= ~RTC_CRL_SECF;
 8000cc0:	4a02      	ldr	r2, [pc, #8]	; (8000ccc <rtc_clear_flag+0x30>)
 8000cc2:	6813      	ldr	r3, [r2, #0]
 8000cc4:	f023 0301 	bic.w	r3, r3, #1
 8000cc8:	6013      	str	r3, [r2, #0]
		break;
 8000cca:	4770      	bx	lr
 8000ccc:	40002804 	.word	0x40002804

08000cd0 <rtc_check_flag>:
uint32_t rtc_check_flag(rtcflag_t flag_val)
{
	uint32_t reg32;

	/* Read correct flag. */
	switch (flag_val) {
 8000cd0:	2801      	cmp	r0, #1
 8000cd2:	d009      	beq.n	8000ce8 <rtc_check_flag+0x18>
 8000cd4:	b168      	cbz	r0, 8000cf2 <rtc_check_flag+0x22>
 8000cd6:	2802      	cmp	r0, #2
 8000cd8:	d104      	bne.n	8000ce4 <rtc_check_flag+0x14>
		break;
	case RTC_ALR:
		reg32 = RTC_CRL & RTC_CRL_ALRF;
		break;
	case RTC_OW:
		reg32 = RTC_CRL & RTC_CRL_OWF;
 8000cda:	4b08      	ldr	r3, [pc, #32]	; (8000cfc <rtc_check_flag+0x2c>)
 8000cdc:	6818      	ldr	r0, [r3, #0]
 8000cde:	f000 0004 	and.w	r0, r0, #4
		reg32 = 0;
		break;
	}

	return reg32;
}
 8000ce2:	4770      	bx	lr
		break;
	case RTC_OW:
		reg32 = RTC_CRL & RTC_CRL_OWF;
		break;
	default:
		reg32 = 0;
 8000ce4:	2000      	movs	r0, #0
 8000ce6:	4770      	bx	lr
	switch (flag_val) {
	case RTC_SEC:
		reg32 = RTC_CRL & RTC_CRL_SECF;
		break;
	case RTC_ALR:
		reg32 = RTC_CRL & RTC_CRL_ALRF;
 8000ce8:	4b04      	ldr	r3, [pc, #16]	; (8000cfc <rtc_check_flag+0x2c>)
 8000cea:	6818      	ldr	r0, [r3, #0]
 8000cec:	f000 0002 	and.w	r0, r0, #2
		break;
 8000cf0:	4770      	bx	lr
	uint32_t reg32;

	/* Read correct flag. */
	switch (flag_val) {
	case RTC_SEC:
		reg32 = RTC_CRL & RTC_CRL_SECF;
 8000cf2:	4b02      	ldr	r3, [pc, #8]	; (8000cfc <rtc_check_flag+0x2c>)
 8000cf4:	6818      	ldr	r0, [r3, #0]
 8000cf6:	f000 0001 	and.w	r0, r0, #1
		break;
 8000cfa:	4770      	bx	lr
 8000cfc:	40002804 	.word	0x40002804

08000d00 <st_usbfs_v1_usbd_init>:
	.poll = st_usbfs_poll,
};

/** Initialize the USB device controller hardware of the STM32. */
static usbd_device *st_usbfs_v1_usbd_init(void)
{
 8000d00:	b510      	push	{r4, lr}
	rcc_periph_clock_enable(RCC_USB);
 8000d02:	f240 3097 	movw	r0, #919	; 0x397
 8000d06:	f7ff fc69 	bl	80005dc <rcc_periph_clock_enable>
	SET_REG(USB_CNTR_REG, 0);
 8000d0a:	2300      	movs	r3, #0
	SET_REG(USB_BTABLE_REG, 0);
	SET_REG(USB_ISTR_REG, 0);

	/* Enable RESET, SUSPEND, RESUME and CTR interrupts. */
	SET_REG(USB_CNTR_REG, USB_CNTR_RESETM | USB_CNTR_CTRM |
 8000d0c:	f44f 411c 	mov.w	r1, #39936	; 0x9c00

/** Initialize the USB device controller hardware of the STM32. */
static usbd_device *st_usbfs_v1_usbd_init(void)
{
	rcc_periph_clock_enable(RCC_USB);
	SET_REG(USB_CNTR_REG, 0);
 8000d10:	4a04      	ldr	r2, [pc, #16]	; (8000d24 <st_usbfs_v1_usbd_init+0x24>)
	SET_REG(USB_BTABLE_REG, 0);
 8000d12:	4805      	ldr	r0, [pc, #20]	; (8000d28 <st_usbfs_v1_usbd_init+0x28>)
	SET_REG(USB_ISTR_REG, 0);
 8000d14:	4c05      	ldr	r4, [pc, #20]	; (8000d2c <st_usbfs_v1_usbd_init+0x2c>)

/** Initialize the USB device controller hardware of the STM32. */
static usbd_device *st_usbfs_v1_usbd_init(void)
{
	rcc_periph_clock_enable(RCC_USB);
	SET_REG(USB_CNTR_REG, 0);
 8000d16:	6013      	str	r3, [r2, #0]
	SET_REG(USB_BTABLE_REG, 0);
 8000d18:	6003      	str	r3, [r0, #0]
	SET_REG(USB_ISTR_REG, 0);
 8000d1a:	6023      	str	r3, [r4, #0]

	/* Enable RESET, SUSPEND, RESUME and CTR interrupts. */
	SET_REG(USB_CNTR_REG, USB_CNTR_RESETM | USB_CNTR_CTRM |
		USB_CNTR_SUSPM | USB_CNTR_WKUPM);
	return &st_usbfs_dev;
}
 8000d1c:	4804      	ldr	r0, [pc, #16]	; (8000d30 <st_usbfs_v1_usbd_init+0x30>)
	SET_REG(USB_CNTR_REG, 0);
	SET_REG(USB_BTABLE_REG, 0);
	SET_REG(USB_ISTR_REG, 0);

	/* Enable RESET, SUSPEND, RESUME and CTR interrupts. */
	SET_REG(USB_CNTR_REG, USB_CNTR_RESETM | USB_CNTR_CTRM |
 8000d1e:	6011      	str	r1, [r2, #0]
		USB_CNTR_SUSPM | USB_CNTR_WKUPM);
	return &st_usbfs_dev;
}
 8000d20:	bd10      	pop	{r4, pc}
 8000d22:	bf00      	nop
 8000d24:	40005c40 	.word	0x40005c40
 8000d28:	40005c50 	.word	0x40005c50
 8000d2c:	40005c44 	.word	0x40005c44
 8000d30:	20000db4 	.word	0x20000db4

08000d34 <st_usbfs_copy_to_pm>:

void st_usbfs_copy_to_pm(volatile void *vPM, const void *buf, uint16_t len)
{
	const uint16_t *lbuf = buf;
	volatile uint32_t *PM = vPM;
	for (len = (len + 1) >> 1; len; len--) {
 8000d34:	3201      	adds	r2, #1
 8000d36:	1052      	asrs	r2, r2, #1
 8000d38:	b293      	uxth	r3, r2
 8000d3a:	b152      	cbz	r2, 8000d52 <st_usbfs_copy_to_pm+0x1e>
 8000d3c:	1e5a      	subs	r2, r3, #1
 8000d3e:	b292      	uxth	r2, r2
 8000d40:	3201      	adds	r2, #1
 8000d42:	eb01 0242 	add.w	r2, r1, r2, lsl #1
		*PM++ = *lbuf++;
 8000d46:	f831 3b02 	ldrh.w	r3, [r1], #2

void st_usbfs_copy_to_pm(volatile void *vPM, const void *buf, uint16_t len)
{
	const uint16_t *lbuf = buf;
	volatile uint32_t *PM = vPM;
	for (len = (len + 1) >> 1; len; len--) {
 8000d4a:	4291      	cmp	r1, r2
		*PM++ = *lbuf++;
 8000d4c:	f840 3b04 	str.w	r3, [r0], #4

void st_usbfs_copy_to_pm(volatile void *vPM, const void *buf, uint16_t len)
{
	const uint16_t *lbuf = buf;
	volatile uint32_t *PM = vPM;
	for (len = (len + 1) >> 1; len; len--) {
 8000d50:	d1f9      	bne.n	8000d46 <st_usbfs_copy_to_pm+0x12>
		*PM++ = *lbuf++;
	}
}
 8000d52:	4770      	bx	lr

08000d54 <st_usbfs_copy_from_pm>:
 * @param buf Source pointer to data buffer.
 * @param vPM Destination pointer into packet memory.
 * @param len Number of bytes to copy.
 */
void st_usbfs_copy_from_pm(void *buf, const volatile void *vPM, uint16_t len)
{
 8000d54:	b470      	push	{r4, r5, r6}
	uint16_t *lbuf = buf;
	const volatile uint16_t *PM = vPM;
	uint8_t odd = len & 1;
 8000d56:	f002 0601 	and.w	r6, r2, #1

	for (len >>= 1; len; PM += 2, lbuf++, len--) {
 8000d5a:	0852      	lsrs	r2, r2, #1
 8000d5c:	d012      	beq.n	8000d84 <st_usbfs_copy_from_pm+0x30>
 * @param len Number of bytes to copy.
 */
void st_usbfs_copy_from_pm(void *buf, const volatile void *vPM, uint16_t len)
{
	uint16_t *lbuf = buf;
	const volatile uint16_t *PM = vPM;
 8000d5e:	460b      	mov	r3, r1
 8000d60:	3a01      	subs	r2, #1
 8000d62:	b294      	uxth	r4, r2
 8000d64:	3401      	adds	r4, #1
 8000d66:	eb00 0544 	add.w	r5, r0, r4, lsl #1
	uint8_t odd = len & 1;

	for (len >>= 1; len; PM += 2, lbuf++, len--) {
		*lbuf = *PM;
 8000d6a:	f833 2b04 	ldrh.w	r2, [r3], #4
 8000d6e:	f820 2b02 	strh.w	r2, [r0], #2
{
	uint16_t *lbuf = buf;
	const volatile uint16_t *PM = vPM;
	uint8_t odd = len & 1;

	for (len >>= 1; len; PM += 2, lbuf++, len--) {
 8000d72:	42a8      	cmp	r0, r5
 8000d74:	d1f9      	bne.n	8000d6a <st_usbfs_copy_from_pm+0x16>
 8000d76:	eb01 0184 	add.w	r1, r1, r4, lsl #2
		*lbuf = *PM;
	}

	if (odd) {
 8000d7a:	b10e      	cbz	r6, 8000d80 <st_usbfs_copy_from_pm+0x2c>
		*(uint8_t *) lbuf = *(uint8_t *) PM;
 8000d7c:	780b      	ldrb	r3, [r1, #0]
 8000d7e:	702b      	strb	r3, [r5, #0]
	}
}
 8000d80:	bc70      	pop	{r4, r5, r6}
 8000d82:	4770      	bx	lr
 * @param vPM Destination pointer into packet memory.
 * @param len Number of bytes to copy.
 */
void st_usbfs_copy_from_pm(void *buf, const volatile void *vPM, uint16_t len)
{
	uint16_t *lbuf = buf;
 8000d84:	4605      	mov	r5, r0
 8000d86:	e7f8      	b.n	8000d7a <st_usbfs_copy_from_pm+0x26>

08000d88 <usbd_init>:
 8000d88:	e92d 47f0 	stmdb	sp!, {r4, r5, r6, r7, r8, r9, sl, lr}
 8000d8c:	4680      	mov	r8, r0
 8000d8e:	6800      	ldr	r0, [r0, #0]
 8000d90:	468a      	mov	sl, r1
 8000d92:	4617      	mov	r7, r2
 8000d94:	461e      	mov	r6, r3
 8000d96:	f8bd 9028 	ldrh.w	r9, [sp, #40]	; 0x28
 8000d9a:	4780      	blx	r0
 8000d9c:	2500      	movs	r5, #0
 8000d9e:	6086      	str	r6, [r0, #8]
 8000da0:	9e08      	ldr	r6, [sp, #32]
 8000da2:	4b0b      	ldr	r3, [pc, #44]	; (8000dd0 <usbd_init+0x48>)
 8000da4:	490b      	ldr	r1, [pc, #44]	; (8000dd4 <usbd_init+0x4c>)
 8000da6:	4a0c      	ldr	r2, [pc, #48]	; (8000dd8 <usbd_init+0x50>)
 8000da8:	60c6      	str	r6, [r0, #12]
 8000daa:	9e09      	ldr	r6, [sp, #36]	; 0x24
 8000dac:	f8c0 a000 	str.w	sl, [r0]
 8000db0:	f8c0 80dc 	str.w	r8, [r0, #220]	; 0xdc
 8000db4:	6047      	str	r7, [r0, #4]
 8000db6:	6106      	str	r6, [r0, #16]
 8000db8:	f8a0 9014 	strh.w	r9, [r0, #20]
 8000dbc:	e9c0 131b 	strd	r1, r3, [r0, #108]	; 0x6c
 8000dc0:	6682      	str	r2, [r0, #104]	; 0x68
 8000dc2:	e9c0 5532 	strd	r5, r5, [r0, #200]	; 0xc8
 8000dc6:	e9c0 5534 	strd	r5, r5, [r0, #208]	; 0xd0
 8000dca:	e8bd 87f0 	ldmia.w	sp!, {r4, r5, r6, r7, r8, r9, sl, pc}
 8000dce:	bf00      	nop
 8000dd0:	08001015 	.word	0x08001015
 8000dd4:	08001079 	.word	0x08001079
 8000dd8:	08001119 	.word	0x08001119

08000ddc <_usbd_reset>:
{
	usbd_dev->user_callback_sof = callback;
}

void _usbd_reset(usbd_device *usbd_dev)
{
 8000ddc:	b570      	push	{r4, r5, r6, lr}
	usbd_dev->current_address = 0;
 8000dde:	2500      	movs	r5, #0
{
	usbd_dev->user_callback_sof = callback;
}

void _usbd_reset(usbd_device *usbd_dev)
{
 8000de0:	4604      	mov	r4, r0
	usbd_dev->current_address = 0;
	usbd_dev->current_config = 0;
	usbd_ep_setup(usbd_dev, 0, USB_ENDPOINT_ATTR_CONTROL, usbd_dev->desc->bMaxPacketSize0, NULL);
 8000de2:	6803      	ldr	r3, [r0, #0]
	usbd_dev->user_callback_sof = callback;
}

void _usbd_reset(usbd_device *usbd_dev)
{
	usbd_dev->current_address = 0;
 8000de4:	82c5      	strh	r5, [r0, #22]
}

void usbd_ep_setup(usbd_device *usbd_dev, uint8_t addr, uint8_t type,
		   uint16_t max_size, usbd_endpoint_callback callback)
{
	usbd_dev->driver->ep_setup(usbd_dev, addr, type, max_size, callback);
 8000de6:	f8d0 20dc 	ldr.w	r2, [r0, #220]	; 0xdc
{
	usbd_dev->user_callback_sof = callback;
}

void _usbd_reset(usbd_device *usbd_dev)
{
 8000dea:	b082      	sub	sp, #8
}

void usbd_ep_setup(usbd_device *usbd_dev, uint8_t addr, uint8_t type,
		   uint16_t max_size, usbd_endpoint_callback callback)
{
	usbd_dev->driver->ep_setup(usbd_dev, addr, type, max_size, callback);
 8000dec:	79db      	ldrb	r3, [r3, #7]
 8000dee:	9500      	str	r5, [sp, #0]
 8000df0:	6896      	ldr	r6, [r2, #8]
 8000df2:	4629      	mov	r1, r5
 8000df4:	462a      	mov	r2, r5
 8000df6:	47b0      	blx	r6
void _usbd_reset(usbd_device *usbd_dev)
{
	usbd_dev->current_address = 0;
	usbd_dev->current_config = 0;
	usbd_ep_setup(usbd_dev, 0, USB_ENDPOINT_ATTR_CONTROL, usbd_dev->desc->bMaxPacketSize0, NULL);
	usbd_dev->driver->set_address(usbd_dev, 0);
 8000df8:	f8d4 30dc 	ldr.w	r3, [r4, #220]	; 0xdc
 8000dfc:	4629      	mov	r1, r5
 8000dfe:	685b      	ldr	r3, [r3, #4]
 8000e00:	4620      	mov	r0, r4
 8000e02:	4798      	blx	r3

	if (usbd_dev->user_callback_reset) {
 8000e04:	69e3      	ldr	r3, [r4, #28]
 8000e06:	b11b      	cbz	r3, 8000e10 <_usbd_reset+0x34>
		usbd_dev->user_callback_reset();
	}
}
 8000e08:	b002      	add	sp, #8
 8000e0a:	e8bd 4070 	ldmia.w	sp!, {r4, r5, r6, lr}
	usbd_dev->current_config = 0;
	usbd_ep_setup(usbd_dev, 0, USB_ENDPOINT_ATTR_CONTROL, usbd_dev->desc->bMaxPacketSize0, NULL);
	usbd_dev->driver->set_address(usbd_dev, 0);

	if (usbd_dev->user_callback_reset) {
		usbd_dev->user_callback_reset();
 8000e0e:	4718      	bx	r3
	}
}
 8000e10:	b002      	add	sp, #8
 8000e12:	bd70      	pop	{r4, r5, r6, pc}

08000e14 <usbd_poll>:

/* Functions to wrap the low-level driver */
void usbd_poll(usbd_device *usbd_dev)
{
	usbd_dev->driver->poll(usbd_dev);
 8000e14:	f8d0 30dc 	ldr.w	r3, [r0, #220]	; 0xdc
 8000e18:	6a5b      	ldr	r3, [r3, #36]	; 0x24
 8000e1a:	4718      	bx	r3

08000e1c <usbd_ep_setup>:
	}
}

void usbd_ep_setup(usbd_device *usbd_dev, uint8_t addr, uint8_t type,
		   uint16_t max_size, usbd_endpoint_callback callback)
{
 8000e1c:	b410      	push	{r4}
	usbd_dev->driver->ep_setup(usbd_dev, addr, type, max_size, callback);
 8000e1e:	f8d0 40dc 	ldr.w	r4, [r0, #220]	; 0xdc
 8000e22:	68a4      	ldr	r4, [r4, #8]
 8000e24:	46a4      	mov	ip, r4
}
 8000e26:	bc10      	pop	{r4}
}

void usbd_ep_setup(usbd_device *usbd_dev, uint8_t addr, uint8_t type,
		   uint16_t max_size, usbd_endpoint_callback callback)
{
	usbd_dev->driver->ep_setup(usbd_dev, addr, type, max_size, callback);
 8000e28:	4760      	bx	ip
 8000e2a:	bf00      	nop

08000e2c <usbd_ep_write_packet>:
}

uint16_t usbd_ep_write_packet(usbd_device *usbd_dev, uint8_t addr,
			 const void *buf, uint16_t len)
{
 8000e2c:	b410      	push	{r4}
	return usbd_dev->driver->ep_write_packet(usbd_dev, addr, buf, len);
 8000e2e:	f8d0 40dc 	ldr.w	r4, [r0, #220]	; 0xdc
 8000e32:	69e4      	ldr	r4, [r4, #28]
 8000e34:	46a4      	mov	ip, r4
}
 8000e36:	bc10      	pop	{r4}
}

uint16_t usbd_ep_write_packet(usbd_device *usbd_dev, uint8_t addr,
			 const void *buf, uint16_t len)
{
	return usbd_dev->driver->ep_write_packet(usbd_dev, addr, buf, len);
 8000e38:	4760      	bx	ip
 8000e3a:	bf00      	nop

08000e3c <usbd_ep_read_packet>:
}

uint16_t usbd_ep_read_packet(usbd_device *usbd_dev, uint8_t addr, void *buf,
			     uint16_t len)
{
 8000e3c:	b410      	push	{r4}
	return usbd_dev->driver->ep_read_packet(usbd_dev, addr, buf, len);
 8000e3e:	f8d0 40dc 	ldr.w	r4, [r0, #220]	; 0xdc
 8000e42:	6a24      	ldr	r4, [r4, #32]
 8000e44:	46a4      	mov	ip, r4
}
 8000e46:	bc10      	pop	{r4}
}

uint16_t usbd_ep_read_packet(usbd_device *usbd_dev, uint8_t addr, void *buf,
			     uint16_t len)
{
	return usbd_dev->driver->ep_read_packet(usbd_dev, addr, buf, len);
 8000e48:	4760      	bx	ip
 8000e4a:	bf00      	nop

08000e4c <usbd_ep_stall_set>:
}

void usbd_ep_stall_set(usbd_device *usbd_dev, uint8_t addr, uint8_t stall)
{
	usbd_dev->driver->ep_stall_set(usbd_dev, addr, stall);
 8000e4c:	f8d0 30dc 	ldr.w	r3, [r0, #220]	; 0xdc
 8000e50:	691b      	ldr	r3, [r3, #16]
 8000e52:	4718      	bx	r3

08000e54 <usbd_ep_stall_get>:
}

uint8_t usbd_ep_stall_get(usbd_device *usbd_dev, uint8_t addr)
{
	return usbd_dev->driver->ep_stall_get(usbd_dev, addr);
 8000e54:	f8d0 30dc 	ldr.w	r3, [r0, #220]	; 0xdc
 8000e58:	699b      	ldr	r3, [r3, #24]
 8000e5a:	4718      	bx	r3

08000e5c <usbd_ep_nak_set>:
}

void usbd_ep_nak_set(usbd_device *usbd_dev, uint8_t addr, uint8_t nak)
{
	usbd_dev->driver->ep_nak_set(usbd_dev, addr, nak);
 8000e5c:	f8d0 30dc 	ldr.w	r3, [r0, #220]	; 0xdc
 8000e60:	695b      	ldr	r3, [r3, #20]
 8000e62:	4718      	bx	r3

08000e64 <usb_control_send_chunk>:

	return -1;
}

static void usb_control_send_chunk(usbd_device *usbd_dev)
{
 8000e64:	b510      	push	{r4, lr}
	if (usbd_dev->desc->bMaxPacketSize0 <
 8000e66:	6802      	ldr	r2, [r0, #0]
			usbd_dev->control_state.ctrl_len) {
 8000e68:	8f83      	ldrh	r3, [r0, #60]	; 0x3c
	return -1;
}

static void usb_control_send_chunk(usbd_device *usbd_dev)
{
	if (usbd_dev->desc->bMaxPacketSize0 <
 8000e6a:	79d1      	ldrb	r1, [r2, #7]

	return -1;
}

static void usb_control_send_chunk(usbd_device *usbd_dev)
{
 8000e6c:	4604      	mov	r4, r0
	if (usbd_dev->desc->bMaxPacketSize0 <
 8000e6e:	4299      	cmp	r1, r3
 8000e70:	6b82      	ldr	r2, [r0, #56]	; 0x38
 8000e72:	d20f      	bcs.n	8000e94 <usb_control_send_chunk+0x30>
			usbd_dev->control_state.ctrl_len) {
		/* Data stage, normal transmission */
		usbd_ep_write_packet(usbd_dev, 0,
 8000e74:	460b      	mov	r3, r1
 8000e76:	2100      	movs	r1, #0
 8000e78:	f7ff ffd8 	bl	8000e2c <usbd_ep_write_packet>
				     usbd_dev->control_state.ctrl_buf,
				     usbd_dev->desc->bMaxPacketSize0);
		usbd_dev->control_state.state = DATA_IN;
 8000e7c:	2202      	movs	r2, #2
		usbd_dev->control_state.ctrl_buf +=
			usbd_dev->desc->bMaxPacketSize0;
 8000e7e:	6823      	ldr	r3, [r4, #0]
			usbd_dev->control_state.ctrl_len) {
		/* Data stage, normal transmission */
		usbd_ep_write_packet(usbd_dev, 0,
				     usbd_dev->control_state.ctrl_buf,
				     usbd_dev->desc->bMaxPacketSize0);
		usbd_dev->control_state.state = DATA_IN;
 8000e80:	f884 202c 	strb.w	r2, [r4, #44]	; 0x2c
		usbd_dev->control_state.ctrl_buf +=
			usbd_dev->desc->bMaxPacketSize0;
 8000e84:	79d9      	ldrb	r1, [r3, #7]
		/* Data stage, normal transmission */
		usbd_ep_write_packet(usbd_dev, 0,
				     usbd_dev->control_state.ctrl_buf,
				     usbd_dev->desc->bMaxPacketSize0);
		usbd_dev->control_state.state = DATA_IN;
		usbd_dev->control_state.ctrl_buf +=
 8000e86:	6ba2      	ldr	r2, [r4, #56]	; 0x38
			usbd_dev->desc->bMaxPacketSize0;
		usbd_dev->control_state.ctrl_len -=
 8000e88:	8fa3      	ldrh	r3, [r4, #60]	; 0x3c
		/* Data stage, normal transmission */
		usbd_ep_write_packet(usbd_dev, 0,
				     usbd_dev->control_state.ctrl_buf,
				     usbd_dev->desc->bMaxPacketSize0);
		usbd_dev->control_state.state = DATA_IN;
		usbd_dev->control_state.ctrl_buf +=
 8000e8a:	440a      	add	r2, r1
			usbd_dev->desc->bMaxPacketSize0;
		usbd_dev->control_state.ctrl_len -=
 8000e8c:	1a5b      	subs	r3, r3, r1
		/* Data stage, normal transmission */
		usbd_ep_write_packet(usbd_dev, 0,
				     usbd_dev->control_state.ctrl_buf,
				     usbd_dev->desc->bMaxPacketSize0);
		usbd_dev->control_state.state = DATA_IN;
		usbd_dev->control_state.ctrl_buf +=
 8000e8e:	63a2      	str	r2, [r4, #56]	; 0x38
			usbd_dev->desc->bMaxPacketSize0;
		usbd_dev->control_state.ctrl_len -=
 8000e90:	87a3      	strh	r3, [r4, #60]	; 0x3c
			DATA_IN : LAST_DATA_IN;
		usbd_dev->control_state.needs_zlp = false;
		usbd_dev->control_state.ctrl_len = 0;
		usbd_dev->control_state.ctrl_buf = NULL;
	}
}
 8000e92:	bd10      	pop	{r4, pc}
			usbd_dev->desc->bMaxPacketSize0;
		usbd_dev->control_state.ctrl_len -=
			usbd_dev->desc->bMaxPacketSize0;
	} else {
		/* Data stage, end of transmission */
		usbd_ep_write_packet(usbd_dev, 0,
 8000e94:	2100      	movs	r1, #0
 8000e96:	f7ff ffc9 	bl	8000e2c <usbd_ep_write_packet>
				     usbd_dev->control_state.ctrl_len);

		usbd_dev->control_state.state =
			usbd_dev->control_state.needs_zlp ?
			DATA_IN : LAST_DATA_IN;
		usbd_dev->control_state.needs_zlp = false;
 8000e9a:	2300      	movs	r3, #0
				     usbd_dev->control_state.ctrl_buf,
				     usbd_dev->control_state.ctrl_len);

		usbd_dev->control_state.state =
			usbd_dev->control_state.needs_zlp ?
			DATA_IN : LAST_DATA_IN;
 8000e9c:	f894 2044 	ldrb.w	r2, [r4, #68]	; 0x44
		usbd_dev->control_state.needs_zlp = false;
		usbd_dev->control_state.ctrl_len = 0;
 8000ea0:	87a3      	strh	r3, [r4, #60]	; 0x3c
				     usbd_dev->control_state.ctrl_buf,
				     usbd_dev->control_state.ctrl_len);

		usbd_dev->control_state.state =
			usbd_dev->control_state.needs_zlp ?
			DATA_IN : LAST_DATA_IN;
 8000ea2:	429a      	cmp	r2, r3
 8000ea4:	bf14      	ite	ne
 8000ea6:	2202      	movne	r2, #2
 8000ea8:	2203      	moveq	r2, #3
		usbd_dev->control_state.needs_zlp = false;
 8000eaa:	f884 3044 	strb.w	r3, [r4, #68]	; 0x44
		/* Data stage, end of transmission */
		usbd_ep_write_packet(usbd_dev, 0,
				     usbd_dev->control_state.ctrl_buf,
				     usbd_dev->control_state.ctrl_len);

		usbd_dev->control_state.state =
 8000eae:	f884 202c 	strb.w	r2, [r4, #44]	; 0x2c
			usbd_dev->control_state.needs_zlp ?
			DATA_IN : LAST_DATA_IN;
		usbd_dev->control_state.needs_zlp = false;
		usbd_dev->control_state.ctrl_len = 0;
		usbd_dev->control_state.ctrl_buf = NULL;
 8000eb2:	63a3      	str	r3, [r4, #56]	; 0x38
	}
}
 8000eb4:	bd10      	pop	{r4, pc}
 8000eb6:	bf00      	nop

08000eb8 <usb_control_request_dispatch>:
}

static enum usbd_request_return_codes
usb_control_request_dispatch(usbd_device *usbd_dev,
			     struct usb_setup_data *req)
{
 8000eb8:	e92d 4ff0 	stmdb	sp!, {r4, r5, r6, r7, r8, r9, sl, fp, lr}
 8000ebc:	4605      	mov	r5, r0
 8000ebe:	460f      	mov	r7, r1
 8000ec0:	4604      	mov	r4, r0
 8000ec2:	b083      	sub	sp, #12
 8000ec4:	f100 0938 	add.w	r9, r0, #56	; 0x38
 8000ec8:	f100 0a3c 	add.w	sl, r0, #60	; 0x3c
 8000ecc:	f100 0820 	add.w	r8, r0, #32
		if (cb[i].cb == NULL) {
			break;
		}

		if ((req->bmRequestType & cb[i].type_mask) == cb[i].type) {
			result = cb[i].cb(usbd_dev, req,
 8000ed0:	f100 0b40 	add.w	fp, r0, #64	; 0x40
	int i, result = 0;
	struct user_control_callback *cb = usbd_dev->user_control_callback;

	/* Call user command hook function. */
	for (i = 0; i < MAX_USER_CONTROL_CALLBACK; i++) {
		if (cb[i].cb == NULL) {
 8000ed4:	6ca6      	ldr	r6, [r4, #72]	; 0x48
 8000ed6:	b15e      	cbz	r6, 8000ef0 <usb_control_request_dispatch+0x38>
			break;
		}

		if ((req->bmRequestType & cb[i].type_mask) == cb[i].type) {
 8000ed8:	f894 104d 	ldrb.w	r1, [r4, #77]	; 0x4d
 8000edc:	783b      	ldrb	r3, [r7, #0]
 8000ede:	f894 204c 	ldrb.w	r2, [r4, #76]	; 0x4c
 8000ee2:	400b      	ands	r3, r1
 8000ee4:	429a      	cmp	r2, r3
 8000ee6:	f104 0408 	add.w	r4, r4, #8
 8000eea:	d00a      	beq.n	8000f02 <usb_control_request_dispatch+0x4a>
{
	int i, result = 0;
	struct user_control_callback *cb = usbd_dev->user_control_callback;

	/* Call user command hook function. */
	for (i = 0; i < MAX_USER_CONTROL_CALLBACK; i++) {
 8000eec:	4544      	cmp	r4, r8
 8000eee:	d1f1      	bne.n	8000ed4 <usb_control_request_dispatch+0x1c>
			}
		}
	}

	/* Try standard request if not already handled. */
	return _usbd_standard_request(usbd_dev, req,
 8000ef0:	4653      	mov	r3, sl
 8000ef2:	464a      	mov	r2, r9
 8000ef4:	4639      	mov	r1, r7
 8000ef6:	4628      	mov	r0, r5
				      &(usbd_dev->control_state.ctrl_buf),
				      &(usbd_dev->control_state.ctrl_len));
}
 8000ef8:	b003      	add	sp, #12
 8000efa:	e8bd 4ff0 	ldmia.w	sp!, {r4, r5, r6, r7, r8, r9, sl, fp, lr}
			}
		}
	}

	/* Try standard request if not already handled. */
	return _usbd_standard_request(usbd_dev, req,
 8000efe:	f000 bbf5 	b.w	80016ec <_usbd_standard_request>
		if (cb[i].cb == NULL) {
			break;
		}

		if ((req->bmRequestType & cb[i].type_mask) == cb[i].type) {
			result = cb[i].cb(usbd_dev, req,
 8000f02:	f8cd b000 	str.w	fp, [sp]
 8000f06:	4653      	mov	r3, sl
 8000f08:	464a      	mov	r2, r9
 8000f0a:	4639      	mov	r1, r7
 8000f0c:	4628      	mov	r0, r5
 8000f0e:	47b0      	blx	r6
					  &(usbd_dev->control_state.ctrl_buf),
					  &(usbd_dev->control_state.ctrl_len),
					  &(usbd_dev->control_state.complete));
			if (result == USBD_REQ_HANDLED ||
 8000f10:	2801      	cmp	r0, #1
 8000f12:	d8eb      	bhi.n	8000eec <usb_control_request_dispatch+0x34>

	/* Try standard request if not already handled. */
	return _usbd_standard_request(usbd_dev, req,
				      &(usbd_dev->control_state.ctrl_buf),
				      &(usbd_dev->control_state.ctrl_len));
}
 8000f14:	b003      	add	sp, #12
 8000f16:	e8bd 8ff0 	ldmia.w	sp!, {r4, r5, r6, r7, r8, r9, sl, fp, pc}
 8000f1a:	bf00      	nop

08000f1c <usb_control_setup_read>:

/* Handle commands and read requests. */
static void usb_control_setup_read(usbd_device *usbd_dev,
		struct usb_setup_data *req)
{
 8000f1c:	b570      	push	{r4, r5, r6, lr}
	usbd_dev->control_state.ctrl_buf = usbd_dev->ctrl_buf;
 8000f1e:	6903      	ldr	r3, [r0, #16]
}

/* Handle commands and read requests. */
static void usb_control_setup_read(usbd_device *usbd_dev,
		struct usb_setup_data *req)
{
 8000f20:	4604      	mov	r4, r0
	usbd_dev->control_state.ctrl_buf = usbd_dev->ctrl_buf;
 8000f22:	6383      	str	r3, [r0, #56]	; 0x38
	usbd_dev->control_state.ctrl_len = req->wLength;
 8000f24:	798b      	ldrb	r3, [r1, #6]
 8000f26:	79ca      	ldrb	r2, [r1, #7]
}

/* Handle commands and read requests. */
static void usb_control_setup_read(usbd_device *usbd_dev,
		struct usb_setup_data *req)
{
 8000f28:	460d      	mov	r5, r1
	usbd_dev->control_state.ctrl_buf = usbd_dev->ctrl_buf;
	usbd_dev->control_state.ctrl_len = req->wLength;
 8000f2a:	ea43 2302 	orr.w	r3, r3, r2, lsl #8
 8000f2e:	8783      	strh	r3, [r0, #60]	; 0x3c

	if (usb_control_request_dispatch(usbd_dev, req)) {
 8000f30:	f7ff ffc2 	bl	8000eb8 <usb_control_request_dispatch>
 8000f34:	b1f0      	cbz	r0, 8000f74 <usb_control_setup_read+0x58>
		if (req->wLength) {
 8000f36:	88eb      	ldrh	r3, [r5, #6]
 8000f38:	b19b      	cbz	r3, 8000f62 <usb_control_setup_read+0x46>
			usbd_dev->control_state.needs_zlp =
				needs_zlp(usbd_dev->control_state.ctrl_len,
 8000f3a:	8fa2      	ldrh	r2, [r4, #60]	; 0x3c
 8000f3c:	6821      	ldr	r1, [r4, #0]
 * @param ep_size
 * @return
 */
static bool needs_zlp(uint16_t len, uint16_t wLength, uint8_t ep_size)
{
	if (len < wLength) {
 8000f3e:	4293      	cmp	r3, r2
	usbd_dev->control_state.ctrl_len = req->wLength;

	if (usb_control_request_dispatch(usbd_dev, req)) {
		if (req->wLength) {
			usbd_dev->control_state.needs_zlp =
				needs_zlp(usbd_dev->control_state.ctrl_len,
 8000f40:	79c9      	ldrb	r1, [r1, #7]
 * @param ep_size
 * @return
 */
static bool needs_zlp(uint16_t len, uint16_t wLength, uint8_t ep_size)
{
	if (len < wLength) {
 8000f42:	d920      	bls.n	8000f86 <usb_control_setup_read+0x6a>
		if (len && (len % ep_size == 0)) {
 8000f44:	b132      	cbz	r2, 8000f54 <usb_control_setup_read+0x38>
 8000f46:	fbb2 f3f1 	udiv	r3, r2, r1
 8000f4a:	fb01 2213 	mls	r2, r1, r3, r2
 8000f4e:	fab2 f282 	clz	r2, r2
 8000f52:	0952      	lsrs	r2, r2, #5
	usbd_dev->control_state.ctrl_buf = usbd_dev->ctrl_buf;
	usbd_dev->control_state.ctrl_len = req->wLength;

	if (usb_control_request_dispatch(usbd_dev, req)) {
		if (req->wLength) {
			usbd_dev->control_state.needs_zlp =
 8000f54:	f884 2044 	strb.w	r2, [r4, #68]	; 0x44
				needs_zlp(usbd_dev->control_state.ctrl_len,
					req->wLength,
					usbd_dev->desc->bMaxPacketSize0);
			/* Go to data out stage if handled. */
			usb_control_send_chunk(usbd_dev);
 8000f58:	4620      	mov	r0, r4
		}
	} else {
		/* Stall endpoint on failure. */
		stall_transaction(usbd_dev);
	}
}
 8000f5a:	e8bd 4070 	ldmia.w	sp!, {r4, r5, r6, lr}
			usbd_dev->control_state.needs_zlp =
				needs_zlp(usbd_dev->control_state.ctrl_len,
					req->wLength,
					usbd_dev->desc->bMaxPacketSize0);
			/* Go to data out stage if handled. */
			usb_control_send_chunk(usbd_dev);
 8000f5e:	f7ff bf81 	b.w	8000e64 <usb_control_send_chunk>
		} else {
			/* Go to status stage if handled. */
			usbd_ep_write_packet(usbd_dev, 0, NULL, 0);
 8000f62:	461a      	mov	r2, r3
 8000f64:	4619      	mov	r1, r3
 8000f66:	4620      	mov	r0, r4
 8000f68:	f7ff ff60 	bl	8000e2c <usbd_ep_write_packet>
			usbd_dev->control_state.state = STATUS_IN;
 8000f6c:	2304      	movs	r3, #4
 8000f6e:	f884 302c 	strb.w	r3, [r4, #44]	; 0x2c
		}
	} else {
		/* Stall endpoint on failure. */
		stall_transaction(usbd_dev);
	}
}
 8000f72:	bd70      	pop	{r4, r5, r6, pc}
 8000f74:	4606      	mov	r6, r0
 * transfer is stalled, the pipe becomes idle. We provide one utility to stall
 * a transaction to reduce boilerplate code.
 */
static void stall_transaction(usbd_device *usbd_dev)
{
	usbd_ep_stall_set(usbd_dev, 0, 1);
 8000f76:	4601      	mov	r1, r0
 8000f78:	2201      	movs	r2, #1
 8000f7a:	4620      	mov	r0, r4
 8000f7c:	f7ff ff66 	bl	8000e4c <usbd_ep_stall_set>
	usbd_dev->control_state.state = IDLE;
 8000f80:	f884 602c 	strb.w	r6, [r4, #44]	; 0x2c
		}
	} else {
		/* Stall endpoint on failure. */
		stall_transaction(usbd_dev);
	}
}
 8000f84:	bd70      	pop	{r4, r5, r6, pc}
	if (len < wLength) {
		if (len && (len % ep_size == 0)) {
			return true;
		}
	}
	return false;
 8000f86:	2200      	movs	r2, #0
			usbd_dev->control_state.needs_zlp =
				needs_zlp(usbd_dev->control_state.ctrl_len,
					req->wLength,
					usbd_dev->desc->bMaxPacketSize0);
			/* Go to data out stage if handled. */
			usb_control_send_chunk(usbd_dev);
 8000f88:	4620      	mov	r0, r4
	usbd_dev->control_state.ctrl_buf = usbd_dev->ctrl_buf;
	usbd_dev->control_state.ctrl_len = req->wLength;

	if (usb_control_request_dispatch(usbd_dev, req)) {
		if (req->wLength) {
			usbd_dev->control_state.needs_zlp =
 8000f8a:	f884 2044 	strb.w	r2, [r4, #68]	; 0x44
		}
	} else {
		/* Stall endpoint on failure. */
		stall_transaction(usbd_dev);
	}
}
 8000f8e:	e8bd 4070 	ldmia.w	sp!, {r4, r5, r6, lr}
			usbd_dev->control_state.needs_zlp =
				needs_zlp(usbd_dev->control_state.ctrl_len,
					req->wLength,
					usbd_dev->desc->bMaxPacketSize0);
			/* Go to data out stage if handled. */
			usb_control_send_chunk(usbd_dev);
 8000f92:	f7ff bf67 	b.w	8000e64 <usb_control_send_chunk>
 8000f96:	bf00      	nop

08000f98 <usb_control_recv_chunk>:
		usbd_dev->control_state.ctrl_buf = NULL;
	}
}

static int usb_control_recv_chunk(usbd_device *usbd_dev)
{
 8000f98:	b570      	push	{r4, r5, r6, lr}
	uint16_t packetsize = MIN(usbd_dev->desc->bMaxPacketSize0,
 8000f9a:	6802      	ldr	r2, [r0, #0]
 8000f9c:	8f83      	ldrh	r3, [r0, #60]	; 0x3c
 8000f9e:	8ec4      	ldrh	r4, [r0, #54]	; 0x36
 8000fa0:	79d2      	ldrb	r2, [r2, #7]
 8000fa2:	1ae4      	subs	r4, r4, r3
 8000fa4:	4294      	cmp	r4, r2
 8000fa6:	bfa8      	it	ge
 8000fa8:	4614      	movge	r4, r2
			usbd_dev->control_state.req.wLength -
			usbd_dev->control_state.ctrl_len);
	uint16_t size = usbd_ep_read_packet(usbd_dev, 0,
				       usbd_dev->control_state.ctrl_buf +
 8000faa:	6b82      	ldr	r2, [r0, #56]	; 0x38
	}
}

static int usb_control_recv_chunk(usbd_device *usbd_dev)
{
	uint16_t packetsize = MIN(usbd_dev->desc->bMaxPacketSize0,
 8000fac:	b2a6      	uxth	r6, r4
			usbd_dev->control_state.req.wLength -
			usbd_dev->control_state.ctrl_len);
	uint16_t size = usbd_ep_read_packet(usbd_dev, 0,
 8000fae:	441a      	add	r2, r3
 8000fb0:	2100      	movs	r1, #0
 8000fb2:	4633      	mov	r3, r6
		usbd_dev->control_state.ctrl_buf = NULL;
	}
}

static int usb_control_recv_chunk(usbd_device *usbd_dev)
{
 8000fb4:	4605      	mov	r5, r0
	uint16_t packetsize = MIN(usbd_dev->desc->bMaxPacketSize0,
			usbd_dev->control_state.req.wLength -
			usbd_dev->control_state.ctrl_len);
	uint16_t size = usbd_ep_read_packet(usbd_dev, 0,
 8000fb6:	f7ff ff41 	bl	8000e3c <usbd_ep_read_packet>
				       usbd_dev->control_state.ctrl_buf +
				       usbd_dev->control_state.ctrl_len,
				       packetsize);

	if (size != packetsize) {
 8000fba:	4286      	cmp	r6, r0
 8000fbc:	d104      	bne.n	8000fc8 <usb_control_recv_chunk+0x30>
		stall_transaction(usbd_dev);
		return -1;
	}

	usbd_dev->control_state.ctrl_len += size;
 8000fbe:	8fab      	ldrh	r3, [r5, #60]	; 0x3c
 8000fc0:	b2a0      	uxth	r0, r4
 8000fc2:	441e      	add	r6, r3
 8000fc4:	87ae      	strh	r6, [r5, #60]	; 0x3c

	return packetsize;
}
 8000fc6:	bd70      	pop	{r4, r5, r6, pc}
 * transfer is stalled, the pipe becomes idle. We provide one utility to stall
 * a transaction to reduce boilerplate code.
 */
static void stall_transaction(usbd_device *usbd_dev)
{
	usbd_ep_stall_set(usbd_dev, 0, 1);
 8000fc8:	4628      	mov	r0, r5
 8000fca:	2201      	movs	r2, #1
 8000fcc:	2100      	movs	r1, #0
 8000fce:	f7ff ff3d 	bl	8000e4c <usbd_ep_stall_set>
	usbd_dev->control_state.state = IDLE;
 8000fd2:	2300      	movs	r3, #0
 8000fd4:	f04f 30ff 	mov.w	r0, #4294967295	; 0xffffffff
 8000fd8:	f885 302c 	strb.w	r3, [r5, #44]	; 0x2c
	}

	usbd_dev->control_state.ctrl_len += size;

	return packetsize;
}
 8000fdc:	bd70      	pop	{r4, r5, r6, pc}
 8000fde:	bf00      	nop

08000fe0 <usbd_register_control_callback>:

/* Register application callback function for handling USB control requests. */
int usbd_register_control_callback(usbd_device *usbd_dev, uint8_t type,
				   uint8_t type_mask,
				   usbd_control_callback callback)
{
 8000fe0:	b470      	push	{r4, r5, r6}
	int i;

	for (i = 0; i < MAX_USER_CONTROL_CALLBACK; i++) {
 8000fe2:	2500      	movs	r5, #0
 8000fe4:	f100 0648 	add.w	r6, r0, #72	; 0x48
		if (usbd_dev->user_control_callback[i].cb) {
 8000fe8:	f856 4035 	ldr.w	r4, [r6, r5, lsl #3]
 8000fec:	b13c      	cbz	r4, 8000ffe <usbd_register_control_callback+0x1e>
				   uint8_t type_mask,
				   usbd_control_callback callback)
{
	int i;

	for (i = 0; i < MAX_USER_CONTROL_CALLBACK; i++) {
 8000fee:	3501      	adds	r5, #1
 8000ff0:	2d04      	cmp	r5, #4
 8000ff2:	d1f9      	bne.n	8000fe8 <usbd_register_control_callback+0x8>
		usbd_dev->user_control_callback[i].type_mask = type_mask;
		usbd_dev->user_control_callback[i].cb = callback;
		return 0;
	}

	return -1;
 8000ff4:	f04f 34ff 	mov.w	r4, #4294967295	; 0xffffffff
}
 8000ff8:	4620      	mov	r0, r4
 8000ffa:	bc70      	pop	{r4, r5, r6}
 8000ffc:	4770      	bx	lr
	for (i = 0; i < MAX_USER_CONTROL_CALLBACK; i++) {
		if (usbd_dev->user_control_callback[i].cb) {
			continue;
		}

		usbd_dev->user_control_callback[i].type = type;
 8000ffe:	eb00 00c5 	add.w	r0, r0, r5, lsl #3
 8001002:	f880 104c 	strb.w	r1, [r0, #76]	; 0x4c
		usbd_dev->user_control_callback[i].type_mask = type_mask;
 8001006:	f880 204d 	strb.w	r2, [r0, #77]	; 0x4d
		usbd_dev->user_control_callback[i].cb = callback;
 800100a:	6483      	str	r3, [r0, #72]	; 0x48
		return 0;
	}

	return -1;
}
 800100c:	4620      	mov	r0, r4
 800100e:	bc70      	pop	{r4, r5, r6}
 8001010:	4770      	bx	lr
 8001012:	bf00      	nop

08001014 <_usbd_control_setup>:

/* Do not appear to belong to the API, so are omitted from docs */
/**@}*/

void _usbd_control_setup(usbd_device *usbd_dev, uint8_t ea)
{
 8001014:	b538      	push	{r3, r4, r5, lr}
	struct usb_setup_data *req = &usbd_dev->control_state.req;
	(void)ea;

	usbd_dev->control_state.complete = NULL;
 8001016:	2500      	movs	r5, #0

/* Do not appear to belong to the API, so are omitted from docs */
/**@}*/

void _usbd_control_setup(usbd_device *usbd_dev, uint8_t ea)
{
 8001018:	4604      	mov	r4, r0
	struct usb_setup_data *req = &usbd_dev->control_state.req;
	(void)ea;

	usbd_dev->control_state.complete = NULL;

	usbd_ep_nak_set(usbd_dev, 0, 1);
 800101a:	4629      	mov	r1, r5
 800101c:	2201      	movs	r2, #1
void _usbd_control_setup(usbd_device *usbd_dev, uint8_t ea)
{
	struct usb_setup_data *req = &usbd_dev->control_state.req;
	(void)ea;

	usbd_dev->control_state.complete = NULL;
 800101e:	6405      	str	r5, [r0, #64]	; 0x40

	usbd_ep_nak_set(usbd_dev, 0, 1);
 8001020:	f7ff ff1c 	bl	8000e5c <usbd_ep_nak_set>

	if (req->wLength == 0) {
 8001024:	8ee3      	ldrh	r3, [r4, #54]	; 0x36
/* Do not appear to belong to the API, so are omitted from docs */
/**@}*/

void _usbd_control_setup(usbd_device *usbd_dev, uint8_t ea)
{
	struct usb_setup_data *req = &usbd_dev->control_state.req;
 8001026:	f104 0130 	add.w	r1, r4, #48	; 0x30

	usbd_dev->control_state.complete = NULL;

	usbd_ep_nak_set(usbd_dev, 0, 1);

	if (req->wLength == 0) {
 800102a:	b1c3      	cbz	r3, 800105e <_usbd_control_setup+0x4a>
		usb_control_setup_read(usbd_dev, req);
	} else if (req->bmRequestType & 0x80) {
 800102c:	f994 2030 	ldrsb.w	r2, [r4, #48]	; 0x30
 8001030:	2a00      	cmp	r2, #0
 8001032:	db14      	blt.n	800105e <_usbd_control_setup+0x4a>
}

static void usb_control_setup_write(usbd_device *usbd_dev,
				    struct usb_setup_data *req)
{
	if (req->wLength > usbd_dev->ctrl_buf_len) {
 8001034:	8aa2      	ldrh	r2, [r4, #20]
 8001036:	429a      	cmp	r2, r3
 8001038:	d316      	bcc.n	8001068 <_usbd_control_setup+0x54>
		stall_transaction(usbd_dev);
		return;
	}

	/* Buffer into which to write received data. */
	usbd_dev->control_state.ctrl_buf = usbd_dev->ctrl_buf;
 800103a:	6921      	ldr	r1, [r4, #16]
	usbd_dev->control_state.ctrl_len = 0;
	/* Wait for DATA OUT stage. */
	if (req->wLength > usbd_dev->desc->bMaxPacketSize0) {
 800103c:	6822      	ldr	r2, [r4, #0]
		stall_transaction(usbd_dev);
		return;
	}

	/* Buffer into which to write received data. */
	usbd_dev->control_state.ctrl_buf = usbd_dev->ctrl_buf;
 800103e:	63a1      	str	r1, [r4, #56]	; 0x38
	usbd_dev->control_state.ctrl_len = 0;
 8001040:	87a5      	strh	r5, [r4, #60]	; 0x3c
	/* Wait for DATA OUT stage. */
	if (req->wLength > usbd_dev->desc->bMaxPacketSize0) {
 8001042:	79d2      	ldrb	r2, [r2, #7]
		usbd_dev->control_state.state = DATA_OUT;
	} else {
		usbd_dev->control_state.state = LAST_DATA_OUT;
	}

	usbd_ep_nak_set(usbd_dev, 0, 0);
 8001044:	4620      	mov	r0, r4
	usbd_dev->control_state.ctrl_len = 0;
	/* Wait for DATA OUT stage. */
	if (req->wLength > usbd_dev->desc->bMaxPacketSize0) {
		usbd_dev->control_state.state = DATA_OUT;
	} else {
		usbd_dev->control_state.state = LAST_DATA_OUT;
 8001046:	429a      	cmp	r2, r3
 8001048:	bf34      	ite	cc
 800104a:	2305      	movcc	r3, #5
 800104c:	2306      	movcs	r3, #6
	}

	usbd_ep_nak_set(usbd_dev, 0, 0);
 800104e:	4629      	mov	r1, r5
 8001050:	462a      	mov	r2, r5
 8001052:	f884 302c 	strb.w	r3, [r4, #44]	; 0x2c
	} else if (req->bmRequestType & 0x80) {
		usb_control_setup_read(usbd_dev, req);
	} else {
		usb_control_setup_write(usbd_dev, req);
	}
}
 8001056:	e8bd 4038 	ldmia.w	sp!, {r3, r4, r5, lr}
		usbd_dev->control_state.state = DATA_OUT;
	} else {
		usbd_dev->control_state.state = LAST_DATA_OUT;
	}

	usbd_ep_nak_set(usbd_dev, 0, 0);
 800105a:	f7ff beff 	b.w	8000e5c <usbd_ep_nak_set>
	usbd_ep_nak_set(usbd_dev, 0, 1);

	if (req->wLength == 0) {
		usb_control_setup_read(usbd_dev, req);
	} else if (req->bmRequestType & 0x80) {
		usb_control_setup_read(usbd_dev, req);
 800105e:	4620      	mov	r0, r4
	} else {
		usb_control_setup_write(usbd_dev, req);
	}
}
 8001060:	e8bd 4038 	ldmia.w	sp!, {r3, r4, r5, lr}
	usbd_ep_nak_set(usbd_dev, 0, 1);

	if (req->wLength == 0) {
		usb_control_setup_read(usbd_dev, req);
	} else if (req->bmRequestType & 0x80) {
		usb_control_setup_read(usbd_dev, req);
 8001064:	f7ff bf5a 	b.w	8000f1c <usb_control_setup_read>
 * transfer is stalled, the pipe becomes idle. We provide one utility to stall
 * a transaction to reduce boilerplate code.
 */
static void stall_transaction(usbd_device *usbd_dev)
{
	usbd_ep_stall_set(usbd_dev, 0, 1);
 8001068:	2201      	movs	r2, #1
 800106a:	4629      	mov	r1, r5
 800106c:	4620      	mov	r0, r4
 800106e:	f7ff feed 	bl	8000e4c <usbd_ep_stall_set>
	usbd_dev->control_state.state = IDLE;
 8001072:	f884 502c 	strb.w	r5, [r4, #44]	; 0x2c
	} else if (req->bmRequestType & 0x80) {
		usb_control_setup_read(usbd_dev, req);
	} else {
		usb_control_setup_write(usbd_dev, req);
	}
}
 8001076:	bd38      	pop	{r3, r4, r5, pc}

08001078 <_usbd_control_out>:

void _usbd_control_out(usbd_device *usbd_dev, uint8_t ea)
{
 8001078:	b538      	push	{r3, r4, r5, lr}
	(void)ea;

	switch (usbd_dev->control_state.state) {
 800107a:	f890 302c 	ldrb.w	r3, [r0, #44]	; 0x2c
		usb_control_setup_write(usbd_dev, req);
	}
}

void _usbd_control_out(usbd_device *usbd_dev, uint8_t ea)
{
 800107e:	4604      	mov	r4, r0
	(void)ea;

	switch (usbd_dev->control_state.state) {
 8001080:	2b06      	cmp	r3, #6
 8001082:	d00b      	beq.n	800109c <_usbd_control_out+0x24>
 8001084:	2b07      	cmp	r3, #7
 8001086:	d02d      	beq.n	80010e4 <_usbd_control_out+0x6c>
 8001088:	2b05      	cmp	r3, #5
 800108a:	d01c      	beq.n	80010c6 <_usbd_control_out+0x4e>
 * transfer is stalled, the pipe becomes idle. We provide one utility to stall
 * a transaction to reduce boilerplate code.
 */
static void stall_transaction(usbd_device *usbd_dev)
{
	usbd_ep_stall_set(usbd_dev, 0, 1);
 800108c:	2201      	movs	r2, #1
 800108e:	2100      	movs	r1, #0
 8001090:	f7ff fedc 	bl	8000e4c <usbd_ep_stall_set>
	usbd_dev->control_state.state = IDLE;
 8001094:	2300      	movs	r3, #0
 8001096:	f884 302c 	strb.w	r3, [r4, #44]	; 0x2c
		usbd_dev->control_state.complete = NULL;
		break;
	default:
		stall_transaction(usbd_dev);
	}
}
 800109a:	bd38      	pop	{r3, r4, r5, pc}
					usbd_dev->desc->bMaxPacketSize0) {
			usbd_dev->control_state.state = LAST_DATA_OUT;
		}
		break;
	case LAST_DATA_OUT:
		if (usb_control_recv_chunk(usbd_dev) < 0) {
 800109c:	f7ff ff7c 	bl	8000f98 <usb_control_recv_chunk>
 80010a0:	2800      	cmp	r0, #0
 80010a2:	dbfa      	blt.n	800109a <_usbd_control_out+0x22>
		}
		/*
		 * We have now received the full data payload.
		 * Invoke callback to process.
		 */
		if (usb_control_request_dispatch(usbd_dev,
 80010a4:	f104 0130 	add.w	r1, r4, #48	; 0x30
 80010a8:	4620      	mov	r0, r4
 80010aa:	f7ff ff05 	bl	8000eb8 <usb_control_request_dispatch>
 80010ae:	4605      	mov	r5, r0
 80010b0:	b348      	cbz	r0, 8001106 <_usbd_control_out+0x8e>
					&(usbd_dev->control_state.req))) {
			/* Go to status stage on success. */
			usbd_ep_write_packet(usbd_dev, 0, NULL, 0);
 80010b2:	2300      	movs	r3, #0
 80010b4:	4620      	mov	r0, r4
 80010b6:	461a      	mov	r2, r3
 80010b8:	4619      	mov	r1, r3
 80010ba:	f7ff feb7 	bl	8000e2c <usbd_ep_write_packet>
			usbd_dev->control_state.state = STATUS_IN;
 80010be:	2304      	movs	r3, #4
 80010c0:	f884 302c 	strb.w	r3, [r4, #44]	; 0x2c
		usbd_dev->control_state.complete = NULL;
		break;
	default:
		stall_transaction(usbd_dev);
	}
}
 80010c4:	bd38      	pop	{r3, r4, r5, pc}
{
	(void)ea;

	switch (usbd_dev->control_state.state) {
	case DATA_OUT:
		if (usb_control_recv_chunk(usbd_dev) < 0) {
 80010c6:	f7ff ff67 	bl	8000f98 <usb_control_recv_chunk>
 80010ca:	2800      	cmp	r0, #0
 80010cc:	dbe5      	blt.n	800109a <_usbd_control_out+0x22>
			break;
		}
		if ((usbd_dev->control_state.req.wLength -
					usbd_dev->control_state.ctrl_len) <=
					usbd_dev->desc->bMaxPacketSize0) {
 80010ce:	6822      	ldr	r2, [r4, #0]
	switch (usbd_dev->control_state.state) {
	case DATA_OUT:
		if (usb_control_recv_chunk(usbd_dev) < 0) {
			break;
		}
		if ((usbd_dev->control_state.req.wLength -
 80010d0:	8ee3      	ldrh	r3, [r4, #54]	; 0x36
					usbd_dev->control_state.ctrl_len) <=
 80010d2:	8fa1      	ldrh	r1, [r4, #60]	; 0x3c
					usbd_dev->desc->bMaxPacketSize0) {
 80010d4:	79d2      	ldrb	r2, [r2, #7]
	switch (usbd_dev->control_state.state) {
	case DATA_OUT:
		if (usb_control_recv_chunk(usbd_dev) < 0) {
			break;
		}
		if ((usbd_dev->control_state.req.wLength -
 80010d6:	1a5b      	subs	r3, r3, r1
 80010d8:	4293      	cmp	r3, r2
 80010da:	dcde      	bgt.n	800109a <_usbd_control_out+0x22>
					usbd_dev->control_state.ctrl_len) <=
					usbd_dev->desc->bMaxPacketSize0) {
			usbd_dev->control_state.state = LAST_DATA_OUT;
 80010dc:	2306      	movs	r3, #6
 80010de:	f884 302c 	strb.w	r3, [r4, #44]	; 0x2c
		usbd_dev->control_state.complete = NULL;
		break;
	default:
		stall_transaction(usbd_dev);
	}
}
 80010e2:	bd38      	pop	{r3, r4, r5, pc}
		} else {
			stall_transaction(usbd_dev);
		}
		break;
	case STATUS_OUT:
		usbd_ep_read_packet(usbd_dev, 0, NULL, 0);
 80010e4:	2300      	movs	r3, #0
 80010e6:	461a      	mov	r2, r3
 80010e8:	4619      	mov	r1, r3
 80010ea:	f7ff fea7 	bl	8000e3c <usbd_ep_read_packet>
		usbd_dev->control_state.state = IDLE;
 80010ee:	2200      	movs	r2, #0
		if (usbd_dev->control_state.complete) {
 80010f0:	6c23      	ldr	r3, [r4, #64]	; 0x40
			stall_transaction(usbd_dev);
		}
		break;
	case STATUS_OUT:
		usbd_ep_read_packet(usbd_dev, 0, NULL, 0);
		usbd_dev->control_state.state = IDLE;
 80010f2:	f884 202c 	strb.w	r2, [r4, #44]	; 0x2c
		if (usbd_dev->control_state.complete) {
 80010f6:	b11b      	cbz	r3, 8001100 <_usbd_control_out+0x88>
			usbd_dev->control_state.complete(usbd_dev,
 80010f8:	f104 0130 	add.w	r1, r4, #48	; 0x30
 80010fc:	4620      	mov	r0, r4
 80010fe:	4798      	blx	r3
					&(usbd_dev->control_state.req));
		}
		usbd_dev->control_state.complete = NULL;
 8001100:	2300      	movs	r3, #0
 8001102:	6423      	str	r3, [r4, #64]	; 0x40
		break;
	default:
		stall_transaction(usbd_dev);
	}
}
 8001104:	bd38      	pop	{r3, r4, r5, pc}
 * transfer is stalled, the pipe becomes idle. We provide one utility to stall
 * a transaction to reduce boilerplate code.
 */
static void stall_transaction(usbd_device *usbd_dev)
{
	usbd_ep_stall_set(usbd_dev, 0, 1);
 8001106:	4601      	mov	r1, r0
 8001108:	2201      	movs	r2, #1
 800110a:	4620      	mov	r0, r4
 800110c:	f7ff fe9e 	bl	8000e4c <usbd_ep_stall_set>
	usbd_dev->control_state.state = IDLE;
 8001110:	f884 502c 	strb.w	r5, [r4, #44]	; 0x2c
		usbd_dev->control_state.complete = NULL;
		break;
	default:
		stall_transaction(usbd_dev);
	}
}
 8001114:	bd38      	pop	{r3, r4, r5, pc}
 8001116:	bf00      	nop

08001118 <_usbd_control_in>:
void _usbd_control_in(usbd_device *usbd_dev, uint8_t ea)
{
	(void)ea;
	struct usb_setup_data *req = &(usbd_dev->control_state.req);

	switch (usbd_dev->control_state.state) {
 8001118:	f890 302c 	ldrb.w	r3, [r0, #44]	; 0x2c
		stall_transaction(usbd_dev);
	}
}

void _usbd_control_in(usbd_device *usbd_dev, uint8_t ea)
{
 800111c:	b510      	push	{r4, lr}
	(void)ea;
	struct usb_setup_data *req = &(usbd_dev->control_state.req);

	switch (usbd_dev->control_state.state) {
 800111e:	2b03      	cmp	r3, #3
		stall_transaction(usbd_dev);
	}
}

void _usbd_control_in(usbd_device *usbd_dev, uint8_t ea)
{
 8001120:	4604      	mov	r4, r0
	(void)ea;
	struct usb_setup_data *req = &(usbd_dev->control_state.req);

	switch (usbd_dev->control_state.state) {
 8001122:	d00b      	beq.n	800113c <_usbd_control_in+0x24>
 8001124:	2b04      	cmp	r3, #4
 8001126:	d016      	beq.n	8001156 <_usbd_control_in+0x3e>
 8001128:	2b02      	cmp	r3, #2
 800112a:	d010      	beq.n	800114e <_usbd_control_in+0x36>
 * transfer is stalled, the pipe becomes idle. We provide one utility to stall
 * a transaction to reduce boilerplate code.
 */
static void stall_transaction(usbd_device *usbd_dev)
{
	usbd_ep_stall_set(usbd_dev, 0, 1);
 800112c:	2201      	movs	r2, #1
 800112e:	2100      	movs	r1, #0
 8001130:	f7ff fe8c 	bl	8000e4c <usbd_ep_stall_set>
	usbd_dev->control_state.state = IDLE;
 8001134:	2300      	movs	r3, #0
 8001136:	f884 302c 	strb.w	r3, [r4, #44]	; 0x2c
		usbd_dev->control_state.state = IDLE;
		break;
	default:
		stall_transaction(usbd_dev);
	}
}
 800113a:	bd10      	pop	{r4, pc}
	switch (usbd_dev->control_state.state) {
	case DATA_IN:
		usb_control_send_chunk(usbd_dev);
		break;
	case LAST_DATA_IN:
		usbd_dev->control_state.state = STATUS_OUT;
 800113c:	2307      	movs	r3, #7
		usbd_dev->control_state.state = IDLE;
		break;
	default:
		stall_transaction(usbd_dev);
	}
}
 800113e:	e8bd 4010 	ldmia.w	sp!, {r4, lr}
	case DATA_IN:
		usb_control_send_chunk(usbd_dev);
		break;
	case LAST_DATA_IN:
		usbd_dev->control_state.state = STATUS_OUT;
		usbd_ep_nak_set(usbd_dev, 0, 0);
 8001142:	2200      	movs	r2, #0
	switch (usbd_dev->control_state.state) {
	case DATA_IN:
		usb_control_send_chunk(usbd_dev);
		break;
	case LAST_DATA_IN:
		usbd_dev->control_state.state = STATUS_OUT;
 8001144:	f880 302c 	strb.w	r3, [r0, #44]	; 0x2c
		usbd_ep_nak_set(usbd_dev, 0, 0);
 8001148:	4611      	mov	r1, r2
 800114a:	f7ff be87 	b.w	8000e5c <usbd_ep_nak_set>
		usbd_dev->control_state.state = IDLE;
		break;
	default:
		stall_transaction(usbd_dev);
	}
}
 800114e:	e8bd 4010 	ldmia.w	sp!, {r4, lr}
	(void)ea;
	struct usb_setup_data *req = &(usbd_dev->control_state.req);

	switch (usbd_dev->control_state.state) {
	case DATA_IN:
		usb_control_send_chunk(usbd_dev);
 8001152:	f7ff be87 	b.w	8000e64 <usb_control_send_chunk>
	case LAST_DATA_IN:
		usbd_dev->control_state.state = STATUS_OUT;
		usbd_ep_nak_set(usbd_dev, 0, 0);
		break;
	case STATUS_IN:
		if (usbd_dev->control_state.complete) {
 8001156:	6c03      	ldr	r3, [r0, #64]	; 0x40
 8001158:	b113      	cbz	r3, 8001160 <_usbd_control_in+0x48>
			usbd_dev->control_state.complete(usbd_dev,
 800115a:	f100 0130 	add.w	r1, r0, #48	; 0x30
 800115e:	4798      	blx	r3
					&(usbd_dev->control_state.req));
		}

		/* Exception: Handle SET ADDRESS function here... */
		if ((req->bmRequestType == 0) &&
 8001160:	f894 3030 	ldrb.w	r3, [r4, #48]	; 0x30
 8001164:	2b00      	cmp	r3, #0
 8001166:	d1e5      	bne.n	8001134 <_usbd_control_in+0x1c>
 8001168:	f894 3031 	ldrb.w	r3, [r4, #49]	; 0x31
 800116c:	2b05      	cmp	r3, #5
 800116e:	d1e1      	bne.n	8001134 <_usbd_control_in+0x1c>
		    (req->bRequest == USB_REQ_SET_ADDRESS)) {
			usbd_dev->driver->set_address(usbd_dev, req->wValue);
 8001170:	8e61      	ldrh	r1, [r4, #50]	; 0x32
 8001172:	f8d4 30dc 	ldr.w	r3, [r4, #220]	; 0xdc
 8001176:	b2c9      	uxtb	r1, r1
 8001178:	685b      	ldr	r3, [r3, #4]
 800117a:	4620      	mov	r0, r4
 800117c:	4798      	blx	r3
		}
		usbd_dev->control_state.state = IDLE;
 800117e:	e7d9      	b.n	8001134 <_usbd_control_in+0x1c>

08001180 <usb_standard_set_address>:
	(void)req;
	(void)buf;
	(void)len;

	/* The actual address is only latched at the STATUS IN stage. */
	if ((req->bmRequestType != 0) || (req->wValue >= 128)) {
 8001180:	780b      	ldrb	r3, [r1, #0]
 8001182:	b98b      	cbnz	r3, 80011a8 <usb_standard_set_address+0x28>

static enum usbd_request_return_codes
usb_standard_set_address(usbd_device *usbd_dev,
			 struct usb_setup_data *req, uint8_t **buf,
			 uint16_t *len)
{
 8001184:	b510      	push	{r4, lr}
	(void)req;
	(void)buf;
	(void)len;

	/* The actual address is only latched at the STATUS IN stage. */
	if ((req->bmRequestType != 0) || (req->wValue >= 128)) {
 8001186:	884c      	ldrh	r4, [r1, #2]
 8001188:	2c7f      	cmp	r4, #127	; 0x7f
 800118a:	d80b      	bhi.n	80011a4 <usb_standard_set_address+0x24>

	/*
	 * Special workaround for STM32F10[57] that require the address
	 * to be set here. This is undocumented!
	 */
	if (usbd_dev->driver->set_address_before_status) {
 800118c:	f8d0 30dc 	ldr.w	r3, [r0, #220]	; 0xdc
	/* The actual address is only latched at the STATUS IN stage. */
	if ((req->bmRequestType != 0) || (req->wValue >= 128)) {
		return USBD_REQ_NOTSUPP;
	}

	usbd_dev->current_address = req->wValue;
 8001190:	7584      	strb	r4, [r0, #22]

	/*
	 * Special workaround for STM32F10[57] that require the address
	 * to be set here. This is undocumented!
	 */
	if (usbd_dev->driver->set_address_before_status) {
 8001192:	f893 2030 	ldrb.w	r2, [r3, #48]	; 0x30
 8001196:	b14a      	cbz	r2, 80011ac <usb_standard_set_address+0x2c>
		usbd_dev->driver->set_address(usbd_dev, req->wValue);
 8001198:	8849      	ldrh	r1, [r1, #2]
 800119a:	685b      	ldr	r3, [r3, #4]
 800119c:	b2c9      	uxtb	r1, r1
 800119e:	4798      	blx	r3
	}

	return USBD_REQ_HANDLED;
 80011a0:	2001      	movs	r0, #1
}
 80011a2:	bd10      	pop	{r4, pc}
	(void)buf;
	(void)len;

	/* The actual address is only latched at the STATUS IN stage. */
	if ((req->bmRequestType != 0) || (req->wValue >= 128)) {
		return USBD_REQ_NOTSUPP;
 80011a4:	4618      	mov	r0, r3
	if (usbd_dev->driver->set_address_before_status) {
		usbd_dev->driver->set_address(usbd_dev, req->wValue);
	}

	return USBD_REQ_HANDLED;
}
 80011a6:	bd10      	pop	{r4, pc}
	(void)buf;
	(void)len;

	/* The actual address is only latched at the STATUS IN stage. */
	if ((req->bmRequestType != 0) || (req->wValue >= 128)) {
		return USBD_REQ_NOTSUPP;
 80011a8:	2000      	movs	r0, #0
	if (usbd_dev->driver->set_address_before_status) {
		usbd_dev->driver->set_address(usbd_dev, req->wValue);
	}

	return USBD_REQ_HANDLED;
}
 80011aa:	4770      	bx	lr
	 */
	if (usbd_dev->driver->set_address_before_status) {
		usbd_dev->driver->set_address(usbd_dev, req->wValue);
	}

	return USBD_REQ_HANDLED;
 80011ac:	2001      	movs	r0, #1
}
 80011ae:	bd10      	pop	{r4, pc}

080011b0 <usb_standard_set_configuration>:

static enum usbd_request_return_codes
usb_standard_set_configuration(usbd_device *usbd_dev,
			       struct usb_setup_data *req,
			       uint8_t **buf, uint16_t *len)
{
 80011b0:	b5f8      	push	{r3, r4, r5, r6, r7, lr}

	(void)req;
	(void)buf;
	(void)len;

	if (req->wValue > 0) {
 80011b2:	884f      	ldrh	r7, [r1, #2]
 80011b4:	b9ef      	cbnz	r7, 80011f2 <usb_standard_set_configuration+0x42>
		if (found_index < 0) {
			return USBD_REQ_NOTSUPP;
		}
	}

	usbd_dev->current_config = found_index + 1;
 80011b6:	75c7      	strb	r7, [r0, #23]
			}
		}
	}

	/* Reset all endpoints. */
	usbd_dev->driver->ep_reset(usbd_dev);
 80011b8:	4604      	mov	r4, r0
 80011ba:	f8d0 30dc 	ldr.w	r3, [r0, #220]	; 0xdc
 80011be:	460f      	mov	r7, r1
 80011c0:	68db      	ldr	r3, [r3, #12]
 80011c2:	4798      	blx	r3

	if (usbd_dev->user_callback_set_config[0]) {
 80011c4:	f8d4 30c8 	ldr.w	r3, [r4, #200]	; 0xc8
 80011c8:	b18b      	cbz	r3, 80011ee <usb_standard_set_configuration+0x3e>
		/*
		 * Flush control callbacks. These will be reregistered
		 * by the user handler.
		 */
		for (i = 0; i < MAX_USER_CONTROL_CALLBACK; i++) {
			usbd_dev->user_control_callback[i].cb = NULL;
 80011ca:	2200      	movs	r2, #0
 80011cc:	f104 05cc 	add.w	r5, r4, #204	; 0xcc
 80011d0:	64a2      	str	r2, [r4, #72]	; 0x48
 80011d2:	6522      	str	r2, [r4, #80]	; 0x50
 80011d4:	65a2      	str	r2, [r4, #88]	; 0x58
 80011d6:	6622      	str	r2, [r4, #96]	; 0x60
 80011d8:	f104 06d8 	add.w	r6, r4, #216	; 0xd8
		}

		for (i = 0; i < MAX_USER_SET_CONFIG_CALLBACK; i++) {
			if (usbd_dev->user_callback_set_config[i]) {
 80011dc:	b113      	cbz	r3, 80011e4 <usb_standard_set_configuration+0x34>
				usbd_dev->user_callback_set_config[i](usbd_dev,
 80011de:	8879      	ldrh	r1, [r7, #2]
 80011e0:	4620      	mov	r0, r4
 80011e2:	4798      	blx	r3
		 */
		for (i = 0; i < MAX_USER_CONTROL_CALLBACK; i++) {
			usbd_dev->user_control_callback[i].cb = NULL;
		}

		for (i = 0; i < MAX_USER_SET_CONFIG_CALLBACK; i++) {
 80011e4:	42ae      	cmp	r6, r5
 80011e6:	d002      	beq.n	80011ee <usb_standard_set_configuration+0x3e>
 80011e8:	f855 3b04 	ldr.w	r3, [r5], #4
 80011ec:	e7f6      	b.n	80011dc <usb_standard_set_configuration+0x2c>
								req->wValue);
			}
		}
	}

	return USBD_REQ_HANDLED;
 80011ee:	2001      	movs	r0, #1
}
 80011f0:	bdf8      	pop	{r3, r4, r5, r6, r7, pc}
	(void)req;
	(void)buf;
	(void)len;

	if (req->wValue > 0) {
		for (i = 0; i < usbd_dev->desc->bNumConfigurations; i++) {
 80011f2:	6803      	ldr	r3, [r0, #0]
 80011f4:	7c5e      	ldrb	r6, [r3, #17]
 80011f6:	b16e      	cbz	r6, 8001214 <usb_standard_set_configuration+0x64>
			if (req->wValue
			    == usbd_dev->config[i].bConfigurationValue) {
 80011f8:	6844      	ldr	r4, [r0, #4]
	(void)buf;
	(void)len;

	if (req->wValue > 0) {
		for (i = 0; i < usbd_dev->desc->bNumConfigurations; i++) {
			if (req->wValue
 80011fa:	7963      	ldrb	r3, [r4, #5]
 80011fc:	42bb      	cmp	r3, r7
 80011fe:	d024      	beq.n	800124a <usb_standard_set_configuration+0x9a>
 8001200:	4622      	mov	r2, r4
	(void)req;
	(void)buf;
	(void)len;

	if (req->wValue > 0) {
		for (i = 0; i < usbd_dev->desc->bNumConfigurations; i++) {
 8001202:	2300      	movs	r3, #0
 8001204:	e003      	b.n	800120e <usb_standard_set_configuration+0x5e>
			if (req->wValue
			    == usbd_dev->config[i].bConfigurationValue) {
 8001206:	7c95      	ldrb	r5, [r2, #18]
 8001208:	320d      	adds	r2, #13
	(void)buf;
	(void)len;

	if (req->wValue > 0) {
		for (i = 0; i < usbd_dev->desc->bNumConfigurations; i++) {
			if (req->wValue
 800120a:	42af      	cmp	r7, r5
 800120c:	d004      	beq.n	8001218 <usb_standard_set_configuration+0x68>
	(void)req;
	(void)buf;
	(void)len;

	if (req->wValue > 0) {
		for (i = 0; i < usbd_dev->desc->bNumConfigurations; i++) {
 800120e:	3301      	adds	r3, #1
 8001210:	42b3      	cmp	r3, r6
 8001212:	d1f8      	bne.n	8001206 <usb_standard_set_configuration+0x56>
				found_index = i;
				break;
			}
		}
		if (found_index < 0) {
			return USBD_REQ_NOTSUPP;
 8001214:	2000      	movs	r0, #0
			}
		}
	}

	return USBD_REQ_HANDLED;
}
 8001216:	bdf8      	pop	{r3, r4, r5, r6, r7, pc}
 8001218:	3301      	adds	r3, #1
 800121a:	b2db      	uxtb	r3, r3
 800121c:	eb03 0243 	add.w	r2, r3, r3, lsl #1
 8001220:	eb03 0282 	add.w	r2, r3, r2, lsl #2
 8001224:	3a0d      	subs	r2, #13
 8001226:	4414      	add	r4, r2
		if (found_index < 0) {
			return USBD_REQ_NOTSUPP;
		}
	}

	usbd_dev->current_config = found_index + 1;
 8001228:	75c3      	strb	r3, [r0, #23]

	if (usbd_dev->current_config > 0) {
		cfg = &usbd_dev->config[usbd_dev->current_config - 1];

		/* reset all alternate settings configuration */
		for (i = 0; i < cfg->bNumInterfaces; i++) {
 800122a:	7926      	ldrb	r6, [r4, #4]
 800122c:	2e00      	cmp	r6, #0
 800122e:	d0c3      	beq.n	80011b8 <usb_standard_set_configuration+0x8>
 8001230:	2300      	movs	r3, #0
			if (cfg->interface[i].cur_altsetting) {
				*cfg->interface[i].cur_altsetting = 0;
 8001232:	461f      	mov	r7, r3
	if (usbd_dev->current_config > 0) {
		cfg = &usbd_dev->config[usbd_dev->current_config - 1];

		/* reset all alternate settings configuration */
		for (i = 0; i < cfg->bNumInterfaces; i++) {
			if (cfg->interface[i].cur_altsetting) {
 8001234:	f8d4 2009 	ldr.w	r2, [r4, #9]
 8001238:	011d      	lsls	r5, r3, #4
 800123a:	58aa      	ldr	r2, [r5, r2]

	if (usbd_dev->current_config > 0) {
		cfg = &usbd_dev->config[usbd_dev->current_config - 1];

		/* reset all alternate settings configuration */
		for (i = 0; i < cfg->bNumInterfaces; i++) {
 800123c:	3301      	adds	r3, #1
			if (cfg->interface[i].cur_altsetting) {
 800123e:	b10a      	cbz	r2, 8001244 <usb_standard_set_configuration+0x94>
				*cfg->interface[i].cur_altsetting = 0;
 8001240:	7017      	strb	r7, [r2, #0]
 8001242:	7926      	ldrb	r6, [r4, #4]

	if (usbd_dev->current_config > 0) {
		cfg = &usbd_dev->config[usbd_dev->current_config - 1];

		/* reset all alternate settings configuration */
		for (i = 0; i < cfg->bNumInterfaces; i++) {
 8001244:	429e      	cmp	r6, r3
 8001246:	d8f5      	bhi.n	8001234 <usb_standard_set_configuration+0x84>
 8001248:	e7b6      	b.n	80011b8 <usb_standard_set_configuration+0x8>
	(void)buf;
	(void)len;

	if (req->wValue > 0) {
		for (i = 0; i < usbd_dev->desc->bNumConfigurations; i++) {
			if (req->wValue
 800124a:	2301      	movs	r3, #1
 800124c:	e7ec      	b.n	8001228 <usb_standard_set_configuration+0x78>
 800124e:	bf00      	nop

08001250 <usb_standard_get_configuration>:
			       struct usb_setup_data *req,
			       uint8_t **buf, uint16_t *len)
{
	(void)req;

	if (*len > 1) {
 8001250:	8819      	ldrh	r1, [r3, #0]
 8001252:	6812      	ldr	r2, [r2, #0]
 8001254:	2901      	cmp	r1, #1
		*len = 1;
 8001256:	bf84      	itt	hi
 8001258:	2101      	movhi	r1, #1
 800125a:	8019      	strhhi	r1, [r3, #0]
	}
	if (usbd_dev->current_config > 0) {
 800125c:	7dc3      	ldrb	r3, [r0, #23]
 800125e:	b153      	cbz	r3, 8001276 <usb_standard_get_configuration+0x26>
		const struct usb_config_descriptor *cfg =
			&usbd_dev->config[usbd_dev->current_config - 1];
		(*buf)[0] = cfg->bConfigurationValue;
 8001260:	6841      	ldr	r1, [r0, #4]
 8001262:	eb03 0043 	add.w	r0, r3, r3, lsl #1
 8001266:	eb03 0380 	add.w	r3, r3, r0, lsl #2
 800126a:	440b      	add	r3, r1
 800126c:	f813 3c08 	ldrb.w	r3, [r3, #-8]
	} else {
		(*buf)[0] = 0;
	}

	return USBD_REQ_HANDLED;
}
 8001270:	2001      	movs	r0, #1
		*len = 1;
	}
	if (usbd_dev->current_config > 0) {
		const struct usb_config_descriptor *cfg =
			&usbd_dev->config[usbd_dev->current_config - 1];
		(*buf)[0] = cfg->bConfigurationValue;
 8001272:	7013      	strb	r3, [r2, #0]
	} else {
		(*buf)[0] = 0;
	}

	return USBD_REQ_HANDLED;
}
 8001274:	4770      	bx	lr
	if (usbd_dev->current_config > 0) {
		const struct usb_config_descriptor *cfg =
			&usbd_dev->config[usbd_dev->current_config - 1];
		(*buf)[0] = cfg->bConfigurationValue;
	} else {
		(*buf)[0] = 0;
 8001276:	7013      	strb	r3, [r2, #0]
	}

	return USBD_REQ_HANDLED;
}
 8001278:	2001      	movs	r0, #1
 800127a:	4770      	bx	lr

0800127c <usb_standard_get_interface>:

static enum usbd_request_return_codes
usb_standard_get_interface(usbd_device *usbd_dev,
			   struct usb_setup_data *req,
			   uint8_t **buf, uint16_t *len)
{
 800127c:	b430      	push	{r4, r5}
	uint8_t *cur_altsetting;
	const struct usb_config_descriptor *cfx =
		&usbd_dev->config[usbd_dev->current_config - 1];
 800127e:	7dc4      	ldrb	r4, [r0, #23]
usb_standard_get_interface(usbd_device *usbd_dev,
			   struct usb_setup_data *req,
			   uint8_t **buf, uint16_t *len)
{
	uint8_t *cur_altsetting;
	const struct usb_config_descriptor *cfx =
 8001280:	6840      	ldr	r0, [r0, #4]
		&usbd_dev->config[usbd_dev->current_config - 1];
 8001282:	eb04 0544 	add.w	r5, r4, r4, lsl #1
 8001286:	eb04 0485 	add.w	r4, r4, r5, lsl #2
 800128a:	3c0d      	subs	r4, #13
usb_standard_get_interface(usbd_device *usbd_dev,
			   struct usb_setup_data *req,
			   uint8_t **buf, uint16_t *len)
{
	uint8_t *cur_altsetting;
	const struct usb_config_descriptor *cfx =
 800128c:	4404      	add	r4, r0
		&usbd_dev->config[usbd_dev->current_config - 1];

	if (req->wIndex >= cfx->bNumInterfaces) {
 800128e:	7920      	ldrb	r0, [r4, #4]
 8001290:	888d      	ldrh	r5, [r1, #4]
 8001292:	4285      	cmp	r5, r0
 8001294:	d20d      	bcs.n	80012b2 <usb_standard_get_interface+0x36>
		return USBD_REQ_NOTSUPP;
	}

	*len = 1;
 8001296:	2001      	movs	r0, #1
 8001298:	8018      	strh	r0, [r3, #0]
	cur_altsetting = cfx->interface[req->wIndex].cur_altsetting;
 800129a:	888b      	ldrh	r3, [r1, #4]
 800129c:	f8d4 1009 	ldr.w	r1, [r4, #9]
 80012a0:	011b      	lsls	r3, r3, #4
 80012a2:	585b      	ldr	r3, [r3, r1]
	(*buf)[0] = (cur_altsetting) ? *cur_altsetting : 0;
 80012a4:	b103      	cbz	r3, 80012a8 <usb_standard_get_interface+0x2c>
 80012a6:	781b      	ldrb	r3, [r3, #0]
 80012a8:	6812      	ldr	r2, [r2, #0]

	return USBD_REQ_HANDLED;
 80012aa:	2001      	movs	r0, #1
		return USBD_REQ_NOTSUPP;
	}

	*len = 1;
	cur_altsetting = cfx->interface[req->wIndex].cur_altsetting;
	(*buf)[0] = (cur_altsetting) ? *cur_altsetting : 0;
 80012ac:	7013      	strb	r3, [r2, #0]

	return USBD_REQ_HANDLED;
}
 80012ae:	bc30      	pop	{r4, r5}
 80012b0:	4770      	bx	lr
	uint8_t *cur_altsetting;
	const struct usb_config_descriptor *cfx =
		&usbd_dev->config[usbd_dev->current_config - 1];

	if (req->wIndex >= cfx->bNumInterfaces) {
		return USBD_REQ_NOTSUPP;
 80012b2:	2000      	movs	r0, #0
	*len = 1;
	cur_altsetting = cfx->interface[req->wIndex].cur_altsetting;
	(*buf)[0] = (cur_altsetting) ? *cur_altsetting : 0;

	return USBD_REQ_HANDLED;
}
 80012b4:	bc30      	pop	{r4, r5}
 80012b6:	4770      	bx	lr

080012b8 <usb_standard_device_get_status>:
	(void)usbd_dev;
	(void)req;

	/* bit 0: self powered */
	/* bit 1: remote wakeup */
	if (*len > 2) {
 80012b8:	8819      	ldrh	r1, [r3, #0]
	}
	(*buf)[0] = 0;
	(*buf)[1] = 0;

	return USBD_REQ_HANDLED;
}
 80012ba:	2001      	movs	r0, #1
	(void)usbd_dev;
	(void)req;

	/* bit 0: self powered */
	/* bit 1: remote wakeup */
	if (*len > 2) {
 80012bc:	2902      	cmp	r1, #2
		*len = 2;
 80012be:	bf84      	itt	hi
 80012c0:	2102      	movhi	r1, #2
 80012c2:	8019      	strhhi	r1, [r3, #0]
	}
	(*buf)[0] = 0;
 80012c4:	2300      	movs	r3, #0
 80012c6:	6811      	ldr	r1, [r2, #0]
 80012c8:	700b      	strb	r3, [r1, #0]
	(*buf)[1] = 0;
 80012ca:	6812      	ldr	r2, [r2, #0]
 80012cc:	7053      	strb	r3, [r2, #1]

	return USBD_REQ_HANDLED;
}
 80012ce:	4770      	bx	lr

080012d0 <usb_standard_endpoint_get_status>:

static enum usbd_request_return_codes
usb_standard_endpoint_get_status(usbd_device *usbd_dev,
				 struct usb_setup_data *req,
				 uint8_t **buf, uint16_t *len)
{
 80012d0:	b538      	push	{r3, r4, r5, lr}
	(void)req;

	if (*len > 2) {
 80012d2:	881d      	ldrh	r5, [r3, #0]

static enum usbd_request_return_codes
usb_standard_endpoint_get_status(usbd_device *usbd_dev,
				 struct usb_setup_data *req,
				 uint8_t **buf, uint16_t *len)
{
 80012d4:	4614      	mov	r4, r2
	(void)req;

	if (*len > 2) {
 80012d6:	2d02      	cmp	r5, #2
		*len = 2;
 80012d8:	bf84      	itt	hi
 80012da:	2202      	movhi	r2, #2
 80012dc:	801a      	strhhi	r2, [r3, #0]
	}
	(*buf)[0] = usbd_ep_stall_get(usbd_dev, req->wIndex) ? 1 : 0;
 80012de:	8889      	ldrh	r1, [r1, #4]
 80012e0:	b2c9      	uxtb	r1, r1
 80012e2:	f7ff fdb7 	bl	8000e54 <usbd_ep_stall_get>
 80012e6:	1c01      	adds	r1, r0, #0
 80012e8:	bf18      	it	ne
 80012ea:	2101      	movne	r1, #1
	(*buf)[1] = 0;
 80012ec:	2200      	movs	r2, #0
	(void)req;

	if (*len > 2) {
		*len = 2;
	}
	(*buf)[0] = usbd_ep_stall_get(usbd_dev, req->wIndex) ? 1 : 0;
 80012ee:	6823      	ldr	r3, [r4, #0]
	(*buf)[1] = 0;

	return USBD_REQ_HANDLED;
}
 80012f0:	2001      	movs	r0, #1
	(void)req;

	if (*len > 2) {
		*len = 2;
	}
	(*buf)[0] = usbd_ep_stall_get(usbd_dev, req->wIndex) ? 1 : 0;
 80012f2:	7019      	strb	r1, [r3, #0]
	(*buf)[1] = 0;
 80012f4:	6823      	ldr	r3, [r4, #0]
 80012f6:	705a      	strb	r2, [r3, #1]

	return USBD_REQ_HANDLED;
}
 80012f8:	bd38      	pop	{r3, r4, r5, pc}
 80012fa:	bf00      	nop

080012fc <usb_standard_endpoint_stall>:

static enum usbd_request_return_codes
usb_standard_endpoint_stall(usbd_device *usbd_dev,
			    struct usb_setup_data *req,
			    uint8_t **buf, uint16_t *len)
{
 80012fc:	b508      	push	{r3, lr}
	(void)buf;
	(void)len;

	usbd_ep_stall_set(usbd_dev, req->wIndex, 1);
 80012fe:	8889      	ldrh	r1, [r1, #4]
 8001300:	2201      	movs	r2, #1
 8001302:	b2c9      	uxtb	r1, r1
 8001304:	f7ff fda2 	bl	8000e4c <usbd_ep_stall_set>

	return USBD_REQ_HANDLED;
}
 8001308:	2001      	movs	r0, #1
 800130a:	bd08      	pop	{r3, pc}

0800130c <usb_standard_endpoint_unstall>:

static enum usbd_request_return_codes
usb_standard_endpoint_unstall(usbd_device *usbd_dev,
			      struct usb_setup_data *req,
			      uint8_t **buf, uint16_t *len)
{
 800130c:	b508      	push	{r3, lr}
	(void)buf;
	(void)len;

	usbd_ep_stall_set(usbd_dev, req->wIndex, 0);
 800130e:	8889      	ldrh	r1, [r1, #4]
 8001310:	2200      	movs	r2, #0
 8001312:	b2c9      	uxtb	r1, r1
 8001314:	f7ff fd9a 	bl	8000e4c <usbd_ep_stall_set>

	return USBD_REQ_HANDLED;
}
 8001318:	2001      	movs	r0, #1
 800131a:	bd08      	pop	{r3, pc}

0800131c <usb_standard_set_interface>:

static enum usbd_request_return_codes
usb_standard_set_interface(usbd_device *usbd_dev,
			   struct usb_setup_data *req,
			   uint8_t **buf, uint16_t *len)
{
 800131c:	b570      	push	{r4, r5, r6, lr}
	const struct usb_config_descriptor *cfx =
		&usbd_dev->config[usbd_dev->current_config - 1];
 800131e:	7dc2      	ldrb	r2, [r0, #23]
static enum usbd_request_return_codes
usb_standard_set_interface(usbd_device *usbd_dev,
			   struct usb_setup_data *req,
			   uint8_t **buf, uint16_t *len)
{
	const struct usb_config_descriptor *cfx =
 8001320:	6844      	ldr	r4, [r0, #4]
		&usbd_dev->config[usbd_dev->current_config - 1];
 8001322:	eb02 0542 	add.w	r5, r2, r2, lsl #1
 8001326:	eb02 0285 	add.w	r2, r2, r5, lsl #2
 800132a:	3a0d      	subs	r2, #13
static enum usbd_request_return_codes
usb_standard_set_interface(usbd_device *usbd_dev,
			   struct usb_setup_data *req,
			   uint8_t **buf, uint16_t *len)
{
	const struct usb_config_descriptor *cfx =
 800132c:	4422      	add	r2, r4
		&usbd_dev->config[usbd_dev->current_config - 1];
	const struct usb_interface *iface;

	(void)buf;

	if (req->wIndex >= cfx->bNumInterfaces) {
 800132e:	7915      	ldrb	r5, [r2, #4]
 8001330:	888c      	ldrh	r4, [r1, #4]
 8001332:	42a5      	cmp	r5, r4
 8001334:	d915      	bls.n	8001362 <usb_standard_set_interface+0x46>
		return USBD_REQ_NOTSUPP;
	}

	iface = &cfx->interface[req->wIndex];
 8001336:	f8d2 2009 	ldr.w	r2, [r2, #9]
 800133a:	0124      	lsls	r4, r4, #4
 800133c:	1915      	adds	r5, r2, r4

	if (req->wValue >= iface->num_altsetting) {
 800133e:	792e      	ldrb	r6, [r5, #4]
 8001340:	884d      	ldrh	r5, [r1, #2]
 8001342:	42ae      	cmp	r6, r5
 8001344:	d90d      	bls.n	8001362 <usb_standard_set_interface+0x46>
		return USBD_REQ_NOTSUPP;
	}

	if (iface->cur_altsetting) {
 8001346:	5912      	ldr	r2, [r2, r4]
 8001348:	b16a      	cbz	r2, 8001366 <usb_standard_set_interface+0x4a>
		*iface->cur_altsetting = req->wValue;
 800134a:	7015      	strb	r5, [r2, #0]
 800134c:	461c      	mov	r4, r3
	} else if (req->wValue > 0) {
		return USBD_REQ_NOTSUPP;
	}

	if (usbd_dev->user_callback_set_altsetting) {
 800134e:	f8d0 30d8 	ldr.w	r3, [r0, #216]	; 0xd8
 8001352:	b113      	cbz	r3, 800135a <usb_standard_set_interface+0x3e>
			usbd_dev->user_callback_set_altsetting(usbd_dev,
 8001354:	884a      	ldrh	r2, [r1, #2]
 8001356:	8889      	ldrh	r1, [r1, #4]
 8001358:	4798      	blx	r3
							       req->wIndex,
							       req->wValue);
	}

	*len = 0;
 800135a:	2300      	movs	r3, #0
 800135c:	2001      	movs	r0, #1
 800135e:	8023      	strh	r3, [r4, #0]

	return USBD_REQ_HANDLED;
}
 8001360:	bd70      	pop	{r4, r5, r6, pc}
	const struct usb_interface *iface;

	(void)buf;

	if (req->wIndex >= cfx->bNumInterfaces) {
		return USBD_REQ_NOTSUPP;
 8001362:	2000      	movs	r0, #0
	}

	*len = 0;

	return USBD_REQ_HANDLED;
}
 8001364:	bd70      	pop	{r4, r5, r6, pc}
		return USBD_REQ_NOTSUPP;
	}

	if (iface->cur_altsetting) {
		*iface->cur_altsetting = req->wValue;
	} else if (req->wValue > 0) {
 8001366:	2d00      	cmp	r5, #0
 8001368:	d0f0      	beq.n	800134c <usb_standard_set_interface+0x30>
	const struct usb_interface *iface;

	(void)buf;

	if (req->wIndex >= cfx->bNumInterfaces) {
		return USBD_REQ_NOTSUPP;
 800136a:	4610      	mov	r0, r2
	}

	*len = 0;

	return USBD_REQ_HANDLED;
}
 800136c:	bd70      	pop	{r4, r5, r6, pc}
 800136e:	bf00      	nop

08001370 <usb_standard_get_descriptor>:

static enum usbd_request_return_codes
usb_standard_get_descriptor(usbd_device *usbd_dev,
			    struct usb_setup_data *req,
			    uint8_t **buf, uint16_t *len)
{
 8001370:	e92d 4ff0 	stmdb	sp!, {r4, r5, r6, r7, r8, r9, sl, fp, lr}
	int i, array_idx, descr_idx;
	struct usb_string_descriptor *sd;

	descr_idx = usb_descriptor_index(req->wValue);
 8001374:	884d      	ldrh	r5, [r1, #2]

static enum usbd_request_return_codes
usb_standard_get_descriptor(usbd_device *usbd_dev,
			    struct usb_setup_data *req,
			    uint8_t **buf, uint16_t *len)
{
 8001376:	b089      	sub	sp, #36	; 0x24
	return total;
}

static int usb_descriptor_type(uint16_t wValue)
{
	return wValue >> 8;
 8001378:	0a2c      	lsrs	r4, r5, #8
	int i, array_idx, descr_idx;
	struct usb_string_descriptor *sd;

	descr_idx = usb_descriptor_index(req->wValue);

	switch (usb_descriptor_type(req->wValue)) {
 800137a:	2c02      	cmp	r4, #2

static enum usbd_request_return_codes
usb_standard_get_descriptor(usbd_device *usbd_dev,
			    struct usb_setup_data *req,
			    uint8_t **buf, uint16_t *len)
{
 800137c:	9306      	str	r3, [sp, #24]
	int i, array_idx, descr_idx;
	struct usb_string_descriptor *sd;

	descr_idx = usb_descriptor_index(req->wValue);

	switch (usb_descriptor_type(req->wValue)) {
 800137e:	d009      	beq.n	8001394 <usb_standard_get_descriptor+0x24>
 8001380:	2c03      	cmp	r4, #3
 8001382:	f000 80fb 	beq.w	800157c <usb_standard_get_descriptor+0x20c>
 8001386:	2c01      	cmp	r4, #1
 8001388:	f000 80eb 	beq.w	8001562 <usb_standard_get_descriptor+0x1f2>
		} else {
			array_idx = descr_idx - 1;

			if (!usbd_dev->strings) {
				/* Device doesn't support strings. */
				return USBD_REQ_NOTSUPP;
 800138c:	2000      	movs	r0, #0
		*buf = (uint8_t *)sd;

		return USBD_REQ_HANDLED;
	}
	return USBD_REQ_NOTSUPP;
}
 800138e:	b009      	add	sp, #36	; 0x24
 8001390:	e8bd 8ff0 	ldmia.w	sp!, {r4, r5, r6, r7, r8, r9, sl, fp, pc}
	case USB_DT_DEVICE:
		*buf = (uint8_t *) usbd_dev->desc;
		*len = MIN(*len, usbd_dev->desc->bLength);
		return USBD_REQ_HANDLED;
	case USB_DT_CONFIGURATION:
		*buf = usbd_dev->ctrl_buf;
 8001394:	6901      	ldr	r1, [r0, #16]

static uint16_t build_config_descriptor(usbd_device *usbd_dev,
				   uint8_t index, uint8_t *buf, uint16_t len)
{
	uint8_t *tmpbuf = buf;
	const struct usb_config_descriptor *cfg = &usbd_dev->config[index];
 8001396:	b2ed      	uxtb	r5, r5
 8001398:	6847      	ldr	r7, [r0, #4]
 800139a:	eb05 0345 	add.w	r3, r5, r5, lsl #1
	case USB_DT_DEVICE:
		*buf = (uint8_t *) usbd_dev->desc;
		*len = MIN(*len, usbd_dev->desc->bLength);
		return USBD_REQ_HANDLED;
	case USB_DT_CONFIGURATION:
		*buf = usbd_dev->ctrl_buf;
 800139e:	6011      	str	r1, [r2, #0]
		*len = build_config_descriptor(usbd_dev, descr_idx, *buf, *len);
 80013a0:	9a06      	ldr	r2, [sp, #24]

static uint16_t build_config_descriptor(usbd_device *usbd_dev,
				   uint8_t index, uint8_t *buf, uint16_t len)
{
	uint8_t *tmpbuf = buf;
	const struct usb_config_descriptor *cfg = &usbd_dev->config[index];
 80013a2:	eb05 0583 	add.w	r5, r5, r3, lsl #2
	uint16_t count, total = 0, totallen = 0;
	uint16_t i, j, k;

	memcpy(buf, cfg, count = MIN(len, cfg->bLength));
 80013a6:	5d7e      	ldrb	r6, [r7, r5]
		*buf = (uint8_t *) usbd_dev->desc;
		*len = MIN(*len, usbd_dev->desc->bLength);
		return USBD_REQ_HANDLED;
	case USB_DT_CONFIGURATION:
		*buf = usbd_dev->ctrl_buf;
		*len = build_config_descriptor(usbd_dev, descr_idx, *buf, *len);
 80013a8:	8814      	ldrh	r4, [r2, #0]
	case USB_DT_DEVICE:
		*buf = (uint8_t *) usbd_dev->desc;
		*len = MIN(*len, usbd_dev->desc->bLength);
		return USBD_REQ_HANDLED;
	case USB_DT_CONFIGURATION:
		*buf = usbd_dev->ctrl_buf;
 80013aa:	460b      	mov	r3, r1
	uint8_t *tmpbuf = buf;
	const struct usb_config_descriptor *cfg = &usbd_dev->config[index];
	uint16_t count, total = 0, totallen = 0;
	uint16_t i, j, k;

	memcpy(buf, cfg, count = MIN(len, cfg->bLength));
 80013ac:	42a6      	cmp	r6, r4
 80013ae:	bf28      	it	cs
 80013b0:	4626      	movcs	r6, r4

static uint16_t build_config_descriptor(usbd_device *usbd_dev,
				   uint8_t index, uint8_t *buf, uint16_t len)
{
	uint8_t *tmpbuf = buf;
	const struct usb_config_descriptor *cfg = &usbd_dev->config[index];
 80013b2:	197a      	adds	r2, r7, r5
	uint16_t count, total = 0, totallen = 0;
	uint16_t i, j, k;

	memcpy(buf, cfg, count = MIN(len, cfg->bLength));
 80013b4:	4690      	mov	r8, r2
 80013b6:	46b2      	mov	sl, r6
	case USB_DT_DEVICE:
		*buf = (uint8_t *) usbd_dev->desc;
		*len = MIN(*len, usbd_dev->desc->bLength);
		return USBD_REQ_HANDLED;
	case USB_DT_CONFIGURATION:
		*buf = usbd_dev->ctrl_buf;
 80013b8:	9107      	str	r1, [sp, #28]

static uint16_t build_config_descriptor(usbd_device *usbd_dev,
				   uint8_t index, uint8_t *buf, uint16_t len)
{
	uint8_t *tmpbuf = buf;
	const struct usb_config_descriptor *cfg = &usbd_dev->config[index];
 80013ba:	9201      	str	r2, [sp, #4]
	uint16_t count, total = 0, totallen = 0;
	uint16_t i, j, k;

	memcpy(buf, cfg, count = MIN(len, cfg->bLength));
 80013bc:	4611      	mov	r1, r2
 80013be:	4632      	mov	r2, r6
 80013c0:	461e      	mov	r6, r3
 80013c2:	4618      	mov	r0, r3
 80013c4:	f001 fdf2 	bl	8002fac <memcpy>
	len -= count;
	total += count;
	totallen += cfg->bLength;

	/* For each interface... */
	for (i = 0; i < cfg->bNumInterfaces; i++) {
 80013c8:	f898 3004 	ldrb.w	r3, [r8, #4]
	uint16_t count, total = 0, totallen = 0;
	uint16_t i, j, k;

	memcpy(buf, cfg, count = MIN(len, cfg->bLength));
	buf += count;
	len -= count;
 80013cc:	eba4 040a 	sub.w	r4, r4, sl
 80013d0:	b2a4      	uxth	r4, r4
	total += count;
	totallen += cfg->bLength;
 80013d2:	5d7f      	ldrb	r7, [r7, r5]
	const struct usb_config_descriptor *cfg = &usbd_dev->config[index];
	uint16_t count, total = 0, totallen = 0;
	uint16_t i, j, k;

	memcpy(buf, cfg, count = MIN(len, cfg->bLength));
	buf += count;
 80013d4:	eb06 0b0a 	add.w	fp, r6, sl
	len -= count;
	total += count;
	totallen += cfg->bLength;

	/* For each interface... */
	for (i = 0; i < cfg->bNumInterfaces; i++) {
 80013d8:	2b00      	cmp	r3, #0
 80013da:	f000 80b9 	beq.w	8001550 <usb_standard_get_descriptor+0x1e0>
 80013de:	2300      	movs	r3, #0
 80013e0:	9302      	str	r3, [sp, #8]
 80013e2:	f8d8 2009 	ldr.w	r2, [r8, #9]
		/* Interface Association Descriptor, if any */
		if (cfg->interface[i].iface_assoc) {
 80013e6:	9b02      	ldr	r3, [sp, #8]
 80013e8:	011b      	lsls	r3, r3, #4
 80013ea:	9303      	str	r3, [sp, #12]
 80013ec:	18d3      	adds	r3, r2, r3
 80013ee:	689d      	ldr	r5, [r3, #8]
 80013f0:	b1bd      	cbz	r5, 8001422 <usb_standard_get_descriptor+0xb2>
			const struct usb_iface_assoc_descriptor *assoc =
					cfg->interface[i].iface_assoc;
			memcpy(buf, assoc, count = MIN(len, assoc->bLength));
 80013f2:	782e      	ldrb	r6, [r5, #0]
 80013f4:	4629      	mov	r1, r5
 80013f6:	42a6      	cmp	r6, r4
 80013f8:	bf28      	it	cs
 80013fa:	4626      	movcs	r6, r4
 80013fc:	4658      	mov	r0, fp
 80013fe:	4632      	mov	r2, r6
 8001400:	f001 fdd4 	bl	8002fac <memcpy>
			buf += count;
			len -= count;
			total += count;
			totallen += assoc->bLength;
 8001404:	782b      	ldrb	r3, [r5, #0]
 8001406:	9a01      	ldr	r2, [sp, #4]
 8001408:	441f      	add	r7, r3
 800140a:	f8d2 2009 	ldr.w	r2, [r2, #9]
 800140e:	9b03      	ldr	r3, [sp, #12]
		if (cfg->interface[i].iface_assoc) {
			const struct usb_iface_assoc_descriptor *assoc =
					cfg->interface[i].iface_assoc;
			memcpy(buf, assoc, count = MIN(len, assoc->bLength));
			buf += count;
			len -= count;
 8001410:	1ba4      	subs	r4, r4, r6
			total += count;
 8001412:	eb06 010a 	add.w	r1, r6, sl
		if (cfg->interface[i].iface_assoc) {
			const struct usb_iface_assoc_descriptor *assoc =
					cfg->interface[i].iface_assoc;
			memcpy(buf, assoc, count = MIN(len, assoc->bLength));
			buf += count;
			len -= count;
 8001416:	b2a4      	uxth	r4, r4
			total += count;
 8001418:	fa1f fa81 	uxth.w	sl, r1
		/* Interface Association Descriptor, if any */
		if (cfg->interface[i].iface_assoc) {
			const struct usb_iface_assoc_descriptor *assoc =
					cfg->interface[i].iface_assoc;
			memcpy(buf, assoc, count = MIN(len, assoc->bLength));
			buf += count;
 800141c:	44b3      	add	fp, r6
			len -= count;
			total += count;
			totallen += assoc->bLength;
 800141e:	b2bf      	uxth	r7, r7
 8001420:	18d3      	adds	r3, r2, r3
		}
		/* For each alternate setting... */
		for (j = 0; j < cfg->interface[i].num_altsetting; j++) {
 8001422:	7919      	ldrb	r1, [r3, #4]
 8001424:	2900      	cmp	r1, #0
 8001426:	f000 808a 	beq.w	800153e <usb_standard_get_descriptor+0x1ce>
 800142a:	2200      	movs	r2, #0
 800142c:	9200      	str	r2, [sp, #0]
			const struct usb_interface_descriptor *iface =
 800142e:	f8d3 900c 	ldr.w	r9, [r3, #12]
 8001432:	9b00      	ldr	r3, [sp, #0]
					&cfg->interface[i].altsetting[j];
			/* Copy interface descriptor. */
			memcpy(buf, iface, count = MIN(len, iface->bLength));
 8001434:	4658      	mov	r0, fp
			total += count;
			totallen += assoc->bLength;
		}
		/* For each alternate setting... */
		for (j = 0; j < cfg->interface[i].num_altsetting; j++) {
			const struct usb_interface_descriptor *iface =
 8001436:	eb03 0643 	add.w	r6, r3, r3, lsl #1
 800143a:	ebc6 06c6 	rsb	r6, r6, r6, lsl #3
					&cfg->interface[i].altsetting[j];
			/* Copy interface descriptor. */
			memcpy(buf, iface, count = MIN(len, iface->bLength));
 800143e:	f819 8006 	ldrb.w	r8, [r9, r6]
			total += count;
			totallen += assoc->bLength;
		}
		/* For each alternate setting... */
		for (j = 0; j < cfg->interface[i].num_altsetting; j++) {
			const struct usb_interface_descriptor *iface =
 8001442:	eb09 0506 	add.w	r5, r9, r6
					&cfg->interface[i].altsetting[j];
			/* Copy interface descriptor. */
			memcpy(buf, iface, count = MIN(len, iface->bLength));
 8001446:	45a0      	cmp	r8, r4
 8001448:	bf28      	it	cs
 800144a:	46a0      	movcs	r8, r4
 800144c:	4629      	mov	r1, r5
 800144e:	4642      	mov	r2, r8
 8001450:	f001 fdac 	bl	8002fac <memcpy>
			buf += count;
			len -= count;
			total += count;
			totallen += iface->bLength;
 8001454:	f819 3006 	ldrb.w	r3, [r9, r6]
			/* Copy extra bytes (function descriptors). */
			if (iface->extra) {
 8001458:	f8d5 100d 	ldr.w	r1, [r5, #13]
			const struct usb_interface_descriptor *iface =
					&cfg->interface[i].altsetting[j];
			/* Copy interface descriptor. */
			memcpy(buf, iface, count = MIN(len, iface->bLength));
			buf += count;
			len -= count;
 800145c:	eba4 0408 	sub.w	r4, r4, r8
			total += count;
 8001460:	44c2      	add	sl, r8
			totallen += iface->bLength;
 8001462:	441f      	add	r7, r3
			const struct usb_interface_descriptor *iface =
					&cfg->interface[i].altsetting[j];
			/* Copy interface descriptor. */
			memcpy(buf, iface, count = MIN(len, iface->bLength));
			buf += count;
			len -= count;
 8001464:	b2a4      	uxth	r4, r4
			total += count;
 8001466:	fa1f fa8a 	uxth.w	sl, sl
		for (j = 0; j < cfg->interface[i].num_altsetting; j++) {
			const struct usb_interface_descriptor *iface =
					&cfg->interface[i].altsetting[j];
			/* Copy interface descriptor. */
			memcpy(buf, iface, count = MIN(len, iface->bLength));
			buf += count;
 800146a:	44c3      	add	fp, r8
			len -= count;
			total += count;
			totallen += iface->bLength;
 800146c:	b2bf      	uxth	r7, r7
			/* Copy extra bytes (function descriptors). */
			if (iface->extra) {
 800146e:	b1a9      	cbz	r1, 800149c <usb_standard_get_descriptor+0x12c>
				memcpy(buf, iface->extra,
				       count = MIN(len, iface->extralen));
 8001470:	f8d5 6011 	ldr.w	r6, [r5, #17]
			len -= count;
			total += count;
			totallen += iface->bLength;
