Archive member included to satisfy reference by file (symbol)

libnewlib.a(memcpy-stub.c.o)  CMakeFiles/STM32_BLUE_PILL.dir/pxtapp/base/buffer.cpp.o (memcpy)
libnewlib.a(strcmp.S.o)       CMakeFiles/STM32_BLUE_PILL.dir/pxtapp/base/core.cpp.o (strcmp)
libnewlib.a(strlen.S.o)       CMakeFiles/STM32_BLUE_PILL.dir/pxtapp/base/core.cpp.o (strlen)
libnewlib.a(strtol.c.o)       CMakeFiles/STM32_BLUE_PILL.dir/pxtapp/base/core.cpp.o (strtol)
libnewlib.a(memcmp.c.o)       CMakeFiles/STM32_BLUE_PILL.dir/pxtapp/base/pxt.cpp.o (memcmp)
libnewlib.a(memmove.c.o)      CMakeFiles/STM32_BLUE_PILL.dir/pxtapp/base/buffer.cpp.o (memmove)
libnewlib.a(memset.c.o)       CMakeFiles/STM32_BLUE_PILL.dir/pxtapp/base/buffer.cpp.o (memset)
libnewlib.a(strstr.c.o)       CMakeFiles/STM32_BLUE_PILL.dir/pxtapp/base/core.cpp.o (strstr)
libnewlib.a(ctype_.c.o)       libnewlib.a(strtol.c.o) (_ctype_)
libnewlib.a(impure.c.o)       libnewlib.a(strtol.c.o) (_impure_ptr)
libcodal-core.a(CodalCompat.cpp.o)
                              CMakeFiles/STM32_BLUE_PILL.dir/pxtapp/base/core.cpp.o (codal::itoa(int, char*))
libcodal-core.a(CodalComponent.cpp.o)
                              CMakeFiles/STM32_BLUE_PILL.dir/pxtapp/core---stm32bluepill/codal.cpp.o (codal::CodalComponent::components)
libcodal-core.a(CodalDevice.cpp.o)
                              CMakeFiles/STM32_BLUE_PILL.dir/pxtapp/core---stm32bluepill/codal.cpp.o (vtable for codal::CodalDevice)
libcodal-core.a(CodalDmesg.cpp.o)
                              CMakeFiles/STM32_BLUE_PILL.dir/pxtapp/base/core.cpp.o (codal_dmesg)
libcodal-core.a(CodalFiber.cpp.o)
                              CMakeFiles/STM32_BLUE_PILL.dir/pxtapp/core---stm32bluepill/codal.cpp.o (codal::list_fibers(codal::Fiber**))
libcodal-core.a(CodalHeapAllocator.cpp.o)
                              CMakeFiles/STM32_BLUE_PILL.dir/pxtapp/base/gc.cpp.o (device_heap_size(unsigned char))
libcodal-core.a(CodalListener.cpp.o)
                              CMakeFiles/STM32_BLUE_PILL.dir/pxtapp/core---stm32bluepill/codal.cpp.o (codal::Listener::Listener(unsigned short, unsigned short, void (*)(codal::Event), unsigned short))
libcodal-core.a(Timer.cpp.o)  CMakeFiles/STM32_BLUE_PILL.dir/pxtapp/core---stm32bluepill/codal.cpp.o (codal::Timer::~Timer())
libcodal-core.a(MessageBus.cpp.o)
                              CMakeFiles/STM32_BLUE_PILL.dir/pxtapp/core---stm32bluepill/codal.cpp.o (codal::MessageBus::add(codal::Listener*))
libcodal-core.a(Event.cpp.o)  CMakeFiles/STM32_BLUE_PILL.dir/pxtapp/core---stm32bluepill/control.cpp.o (codal::Event::Event(unsigned short, unsigned short, codal::EventLaunchMode))
libcodal-core.a(MemberFunctionCallback.cpp.o)
                              libcodal-core.a(MessageBus.cpp.o) (codal::MemberFunctionCallback::fire(codal::Event))
liblibopencm3.a(vector.c.o)   (vector_table)
libnano-float.a(functions.c.o)
                              CMakeFiles/STM32_BLUE_PILL.dir/pxtapp/base/core.cpp.o (__wrap___aeabi_ddiv)
liblogger.a(logger.cpp.o)     CMakeFiles/STM32_BLUE_PILL.dir/pxtapp/base/pxt.cpp.o (debug_flush)
libbluepill.a(bluepill.cpp.o)
                              libcodal-core.a(Timer.cpp.o) (__cxa_pure_virtual)
libbluepill.a(led.cpp.o)      libbluepill.a(bluepill.cpp.o) (led_setup)
libbaseloader.a(baseloader.c.o)
                              (base_vector_table)
libbootloader.a(bootloader.c.o)
                              /Users/Luppy/stm32bluepill-makecode/pxt-maker/libs/stm32bluepill/built/codal/build/libraries/codal-libopencm3/CMakeFiles/hal.dir/stm32/hal/reset_handler.c.o (bootloader_start)
libbootloader.a(ghostfat.c.o)
                              libbootloader.a(bootloader.c.o) (flashBuf)
libbootloader.a(usb_conf.c.o)
                              libbootloader.a(bootloader.c.o) (usb_setup)
libbootloader.a(webusb.c.o)   libbootloader.a(usb_conf.c.o) (webusb_setup)
libbootloader.a(winusb.c.o)   libbootloader.a(usb_conf.c.o) (winusb_setup)
libbootloader.a(target_stm32f103.c.o)
                              libbootloader.a(bootloader.c.o) (boot_target_get_startup_mode)
libbootloader.a(cdc.c.o)      libbootloader.a(usb_conf.c.o) (cdcadm_transmit)
libbootloader.a(hf2.c.o)      libbootloader.a(usb_conf.c.o) (hf2_setup)
libbootloader.a(usb21_standard.c.o)
                              libbootloader.a(usb_conf.c.o) (usb21_setup)
libbootloader.a(backup.c.o)   libbootloader.a(target_stm32f103.c.o) (backup_write)
libhal.a(codal_target_hal.cpp.o)
                              /Users/Luppy/stm32bluepill-makecode/pxt-maker/libs/stm32bluepill/built/codal/build/libraries/codal-libopencm3/CMakeFiles/hal.dir/stm32/hal/reset_handler.c.o (target_init)
libhal.a(CortexContextSwitch.s.o)
                              libcodal-core.a(CodalFiber.cpp.o) (swap_context)
libcm.a(CmI2C.cpp.o)          CMakeFiles/STM32_BLUE_PILL.dir/pxtapp/core---stm32bluepill/i2c.cpp.o (codal::_cm::I2C::I2C(codal::Pin&, codal::Pin&))
libcm.a(CmPin.cpp.o)          CMakeFiles/STM32_BLUE_PILL.dir/pxtapp/core---stm32bluepill/pins.cpp.o (codal::_cm::Pin::getDigitalValue())
libcm.a(CmSPI.cpp.o)          CMakeFiles/STM32_BLUE_PILL.dir/pxtapp/core---stm32bluepill/spi.cpp.o (codal::_cm::SPI::SPI(codal::_cm::Pin&, codal::_cm::Pin&, codal::_cm::Pin&))
libcm.a(CmTimer.cpp.o)        CMakeFiles/STM32_BLUE_PILL.dir/pxtapp/core---stm32bluepill/codal.cpp.o (codal::_cm::Timer::Timer())
libcm.a(application.cpp.o)    /Users/Luppy/stm32bluepill-makecode/pxt-maker/libs/stm32bluepill/built/codal/build/libraries/codal-libopencm3/CMakeFiles/hal.dir/stm32/hal/reset_handler.c.o (application_start)
libcm.a(tasks.cpp.o)          libcm.a(CmTimer.cpp.o) (restart_callback)
libcm.a(CmPinMap.cpp.o)       libcm.a(CmSPI.cpp.o) (pinmap_peripheral)
libmodel.a(STM32BluePillIO.cpp.o)
                              libcm.a(CmSPI.cpp.o) (PinMap_SPI_SCK)
libqfplib.a(qfplib.S.o)       libnano-float.a(functions.c.o) (qfp_fadd)
libnewlib.a(strncpy.c.o)      libbootloader.a(usb_conf.c.o) (strncpy)
libcodal-core.a(I2C.cpp.o)    libcm.a(CmI2C.cpp.o) (codal::I2C::start())
liblibopencm3.a(scb.c.o)      libbootloader.a(bootloader.c.o) (scb_reset_system)
liblibopencm3.a(gpio_common_all.c.o)
                              libbluepill.a(led.cpp.o) (gpio_set)
liblibopencm3.a(pwr_common_v1.c.o)
                              libbootloader.a(backup.c.o) (pwr_disable_backup_domain_write_protect)
liblibopencm3.a(rcc_common_all.c.o)
                              libbluepill.a(led.cpp.o) (rcc_periph_clock_enable)
liblibopencm3.a(desig.c.o)    libbootloader.a(target_stm32f103.c.o) (desig_get_unique_id_as_string)
liblibopencm3.a(gpio.c.o)     libbluepill.a(led.cpp.o) (gpio_set_mode)
liblibopencm3.a(rcc.c.o)      libbluepill.a(bluepill.cpp.o) (rcc_clock_setup_in_hse_8mhz_out_72mhz)
liblibopencm3.a(st_usbfs_v1.c.o)
                              libbootloader.a(target_stm32f103.c.o) (st_usbfs_v1_usb_driver)
liblibopencm3.a(usb.c.o)      libbootloader.a(usb_conf.c.o) (usbd_init)
liblibopencm3.a(usb_control.c.o)
                              libbootloader.a(usb_conf.c.o) (usbd_register_control_callback)
liblibopencm3.a(usb_standard.c.o)
                              libbootloader.a(usb_conf.c.o) (usbd_register_set_config_callback)
liblibopencm3.a(flash_common_all.c.o)
                              liblibopencm3.a(rcc.c.o) (flash_set_ws)
liblibopencm3.a(st_usbfs_core.c.o)
                              liblibopencm3.a(st_usbfs_v1.c.o) (st_usbfs_set_address)
libcocoos.a(os_cbk.c.o)       libhal.a(codal_target_hal.cpp.o) (os_cbkSleep)
libcocoos.a(os_kernel.c.o)    libhal.a(codal_target_hal.cpp.o) (os_init)
libcocoos.a(os_msgqueue.c.o)  libcocoos.a(os_kernel.c.o) (os_msgQ_init)
libcocoos.a(os_sem.c.o)       libcocoos.a(os_kernel.c.o) (os_sem_init)
libcocoos.a(os_task.c.o)      libcocoos.a(os_kernel.c.o) (os_task_init)
libcocoos.a(os_assert.c.o)    libcocoos.a(os_msgqueue.c.o) (os_on_assert)
libcocoos.a(os_event.c.o)     libcocoos.a(os_kernel.c.o) (os_event_init)
libbluepill.a(timer.cpp.o)    libhal.a(codal_target_hal.cpp.o) (platform_start_timer)
liblibopencm3.a(nvic.c.o)     libbluepill.a(timer.cpp.o) (nvic_enable_irq)
liblibopencm3.a(exti_common_all.c.o)
                              libbluepill.a(timer.cpp.o) (exti_set_trigger)
liblibopencm3.a(rtc.c.o)      libbluepill.a(timer.cpp.o) (rtc_enter_config_mode)
/usr/local/Cellar/arm-none-eabi-gcc/7-2018-q2-update/gcc/bin/../lib/gcc/arm-none-eabi/7.3.1/thumb/v7-m/libgcc.a(_arm_addsubdf3.o)
                              CMakeFiles/STM32_BLUE_PILL.dir/pxtapp/base/core.cpp.o (__aeabi_ui2d)
/usr/local/Cellar/arm-none-eabi-gcc/7-2018-q2-update/gcc/bin/../lib/gcc/arm-none-eabi/7.3.1/thumb/v7-m/libgcc.a(_arm_truncdfsf2.o)
                              CMakeFiles/STM32_BLUE_PILL.dir/pxtapp/base/core.cpp.o (__aeabi_d2f)
/usr/local/Cellar/arm-none-eabi-gcc/7-2018-q2-update/gcc/bin/../lib/gcc/arm-none-eabi/7.3.1/thumb/v7-m/libgcc.a(_arm_addsubsf3.o)
                              libnano-float.a(functions.c.o) (__aeabi_i2f)
/usr/local/Cellar/arm-none-eabi-gcc/7-2018-q2-update/gcc/bin/../lib/gcc/arm-none-eabi/7.3.1/thumb/v7-m/libgcc.a(_arm_cmpsf2.o)
                              liblogger.a(logger.cpp.o) (__aeabi_fcmpeq)
/usr/local/Cellar/arm-none-eabi-gcc/7-2018-q2-update/gcc/bin/../lib/gcc/arm-none-eabi/7.3.1/thumb/v7-m/libgcc.a(_arm_fixunssfsi.o)
                              liblogger.a(logger.cpp.o) (__aeabi_f2uiz)
/usr/local/Cellar/arm-none-eabi-gcc/7-2018-q2-update/gcc/bin/../lib/gcc/arm-none-eabi/7.3.1/thumb/v7-m/libgcc.a(_powidf2.o)
                              CMakeFiles/STM32_BLUE_PILL.dir/pxtapp/base/core.cpp.o (__powidf2)

Allocating common symbols
Common symbol       size              file

wrState             0x35              libbootloader.a(ghostfat.c.o)
hf2_buffer_mini     0x5b              libbootloader.a(hf2.c.o)
st_usbfs_force_nak  0x8               liblibopencm3.a(st_usbfs_core.c.o)
hal_bss_test        0x4               /Users/Luppy/stm32bluepill-makecode/pxt-maker/libs/stm32bluepill/built/codal/build/libraries/codal-libopencm3/CMakeFiles/hal.dir/stm32/hal/reset_handler.c.o
st_usbfs_dev        0xfc              liblibopencm3.a(st_usbfs_core.c.o)
debug_base_result   0x4               libbaseloader.a(baseloader.c.o)
running_tid         0x1               libcocoos.a(os_kernel.c.o)
running             0x1               libcocoos.a(os_kernel.c.o)
last_running_task   0x1               libcocoos.a(os_kernel.c.o)

Discarded input sections

 .text          0x0000000000000000        0x0 /Users/Luppy/stm32bluepill-makecode/pxt-maker/libs/stm32bluepill/built/codal/build/libraries/codal-libopencm3/CMakeFiles/hal.dir/stm32/hal/reset_handler.c.o
 .data          0x0000000000000000        0x0 /Users/Luppy/stm32bluepill-makecode/pxt-maker/libs/stm32bluepill/built/codal/build/libraries/codal-libopencm3/CMakeFiles/hal.dir/stm32/hal/reset_handler.c.o
 .bss           0x0000000000000000        0x0 /Users/Luppy/stm32bluepill-makecode/pxt-maker/libs/stm32bluepill/built/codal/build/libraries/codal-libopencm3/CMakeFiles/hal.dir/stm32/hal/reset_handler.c.o
 .text          0x0000000000000000        0x0 CMakeFiles/STM32_BLUE_PILL.dir/pxtapp/base/advmath.cpp.o
 .data          0x0000000000000000        0x0 CMakeFiles/STM32_BLUE_PILL.dir/pxtapp/base/advmath.cpp.o
 .bss           0x0000000000000000        0x0 CMakeFiles/STM32_BLUE_PILL.dir/pxtapp/base/advmath.cpp.o
 .text          0x0000000000000000        0x0 CMakeFiles/STM32_BLUE_PILL.dir/pxtapp/base/buffer.cpp.o
 .data          0x0000000000000000        0x0 CMakeFiles/STM32_BLUE_PILL.dir/pxtapp/base/buffer.cpp.o
 .bss           0x0000000000000000        0x0 CMakeFiles/STM32_BLUE_PILL.dir/pxtapp/base/buffer.cpp.o
 .text          0x0000000000000000        0x0 CMakeFiles/STM32_BLUE_PILL.dir/pxtapp/base/control.cpp.o
 .data          0x0000000000000000        0x0 CMakeFiles/STM32_BLUE_PILL.dir/pxtapp/base/control.cpp.o
 .bss           0x0000000000000000        0x0 CMakeFiles/STM32_BLUE_PILL.dir/pxtapp/base/control.cpp.o
 .text          0x0000000000000000        0x0 CMakeFiles/STM32_BLUE_PILL.dir/pxtapp/base/core.cpp.o
 .data          0x0000000000000000        0x0 CMakeFiles/STM32_BLUE_PILL.dir/pxtapp/base/core.cpp.o
 .bss           0x0000000000000000        0x0 CMakeFiles/STM32_BLUE_PILL.dir/pxtapp/base/core.cpp.o
 .text._ZN3pxt10seedRandomEj
                0x0000000000000000        0xc CMakeFiles/STM32_BLUE_PILL.dir/pxtapp/base/core.cpp.o
 .text._ZN3pxt7eqFixupEPNS_12TValueStructE
                0x0000000000000000       0x18 CMakeFiles/STM32_BLUE_PILL.dir/pxtapp/base/core.cpp.o
 .text          0x0000000000000000        0x0 CMakeFiles/STM32_BLUE_PILL.dir/pxtapp/base/gc.cpp.o
 .data          0x0000000000000000        0x0 CMakeFiles/STM32_BLUE_PILL.dir/pxtapp/base/gc.cpp.o
 .bss           0x0000000000000000        0x0 CMakeFiles/STM32_BLUE_PILL.dir/pxtapp/base/gc.cpp.o
 .text.app_free
                0x0000000000000000       0x28 CMakeFiles/STM32_BLUE_PILL.dir/pxtapp/base/gc.cpp.o
 .text._ZN3pxt8gcFreezeEv
                0x0000000000000000       0x10 CMakeFiles/STM32_BLUE_PILL.dir/pxtapp/base/gc.cpp.o
 .text._ZN3pxt12unregisterGCEPPNS_12TValueStructEi
                0x0000000000000000       0x2c CMakeFiles/STM32_BLUE_PILL.dir/pxtapp/base/gc.cpp.o
 .text._ZN3pxt8RefImage4scanEPS0_
                0x0000000000000000       0x10 CMakeFiles/STM32_BLUE_PILL.dir/pxtapp/base/gc.cpp.o
 .text._ZN3pxt8RefImage6gcsizeEPS0_
                0x0000000000000000       0x10 CMakeFiles/STM32_BLUE_PILL.dir/pxtapp/base/gc.cpp.o
 .text          0x0000000000000000        0x0 CMakeFiles/STM32_BLUE_PILL.dir/pxtapp/base/loops.cpp.o
 .data          0x0000000000000000        0x0 CMakeFiles/STM32_BLUE_PILL.dir/pxtapp/base/loops.cpp.o
 .bss           0x0000000000000000        0x0 CMakeFiles/STM32_BLUE_PILL.dir/pxtapp/base/loops.cpp.o
 .text          0x0000000000000000        0x0 CMakeFiles/STM32_BLUE_PILL.dir/pxtapp/base/pxt.cpp.o
 .data          0x0000000000000000        0x0 CMakeFiles/STM32_BLUE_PILL.dir/pxtapp/base/pxt.cpp.o
 .bss           0x0000000000000000        0x0 CMakeFiles/STM32_BLUE_PILL.dir/pxtapp/base/pxt.cpp.o
 .text._ZN3pxt9RefRecord2ldEi
                0x0000000000000000        0x8 CMakeFiles/STM32_BLUE_PILL.dir/pxtapp/base/pxt.cpp.o
 .text._ZN3pxt9RefRecord5ldrefEi
                0x0000000000000000        0x8 CMakeFiles/STM32_BLUE_PILL.dir/pxtapp/base/pxt.cpp.o
 .text._ZN3pxt9RefRecord2stEiPNS_12TValueStructE
                0x0000000000000000        0x8 CMakeFiles/STM32_BLUE_PILL.dir/pxtapp/base/pxt.cpp.o
 .text._ZN3pxt9RefRecord5strefEiPNS_12TValueStructE
                0x0000000000000000        0x8 CMakeFiles/STM32_BLUE_PILL.dir/pxtapp/base/pxt.cpp.o
 .text._ZN3pxt9RefObject7printVTEv
                0x0000000000000000        0xc CMakeFiles/STM32_BLUE_PILL.dir/pxtapp/base/pxt.cpp.o
 .text._ZN3pxt9LLSegment9setLengthEj
                0x0000000000000000        0xc CMakeFiles/STM32_BLUE_PILL.dir/pxtapp/base/pxt.cpp.o
 .text._ZN3pxt9LLSegment7destroyEv
                0x0000000000000000       0x14 CMakeFiles/STM32_BLUE_PILL.dir/pxtapp/base/pxt.cpp.o
 .text._ZN3pxt7Segment6ensureEt
                0x0000000000000000        0xc CMakeFiles/STM32_BLUE_PILL.dir/pxtapp/base/pxt.cpp.o
 .text._ZN3pxt7Segment7destroyEv
                0x0000000000000000        0x8 CMakeFiles/STM32_BLUE_PILL.dir/pxtapp/base/pxt.cpp.o
 .text._ZN3pxt9RefActionC2Ev
                0x0000000000000000        0xc CMakeFiles/STM32_BLUE_PILL.dir/pxtapp/base/pxt.cpp.o
 .text._ZN3pxt8checkStrEbPKc
                0x0000000000000000        0xc CMakeFiles/STM32_BLUE_PILL.dir/pxtapp/base/pxt.cpp.o
 .group         0x0000000000000000        0x8 CMakeFiles/STM32_BLUE_PILL.dir/pxtapp/core---stm32bluepill/codal.cpp.o
 .group         0x0000000000000000        0xc CMakeFiles/STM32_BLUE_PILL.dir/pxtapp/core---stm32bluepill/codal.cpp.o
 .text          0x0000000000000000        0x0 CMakeFiles/STM32_BLUE_PILL.dir/pxtapp/core---stm32bluepill/codal.cpp.o
 .data          0x0000000000000000        0x0 CMakeFiles/STM32_BLUE_PILL.dir/pxtapp/core---stm32bluepill/codal.cpp.o
 .bss           0x0000000000000000        0x0 CMakeFiles/STM32_BLUE_PILL.dir/pxtapp/core---stm32bluepill/codal.cpp.o
 .binmeta       0x0000000000000000       0x38 CMakeFiles/STM32_BLUE_PILL.dir/pxtapp/core---stm32bluepill/codal.cpp.o
 .text          0x0000000000000000        0x0 CMakeFiles/STM32_BLUE_PILL.dir/pxtapp/core---stm32bluepill/control.cpp.o
 .data          0x0000000000000000        0x0 CMakeFiles/STM32_BLUE_PILL.dir/pxtapp/core---stm32bluepill/control.cpp.o
 .bss           0x0000000000000000        0x0 CMakeFiles/STM32_BLUE_PILL.dir/pxtapp/core---stm32bluepill/control.cpp.o
 .text          0x0000000000000000        0x0 CMakeFiles/STM32_BLUE_PILL.dir/pxtapp/core---stm32bluepill/dmac.cpp.o
 .data          0x0000000000000000        0x0 CMakeFiles/STM32_BLUE_PILL.dir/pxtapp/core---stm32bluepill/dmac.cpp.o
 .bss           0x0000000000000000        0x0 CMakeFiles/STM32_BLUE_PILL.dir/pxtapp/core---stm32bluepill/dmac.cpp.o
 .debug_info    0x0000000000000000     0x1ce0 CMakeFiles/STM32_BLUE_PILL.dir/pxtapp/core---stm32bluepill/dmac.cpp.o
 .debug_abbrev  0x0000000000000000      0x42a CMakeFiles/STM32_BLUE_PILL.dir/pxtapp/core---stm32bluepill/dmac.cpp.o
 .debug_aranges
                0x0000000000000000       0x18 CMakeFiles/STM32_BLUE_PILL.dir/pxtapp/core---stm32bluepill/dmac.cpp.o
 .debug_line    0x0000000000000000      0x62f CMakeFiles/STM32_BLUE_PILL.dir/pxtapp/core---stm32bluepill/dmac.cpp.o
 .debug_str     0x0000000000000000     0x1247 CMakeFiles/STM32_BLUE_PILL.dir/pxtapp/core---stm32bluepill/dmac.cpp.o
 .comment       0x0000000000000000       0x80 CMakeFiles/STM32_BLUE_PILL.dir/pxtapp/core---stm32bluepill/dmac.cpp.o
 .ARM.attributes
                0x0000000000000000       0x33 CMakeFiles/STM32_BLUE_PILL.dir/pxtapp/core---stm32bluepill/dmac.cpp.o
 .text          0x0000000000000000        0x0 CMakeFiles/STM32_BLUE_PILL.dir/pxtapp/core---stm32bluepill/hf2.cpp.o
 .data          0x0000000000000000        0x0 CMakeFiles/STM32_BLUE_PILL.dir/pxtapp/core---stm32bluepill/hf2.cpp.o
 .bss           0x0000000000000000        0x0 CMakeFiles/STM32_BLUE_PILL.dir/pxtapp/core---stm32bluepill/hf2.cpp.o
 .debug_info    0x0000000000000000     0x1ce0 CMakeFiles/STM32_BLUE_PILL.dir/pxtapp/core---stm32bluepill/hf2.cpp.o
 .debug_abbrev  0x0000000000000000      0x42a CMakeFiles/STM32_BLUE_PILL.dir/pxtapp/core---stm32bluepill/hf2.cpp.o
 .debug_aranges
                0x0000000000000000       0x18 CMakeFiles/STM32_BLUE_PILL.dir/pxtapp/core---stm32bluepill/hf2.cpp.o
 .debug_line    0x0000000000000000      0x62f CMakeFiles/STM32_BLUE_PILL.dir/pxtapp/core---stm32bluepill/hf2.cpp.o
 .debug_str     0x0000000000000000     0x1246 CMakeFiles/STM32_BLUE_PILL.dir/pxtapp/core---stm32bluepill/hf2.cpp.o
 .comment       0x0000000000000000       0x80 CMakeFiles/STM32_BLUE_PILL.dir/pxtapp/core---stm32bluepill/hf2.cpp.o
 .ARM.attributes
                0x0000000000000000       0x33 CMakeFiles/STM32_BLUE_PILL.dir/pxtapp/core---stm32bluepill/hf2.cpp.o
 .text          0x0000000000000000        0x0 CMakeFiles/STM32_BLUE_PILL.dir/pxtapp/core---stm32bluepill/i2c.cpp.o
 .data          0x0000000000000000        0x0 CMakeFiles/STM32_BLUE_PILL.dir/pxtapp/core---stm32bluepill/i2c.cpp.o
 .bss           0x0000000000000000        0x0 CMakeFiles/STM32_BLUE_PILL.dir/pxtapp/core---stm32bluepill/i2c.cpp.o
 .group         0x0000000000000000        0x8 CMakeFiles/STM32_BLUE_PILL.dir/pxtapp/core---stm32bluepill/pins.cpp.o
 .group         0x0000000000000000        0x8 CMakeFiles/STM32_BLUE_PILL.dir/pxtapp/core---stm32bluepill/pins.cpp.o
 .group         0x0000000000000000        0x8 CMakeFiles/STM32_BLUE_PILL.dir/pxtapp/core---stm32bluepill/pins.cpp.o
 .group         0x0000000000000000        0xc CMakeFiles/STM32_BLUE_PILL.dir/pxtapp/core---stm32bluepill/pins.cpp.o
 .text          0x0000000000000000        0x0 CMakeFiles/STM32_BLUE_PILL.dir/pxtapp/core---stm32bluepill/pins.cpp.o
 .data          0x0000000000000000        0x0 CMakeFiles/STM32_BLUE_PILL.dir/pxtapp/core---stm32bluepill/pins.cpp.o
 .bss           0x0000000000000000        0x0 CMakeFiles/STM32_BLUE_PILL.dir/pxtapp/core---stm32bluepill/pins.cpp.o
 .text._ZN3pxt7linkPinEii
                0x0000000000000000       0x24 CMakeFiles/STM32_BLUE_PILL.dir/pxtapp/core---stm32bluepill/pins.cpp.o
 .text._ZN3pxt15lookupComponentEi
                0x0000000000000000       0x30 CMakeFiles/STM32_BLUE_PILL.dir/pxtapp/core---stm32bluepill/pins.cpp.o
 .text          0x0000000000000000        0x0 CMakeFiles/STM32_BLUE_PILL.dir/pxtapp/core---stm32bluepill/pinsAnalog.cpp.o
 .data          0x0000000000000000        0x0 CMakeFiles/STM32_BLUE_PILL.dir/pxtapp/core---stm32bluepill/pinsAnalog.cpp.o
 .bss           0x0000000000000000        0x0 CMakeFiles/STM32_BLUE_PILL.dir/pxtapp/core---stm32bluepill/pinsAnalog.cpp.o
 .text          0x0000000000000000        0x0 CMakeFiles/STM32_BLUE_PILL.dir/pxtapp/core---stm32bluepill/pinsDigital.cpp.o
 .data          0x0000000000000000        0x0 CMakeFiles/STM32_BLUE_PILL.dir/pxtapp/core---stm32bluepill/pinsDigital.cpp.o
 .bss           0x0000000000000000        0x0 CMakeFiles/STM32_BLUE_PILL.dir/pxtapp/core---stm32bluepill/pinsDigital.cpp.o
 .text          0x0000000000000000        0x0 CMakeFiles/STM32_BLUE_PILL.dir/pxtapp/core---stm32bluepill/pinsPWM.cpp.o
 .data          0x0000000000000000        0x0 CMakeFiles/STM32_BLUE_PILL.dir/pxtapp/core---stm32bluepill/pinsPWM.cpp.o
 .bss           0x0000000000000000        0x0 CMakeFiles/STM32_BLUE_PILL.dir/pxtapp/core---stm32bluepill/pinsPWM.cpp.o
 .text          0x0000000000000000        0x0 CMakeFiles/STM32_BLUE_PILL.dir/pxtapp/core---stm32bluepill/platform.cpp.o
 .data          0x0000000000000000        0x0 CMakeFiles/STM32_BLUE_PILL.dir/pxtapp/core---stm32bluepill/platform.cpp.o
 .bss           0x0000000000000000        0x0 CMakeFiles/STM32_BLUE_PILL.dir/pxtapp/core---stm32bluepill/platform.cpp.o
 .text._ZN3pxt18platformSendSerialEPKci
                0x0000000000000000        0xc CMakeFiles/STM32_BLUE_PILL.dir/pxtapp/core---stm32bluepill/platform.cpp.o
 .rodata._ZN3pxt18platformSendSerialEPKci.str1.4
                0x0000000000000000       0x1b CMakeFiles/STM32_BLUE_PILL.dir/pxtapp/core---stm32bluepill/platform.cpp.o
 .text          0x0000000000000000        0x0 CMakeFiles/STM32_BLUE_PILL.dir/pxtapp/core---stm32bluepill/spi.cpp.o
 .data          0x0000000000000000        0x0 CMakeFiles/STM32_BLUE_PILL.dir/pxtapp/core---stm32bluepill/spi.cpp.o
 .bss           0x0000000000000000        0x0 CMakeFiles/STM32_BLUE_PILL.dir/pxtapp/core---stm32bluepill/spi.cpp.o
 .text          0x0000000000000000        0x0 CMakeFiles/STM32_BLUE_PILL.dir/pxtapp/core---stm32bluepill/usb.cpp.o
 .data          0x0000000000000000        0x0 CMakeFiles/STM32_BLUE_PILL.dir/pxtapp/core---stm32bluepill/usb.cpp.o
 .bss           0x0000000000000000        0x0 CMakeFiles/STM32_BLUE_PILL.dir/pxtapp/core---stm32bluepill/usb.cpp.o
 .text._ZN3pxt13setSendToUARTEPFvPKciE
                0x0000000000000000        0xc CMakeFiles/STM32_BLUE_PILL.dir/pxtapp/core---stm32bluepill/usb.cpp.o
 .text          0x0000000000000000        0x0 CMakeFiles/STM32_BLUE_PILL.dir/pxtapp/main.cpp.o
 .data          0x0000000000000000        0x0 CMakeFiles/STM32_BLUE_PILL.dir/pxtapp/main.cpp.o
 .bss           0x0000000000000000        0x0 CMakeFiles/STM32_BLUE_PILL.dir/pxtapp/main.cpp.o
 .group         0x0000000000000000        0x8 CMakeFiles/STM32_BLUE_PILL.dir/pxtapp/pointers.cpp.o
 .group         0x0000000000000000        0x8 CMakeFiles/STM32_BLUE_PILL.dir/pxtapp/pointers.cpp.o
 .group         0x0000000000000000        0xc CMakeFiles/STM32_BLUE_PILL.dir/pxtapp/pointers.cpp.o
 .group         0x0000000000000000        0x8 CMakeFiles/STM32_BLUE_PILL.dir/pxtapp/pointers.cpp.o
 .group         0x0000000000000000        0x8 CMakeFiles/STM32_BLUE_PILL.dir/pxtapp/pointers.cpp.o
 .group         0x0000000000000000        0x8 CMakeFiles/STM32_BLUE_PILL.dir/pxtapp/pointers.cpp.o
 .text          0x0000000000000000        0x0 CMakeFiles/STM32_BLUE_PILL.dir/pxtapp/pointers.cpp.o
 .data          0x0000000000000000        0x0 CMakeFiles/STM32_BLUE_PILL.dir/pxtapp/pointers.cpp.o
 .bss           0x0000000000000000        0x0 CMakeFiles/STM32_BLUE_PILL.dir/pxtapp/pointers.cpp.o
 .text          0x0000000000000000        0x0 libnewlib.a(memcpy-stub.c.o)
 .data          0x0000000000000000        0x0 libnewlib.a(memcpy-stub.c.o)
 .bss           0x0000000000000000        0x0 libnewlib.a(memcpy-stub.c.o)
 .data          0x0000000000000000        0x0 libnewlib.a(strcmp.S.o)
 .bss           0x0000000000000000        0x0 libnewlib.a(strcmp.S.o)
 .data          0x0000000000000000        0x0 libnewlib.a(strlen.S.o)
 .bss           0x0000000000000000        0x0 libnewlib.a(strlen.S.o)
 .text          0x0000000000000000        0x0 libnewlib.a(strtol.c.o)
 .data          0x0000000000000000        0x0 libnewlib.a(strtol.c.o)
 .bss           0x0000000000000000        0x0 libnewlib.a(strtol.c.o)
 .text._strtol_r
                0x0000000000000000        0x4 libnewlib.a(strtol.c.o)
 .text.strtol_l
                0x0000000000000000       0x14 libnewlib.a(strtol.c.o)
 .text          0x0000000000000000        0x0 libnewlib.a(memcmp.c.o)
 .data          0x0000000000000000        0x0 libnewlib.a(memcmp.c.o)
 .bss           0x0000000000000000        0x0 libnewlib.a(memcmp.c.o)
 .text          0x0000000000000000        0x0 libnewlib.a(memmove.c.o)
 .data          0x0000000000000000        0x0 libnewlib.a(memmove.c.o)
 .bss           0x0000000000000000        0x0 libnewlib.a(memmove.c.o)
 .text          0x0000000000000000        0x0 libnewlib.a(memset.c.o)
 .data          0x0000000000000000        0x0 libnewlib.a(memset.c.o)
 .bss           0x0000000000000000        0x0 libnewlib.a(memset.c.o)
 .text          0x0000000000000000        0x0 libnewlib.a(strstr.c.o)
 .data          0x0000000000000000        0x0 libnewlib.a(strstr.c.o)
 .bss           0x0000000000000000        0x0 libnewlib.a(strstr.c.o)
 .text          0x0000000000000000        0x0 libnewlib.a(ctype_.c.o)
 .data          0x0000000000000000        0x0 libnewlib.a(ctype_.c.o)
 .bss           0x0000000000000000        0x0 libnewlib.a(ctype_.c.o)
 .text          0x0000000000000000        0x0 libnewlib.a(impure.c.o)
 .data          0x0000000000000000        0x0 libnewlib.a(impure.c.o)
 .bss           0x0000000000000000        0x0 libnewlib.a(impure.c.o)
 .rodata._global_impure_ptr
                0x0000000000000000        0x4 libnewlib.a(impure.c.o)
 .text          0x0000000000000000        0x0 libcodal-core.a(CodalCompat.cpp.o)
 .data          0x0000000000000000        0x0 libcodal-core.a(CodalCompat.cpp.o)
 .bss           0x0000000000000000        0x0 libcodal-core.a(CodalCompat.cpp.o)
 .text._ZN5codal11seed_randomEm
                0x0000000000000000        0xc libcodal-core.a(CodalCompat.cpp.o)
 .text._ZN5codal6randomEi
                0x0000000000000000       0x54 libcodal-core.a(CodalCompat.cpp.o)
 .bss._ZL12random_value
                0x0000000000000000        0x4 libcodal-core.a(CodalCompat.cpp.o)
 .group         0x0000000000000000        0x8 libcodal-core.a(CodalComponent.cpp.o)
 .group         0x0000000000000000        0x8 libcodal-core.a(CodalComponent.cpp.o)
 .group         0x0000000000000000        0x8 libcodal-core.a(CodalComponent.cpp.o)
 .text          0x0000000000000000        0x0 libcodal-core.a(CodalComponent.cpp.o)
 .data          0x0000000000000000        0x0 libcodal-core.a(CodalComponent.cpp.o)
 .bss           0x0000000000000000        0x0 libcodal-core.a(CodalComponent.cpp.o)
 .group         0x0000000000000000        0xc libcodal-core.a(CodalDevice.cpp.o)
 .group         0x0000000000000000        0xc libcodal-core.a(CodalDevice.cpp.o)
 .group         0x0000000000000000        0xc libcodal-core.a(CodalDevice.cpp.o)
 .group         0x0000000000000000        0xc libcodal-core.a(CodalDevice.cpp.o)
 .group         0x0000000000000000        0xc libcodal-core.a(CodalDevice.cpp.o)
 .group         0x0000000000000000        0xc libcodal-core.a(CodalDevice.cpp.o)
 .text          0x0000000000000000        0x0 libcodal-core.a(CodalDevice.cpp.o)
 .data          0x0000000000000000        0x0 libcodal-core.a(CodalDevice.cpp.o)
 .bss           0x0000000000000000        0x0 libcodal-core.a(CodalDevice.cpp.o)
 .text          0x0000000000000000        0x0 libcodal-core.a(CodalDmesg.cpp.o)
 .data          0x0000000000000000        0x0 libcodal-core.a(CodalDmesg.cpp.o)
 .bss           0x0000000000000000        0x0 libcodal-core.a(CodalDmesg.cpp.o)
 .text.codal_dmesg_set_flush_fn
                0x0000000000000000        0xc libcodal-core.a(CodalDmesg.cpp.o)
 .text.codal_dmesg_flush
                0x0000000000000000       0x10 libcodal-core.a(CodalDmesg.cpp.o)
 .text.codal_dmesgf
                0x0000000000000000       0x2c libcodal-core.a(CodalDmesg.cpp.o)
 .bss._ZL14dmesg_flush_fn
                0x0000000000000000        0x4 libcodal-core.a(CodalDmesg.cpp.o)
 .group         0x0000000000000000        0x8 libcodal-core.a(CodalFiber.cpp.o)
 .group         0x0000000000000000        0x8 libcodal-core.a(CodalFiber.cpp.o)
 .text          0x0000000000000000        0x0 libcodal-core.a(CodalFiber.cpp.o)
 .data          0x0000000000000000        0x0 libcodal-core.a(CodalFiber.cpp.o)
 .bss           0x0000000000000000        0x0 libcodal-core.a(CodalFiber.cpp.o)
 .text._ZN5codal10EventModel3addEPNS_8ListenerE
                0x0000000000000000        0x8 libcodal-core.a(CodalFiber.cpp.o)
 .text._ZN5codal13dequeue_fiberEPNS_5FiberE
                0x0000000000000000        0xc libcodal-core.a(CodalFiber.cpp.o)
 .text._ZN5codal6invokeEPFvvE
                0x0000000000000000       0x98 libcodal-core.a(CodalFiber.cpp.o)
 .text          0x0000000000000000        0x0 libcodal-core.a(CodalHeapAllocator.cpp.o)
 .data          0x0000000000000000        0x0 libcodal-core.a(CodalHeapAllocator.cpp.o)
 .bss           0x0000000000000000        0x0 libcodal-core.a(CodalHeapAllocator.cpp.o)
 .text._malloc_r
                0x0000000000000000        0xc libcodal-core.a(CodalHeapAllocator.cpp.o)
 .text._free_r  0x0000000000000000        0xc libcodal-core.a(CodalHeapAllocator.cpp.o)
 .text          0x0000000000000000        0x0 libcodal-core.a(CodalListener.cpp.o)
 .data          0x0000000000000000        0x0 libcodal-core.a(CodalListener.cpp.o)
 .bss           0x0000000000000000        0x0 libcodal-core.a(CodalListener.cpp.o)
 .text._ZN5codal8ListenerC2EttPFvNS_5EventEPvES2_t
                0x0000000000000000       0x38 libcodal-core.a(CodalListener.cpp.o)
 .text          0x0000000000000000        0x0 libcodal-core.a(Timer.cpp.o)
 .data          0x0000000000000000        0x0 libcodal-core.a(Timer.cpp.o)
 .bss           0x0000000000000000        0x0 libcodal-core.a(Timer.cpp.o)
 .text._ZN5codal5Timer13getTimerEventEv
                0x0000000000000000       0x2c libcodal-core.a(Timer.cpp.o)
 .text._ZN5codal5Timer17releaseTimerEventEPNS_10TimerEventE
                0x0000000000000000       0x10 libcodal-core.a(Timer.cpp.o)
 .text._ZN5codal5Timer7getTimeEv
                0x0000000000000000       0x10 libcodal-core.a(Timer.cpp.o)
 .text._ZN5codal5Timer9getTimeUsEv
                0x0000000000000000       0x10 libcodal-core.a(Timer.cpp.o)
 .text._ZN5codal5Timer6cancelEtt
                0x0000000000000000       0x34 libcodal-core.a(Timer.cpp.o)
 .text._ZN5codal5Timer10eventAfterEmtt
                0x0000000000000000       0x18 libcodal-core.a(Timer.cpp.o)
 .text._ZN5codal5Timer12eventAfterUsEmtt
                0x0000000000000000       0x10 libcodal-core.a(Timer.cpp.o)
 .text._ZN5codal5Timer10eventEveryEmtt
                0x0000000000000000       0x18 libcodal-core.a(Timer.cpp.o)
 .text._ZN5codal5Timer12eventEveryUsEmtt
                0x0000000000000000       0x10 libcodal-core.a(Timer.cpp.o)
 .text._ZN5codal27system_timer_event_after_usEmtt
                0x0000000000000000       0x2c libcodal-core.a(Timer.cpp.o)
 .text._ZN5codal24system_timer_event_everyEmtt
                0x0000000000000000       0x34 libcodal-core.a(Timer.cpp.o)
 .text._ZN5codal24system_timer_event_afterEmtt
                0x0000000000000000       0x34 libcodal-core.a(Timer.cpp.o)
 .text._ZN5codal25system_timer_cancel_eventEtt
                0x0000000000000000       0x48 libcodal-core.a(Timer.cpp.o)
 .text._ZN5codal20system_timer_wait_usEm
                0x0000000000000000       0x38 libcodal-core.a(Timer.cpp.o)
 .text._ZN5codal20system_timer_wait_msEm
                0x0000000000000000        0xc libcodal-core.a(Timer.cpp.o)
 .group         0x0000000000000000        0x8 libcodal-core.a(MessageBus.cpp.o)
 .group         0x0000000000000000        0x8 libcodal-core.a(MessageBus.cpp.o)
 .group         0x0000000000000000        0x8 libcodal-core.a(MessageBus.cpp.o)
 .group         0x0000000000000000        0x8 libcodal-core.a(MessageBus.cpp.o)
 .group         0x0000000000000000        0x8 libcodal-core.a(MessageBus.cpp.o)
 .group         0x0000000000000000        0x8 libcodal-core.a(MessageBus.cpp.o)
 .group         0x0000000000000000       0x14 libcodal-core.a(MessageBus.cpp.o)
 .group         0x0000000000000000        0x8 libcodal-core.a(MessageBus.cpp.o)
 .group         0x0000000000000000        0xc libcodal-core.a(MessageBus.cpp.o)
 .group         0x0000000000000000        0xc libcodal-core.a(MessageBus.cpp.o)
 .text          0x0000000000000000        0x0 libcodal-core.a(MessageBus.cpp.o)
 .data          0x0000000000000000        0x0 libcodal-core.a(MessageBus.cpp.o)
 .bss           0x0000000000000000        0x0 libcodal-core.a(MessageBus.cpp.o)
 .text._ZN5codal14CodalComponent4initEv
                0x0000000000000000        0x8 libcodal-core.a(MessageBus.cpp.o)
 .text._ZN5codal14CodalComponent16periodicCallbackEv
                0x0000000000000000        0x4 libcodal-core.a(MessageBus.cpp.o)
 .text._ZN5codal14CodalComponent12idleCallbackEv
                0x0000000000000000        0x4 libcodal-core.a(MessageBus.cpp.o)
 .text._ZN5codal10EventModel3addEPNS_8ListenerE
                0x0000000000000000        0x8 libcodal-core.a(MessageBus.cpp.o)
 .text._ZN5codal10EventModel6removeEPNS_8ListenerE
                0x0000000000000000        0x8 libcodal-core.a(MessageBus.cpp.o)
 .group         0x0000000000000000        0x8 libcodal-core.a(Event.cpp.o)
 .text          0x0000000000000000        0x0 libcodal-core.a(Event.cpp.o)
 .data          0x0000000000000000        0x0 libcodal-core.a(Event.cpp.o)
 .bss           0x0000000000000000        0x0 libcodal-core.a(Event.cpp.o)
 .text._ZN5codal10EventModel4sendENS_5EventE
                0x0000000000000000       0x14 libcodal-core.a(Event.cpp.o)
 .text._ZN5codal5Event4fireEv
                0x0000000000000000       0x2c libcodal-core.a(Event.cpp.o)
 .text          0x0000000000000000        0x0 libcodal-core.a(MemberFunctionCallback.cpp.o)
 .data          0x0000000000000000        0x0 libcodal-core.a(MemberFunctionCallback.cpp.o)
 .bss           0x0000000000000000        0x0 libcodal-core.a(MemberFunctionCallback.cpp.o)
 .text          0x0000000000000000        0x0 liblibopencm3.a(vector.c.o)
 .data          0x0000000000000000        0x0 liblibopencm3.a(vector.c.o)
 .bss           0x0000000000000000        0x0 liblibopencm3.a(vector.c.o)
 .text.reset_handler
                0x0000000000000000       0xe8 liblibopencm3.a(vector.c.o)
 .text          0x0000000000000000        0x0 libnano-float.a(functions.c.o)
 .data          0x0000000000000000        0x0 libnano-float.a(functions.c.o)
 .bss           0x0000000000000000        0x0 libnano-float.a(functions.c.o)
 .text.get_float_usage
                0x0000000000000000        0xc libnano-float.a(functions.c.o)
 .text.__wrap___aeabi_fdiv
                0x0000000000000000       0x10 libnano-float.a(functions.c.o)
 .text.__wrap___aeabi_fadd
                0x0000000000000000       0x10 libnano-float.a(functions.c.o)
 .text.__wrap___aeabi_fsub
                0x0000000000000000       0x10 libnano-float.a(functions.c.o)
 .text.__wrap___aeabi_fmul
                0x0000000000000000       0x10 libnano-float.a(functions.c.o)
 .text.__wrap___addsf3
                0x0000000000000000       0x10 libnano-float.a(functions.c.o)
 .text.__wrap___subsf3
                0x0000000000000000       0x10 libnano-float.a(functions.c.o)
 .text.__wrap___mulsf3
                0x0000000000000000       0x10 libnano-float.a(functions.c.o)
 .text.__wrap___divsf3
                0x0000000000000000       0x10 libnano-float.a(functions.c.o)
 .text.ldexp    0x0000000000000000       0x40 libnano-float.a(functions.c.o)
 .text.fabs     0x0000000000000000       0x80 libnano-float.a(functions.c.o)
 .text          0x0000000000000000        0x0 liblogger.a(logger.cpp.o)
 .data          0x0000000000000000        0x0 liblogger.a(logger.cpp.o)
 .bss           0x0000000000000000        0x0 liblogger.a(logger.cpp.o)
 .text.disable_log
                0x0000000000000000        0xc liblogger.a(logger.cpp.o)
 .text._Z20debug_flush_internalb
                0x0000000000000000       0x24 liblogger.a(logger.cpp.o)
 .text._Z11debug_printf
                0x0000000000000000       0x9c liblogger.a(logger.cpp.o)
 .text.debug_begin
                0x0000000000000000        0x4 liblogger.a(logger.cpp.o)
 .text.debug_write
                0x0000000000000000       0x18 liblogger.a(logger.cpp.o)
 .text._Z11debug_printc
                0x0000000000000000       0x18 liblogger.a(logger.cpp.o)
 .text._Z13debug_printlnj
                0x0000000000000000       0x18 liblogger.a(logger.cpp.o)
 .text._Z13debug_printlnc
                0x0000000000000000       0x24 liblogger.a(logger.cpp.o)
 .text._Z13debug_printlnf
                0x0000000000000000       0x18 liblogger.a(logger.cpp.o)
 .text.debug_print_char
                0x0000000000000000       0x18 liblogger.a(logger.cpp.o)
 .text.debug_print_float
                0x0000000000000000        0x4 liblogger.a(logger.cpp.o)
 .rodata._Z11debug_printf.str1.4
                0x0000000000000000        0xa liblogger.a(logger.cpp.o)
 .text          0x0000000000000000        0x0 libbluepill.a(bluepill.cpp.o)
 .data          0x0000000000000000        0x0 libbluepill.a(bluepill.cpp.o)
 .bss           0x0000000000000000        0x0 libbluepill.a(bluepill.cpp.o)
 .text.disable_debug
                0x0000000000000000       0x10 libbluepill.a(bluepill.cpp.o)
 .text.convert_pin_to_port
                0x0000000000000000       0x14 libbluepill.a(bluepill.cpp.o)
 .text.convert_port_to_pin
                0x0000000000000000       0x4c libbluepill.a(bluepill.cpp.o)
 .rodata._ZL7allPins
                0x0000000000000000       0x1c libbluepill.a(bluepill.cpp.o)
 .text          0x0000000000000000        0x0 libbluepill.a(led.cpp.o)
 .data          0x0000000000000000        0x0 libbluepill.a(led.cpp.o)
 .bss           0x0000000000000000        0x0 libbluepill.a(led.cpp.o)
 .text.led_toggle
                0x0000000000000000       0x10 libbluepill.a(led.cpp.o)
 .text          0x0000000000000000        0x0 libbaseloader.a(baseloader.c.o)
 .data          0x0000000000000000        0x0 libbaseloader.a(baseloader.c.o)
 .bss           0x0000000000000000        0x0 libbaseloader.a(baseloader.c.o)
 .text          0x0000000000000000        0x0 libbootloader.a(bootloader.c.o)
 .data          0x0000000000000000        0x0 libbootloader.a(bootloader.c.o)
 .bss           0x0000000000000000        0x0 libbootloader.a(bootloader.c.o)
 .text.bootloader_status
                0x0000000000000000        0x4 libbootloader.a(bootloader.c.o)
 .text          0x0000000000000000        0x0 libbootloader.a(ghostfat.c.o)
 .data          0x0000000000000000        0x0 libbootloader.a(ghostfat.c.o)
 .bss           0x0000000000000000        0x0 libbootloader.a(ghostfat.c.o)
 .text.base_flash_program_array
                0x0000000000000000       0x30 libbootloader.a(ghostfat.c.o)
 .text.ghostfat_1ms
                0x0000000000000000       0x50 libbootloader.a(ghostfat.c.o)
 .text.read_block
                0x0000000000000000      0x1e8 libbootloader.a(ghostfat.c.o)
 .text.write_block
                0x0000000000000000      0x12c libbootloader.a(ghostfat.c.o)
 .bss.resetTime
                0x0000000000000000        0x4 libbootloader.a(ghostfat.c.o)
 .rodata.BootBlock
                0x0000000000000000       0x3e libbootloader.a(ghostfat.c.o)
 .rodata.ghostfat_1ms.str1.4
                0x0000000000000000       0x26 libbootloader.a(ghostfat.c.o)
 .rodata.indexFile
                0x0000000000000000       0x74 libbootloader.a(ghostfat.c.o)
 .rodata.info   0x0000000000000000       0x30 libbootloader.a(ghostfat.c.o)
 .rodata.write_block.str1.4
                0x0000000000000000       0x2a libbootloader.a(ghostfat.c.o)
 COMMON         0x0000000000000000       0x35 libbootloader.a(ghostfat.c.o)
 .text          0x0000000000000000        0x0 libbootloader.a(usb_conf.c.o)
 .data          0x0000000000000000        0x0 libbootloader.a(usb_conf.c.o)
 .bss           0x0000000000000000        0x0 libbootloader.a(usb_conf.c.o)
 .text.set_usb_busy
                0x0000000000000000       0x20 libbootloader.a(usb_conf.c.o)
 .text.get_ep_status
                0x0000000000000000       0x1c libbootloader.a(usb_conf.c.o)
 .data.device_address
                0x0000000000000000        0x2 libbootloader.a(usb_conf.c.o)
 .text          0x0000000000000000        0x0 libbootloader.a(webusb.c.o)
 .data          0x0000000000000000        0x0 libbootloader.a(webusb.c.o)
 .bss           0x0000000000000000        0x0 libbootloader.a(webusb.c.o)
 .rodata.webusb_platform_capability_descriptor_no_landing_page
                0x0000000000000000       0x18 libbootloader.a(webusb.c.o)
 .text          0x0000000000000000        0x0 libbootloader.a(winusb.c.o)
 .data          0x0000000000000000        0x0 libbootloader.a(winusb.c.o)
 .bss           0x0000000000000000        0x0 libbootloader.a(winusb.c.o)
 .text          0x0000000000000000        0x0 libbootloader.a(target_stm32f103.c.o)
 .data          0x0000000000000000        0x0 libbootloader.a(target_stm32f103.c.o)
 .bss           0x0000000000000000        0x0 libbootloader.a(target_stm32f103.c.o)
 .text.boot_target_get_forced_startup_mode
                0x0000000000000000       0x1c libbootloader.a(target_stm32f103.c.o)
 .text          0x0000000000000000        0x0 libbootloader.a(cdc.c.o)
 .data          0x0000000000000000        0x0 libbootloader.a(cdc.c.o)
 .bss           0x0000000000000000        0x0 libbootloader.a(cdc.c.o)
 .text          0x0000000000000000        0x0 libbootloader.a(hf2.c.o)
 .data          0x0000000000000000        0x0 libbootloader.a(hf2.c.o)
 .bss           0x0000000000000000        0x0 libbootloader.a(hf2.c.o)
 .text.hf2_transmit
                0x0000000000000000       0x80 libbootloader.a(hf2.c.o)
 .text          0x0000000000000000        0x0 libbootloader.a(usb21_standard.c.o)
 .data          0x0000000000000000        0x0 libbootloader.a(usb21_standard.c.o)
 .bss           0x0000000000000000        0x0 libbootloader.a(usb21_standard.c.o)
 .text          0x0000000000000000        0x0 libbootloader.a(backup.c.o)
 .data          0x0000000000000000        0x0 libbootloader.a(backup.c.o)
 .bss           0x0000000000000000        0x0 libbootloader.a(backup.c.o)
 .text          0x0000000000000000        0x0 libhal.a(codal_target_hal.cpp.o)
 .data          0x0000000000000000        0x0 libhal.a(codal_target_hal.cpp.o)
 .bss           0x0000000000000000        0x0 libhal.a(codal_target_hal.cpp.o)
 .text.target_dmesg_flush
                0x0000000000000000       0x38 libhal.a(codal_target_hal.cpp.o)
 .text.target_enter_sleep_mode
                0x0000000000000000       0x1c libhal.a(codal_target_hal.cpp.o)
 .text.target_enter_deep_sleep_stop_mode
                0x0000000000000000       0x1c libhal.a(codal_target_hal.cpp.o)
 .text.target_enter_deep_sleep_standby_mode
                0x0000000000000000       0x1c libhal.a(codal_target_hal.cpp.o)
 .text.target_random
                0x0000000000000000       0x10 libhal.a(codal_target_hal.cpp.o)
 .text.assert_failed
                0x0000000000000000       0x2c libhal.a(codal_target_hal.cpp.o)
 .text.target_disable_debug
                0x0000000000000000        0x4 libhal.a(codal_target_hal.cpp.o)
 .bss._ZL10last_flush
                0x0000000000000000        0x4 libhal.a(codal_target_hal.cpp.o)
 .bss._ZL9poll_stop
                0x0000000000000000        0x4 libhal.a(codal_target_hal.cpp.o)
 .rodata.assert_failed.str1.4
                0x0000000000000000       0x15 libhal.a(codal_target_hal.cpp.o)
 .rodata.target_random.str1.4
                0x0000000000000000       0x12 libhal.a(codal_target_hal.cpp.o)
 .data          0x0000000000000000        0x0 libhal.a(CortexContextSwitch.s.o)
 .bss           0x0000000000000000        0x0 libhal.a(CortexContextSwitch.s.o)
 .text          0x0000000000000000        0x0 libcm.a(CmI2C.cpp.o)
 .data          0x0000000000000000        0x0 libcm.a(CmI2C.cpp.o)
 .bss           0x0000000000000000        0x0 libcm.a(CmI2C.cpp.o)
 .text._ZN5codal3_cm3I2C4initEv
                0x0000000000000000        0x4 libcm.a(CmI2C.cpp.o)
 .group         0x0000000000000000        0x8 libcm.a(CmPin.cpp.o)
 .group         0x0000000000000000        0x8 libcm.a(CmPin.cpp.o)
 .group         0x0000000000000000        0x8 libcm.a(CmPin.cpp.o)
 .text          0x0000000000000000        0x0 libcm.a(CmPin.cpp.o)
 .data          0x0000000000000000        0x0 libcm.a(CmPin.cpp.o)
 .bss           0x0000000000000000        0x0 libcm.a(CmPin.cpp.o)
 .text._ZN5codal3Pin15setServoPulseUsEm
                0x0000000000000000        0x8 libcm.a(CmPin.cpp.o)
 .text._ZN5codal3Pin17setAnalogPeriodUsEm
                0x0000000000000000        0x8 libcm.a(CmPin.cpp.o)
 .text._ZN5codal3Pin8drainPinEv
                0x0000000000000000        0x8 libcm.a(CmPin.cpp.o)
 .text._ZN5codal3_cm3PinC2EhmmtNS_13PinCapabilityE
                0x0000000000000000       0x2c libcm.a(CmPin.cpp.o)
 .text._ZN5codal3_cm3Pin10disconnectEv
                0x0000000000000000        0x8 libcm.a(CmPin.cpp.o)
 .text._ZN5codal3_cm3Pin19obtainAnalogChannelEv
                0x0000000000000000        0x4 libcm.a(CmPin.cpp.o)
 .text._ZN5codal3_cm3Pin15pulseWidthEventEi
                0x0000000000000000        0x4 libcm.a(CmPin.cpp.o)
 .text._ZN5codal3_cm3Pin6onRiseEv
                0x0000000000000000       0x20 libcm.a(CmPin.cpp.o)
 .text._ZN5codal3_cm3Pin6onFallEv
                0x0000000000000000       0x20 libcm.a(CmPin.cpp.o)
 .text._ZN5codal3_cm3Pin20enableRiseFallEventsEi
                0x0000000000000000        0x4 libcm.a(CmPin.cpp.o)
 .text._ZN5codal3_cm3Pin13disableEventsEv
                0x0000000000000000       0x10 libcm.a(CmPin.cpp.o)
 .text          0x0000000000000000        0x0 libcm.a(CmSPI.cpp.o)
 .data          0x0000000000000000        0x0 libcm.a(CmSPI.cpp.o)
 .bss           0x0000000000000000        0x0 libcm.a(CmSPI.cpp.o)
 .text._ZN5codal3_cm16_codal_setup_pinEPNS0_3PinEmPK6PinMap
                0x0000000000000000        0x8 libcm.a(CmSPI.cpp.o)
 .text._ZN5codal3_cm3SPI4initEv
                0x0000000000000000        0xc libcm.a(CmSPI.cpp.o)
 .text._ZN5codal3_cm3SPIC2ERNS0_3PinES3_S3_S3_
                0x0000000000000000       0xa0 libcm.a(CmSPI.cpp.o)
 .text._ZN5codal3_cm3SPI8completeEv
                0x0000000000000000       0x34 libcm.a(CmSPI.cpp.o)
 .text._ZN5codal3_cm3SPI4_irqEPS1_
                0x0000000000000000        0x4 libcm.a(CmSPI.cpp.o)
 .text._ZN5codal3_cm3SPI5_findEPS1_
                0x0000000000000000       0x84 libcm.a(CmSPI.cpp.o)
 .text._ZN5codal3_cm3SPI9_completeEPS1_
                0x0000000000000000       0x14 libcm.a(CmSPI.cpp.o)
 .bss._ZN5codal3_cmL10_instancesE
                0x0000000000000000       0x10 libcm.a(CmSPI.cpp.o)
 .rodata._ZN5codal3_cm3SPI8completeEv.str1.4
                0x0000000000000000       0x12 libcm.a(CmSPI.cpp.o)
 .rodata._ZN5codal3_cm3SPIC2ERNS0_3PinES3_S3_S3_.str1.4
                0x0000000000000000       0x12 libcm.a(CmSPI.cpp.o)
 .text          0x0000000000000000        0x0 libcm.a(CmTimer.cpp.o)
 .data          0x0000000000000000        0x0 libcm.a(CmTimer.cpp.o)
 .bss           0x0000000000000000        0x0 libcm.a(CmTimer.cpp.o)
 .text.TIM5_IRQHandler
                0x0000000000000000        0x4 libcm.a(CmTimer.cpp.o)
 .text.wait_us  0x0000000000000000        0x4 libcm.a(CmTimer.cpp.o)
 .text          0x0000000000000000        0x0 libcm.a(application.cpp.o)
 .data          0x0000000000000000        0x0 libcm.a(application.cpp.o)
 .bss           0x0000000000000000        0x0 libcm.a(application.cpp.o)
 .group         0x0000000000000000        0x8 libcm.a(tasks.cpp.o)
 .group         0x0000000000000000        0x8 libcm.a(tasks.cpp.o)
 .text          0x0000000000000000        0x0 libcm.a(tasks.cpp.o)
 .data          0x0000000000000000        0x0 libcm.a(tasks.cpp.o)
 .bss           0x0000000000000000        0x0 libcm.a(tasks.cpp.o)
 .text._ZN5codal10EventModel4sendENS_5EventE
                0x0000000000000000       0x14 libcm.a(tasks.cpp.o)
 .text._ZN5codal10EventModel3addEPNS_8ListenerE
                0x0000000000000000        0x8 libcm.a(tasks.cpp.o)
 .text          0x0000000000000000        0x0 libcm.a(CmPinMap.cpp.o)
 .data          0x0000000000000000        0x0 libcm.a(CmPinMap.cpp.o)
 .bss           0x0000000000000000        0x0 libcm.a(CmPinMap.cpp.o)
 .text          0x0000000000000000        0x0 libmodel.a(STM32BluePillIO.cpp.o)
 .data          0x0000000000000000        0x0 libmodel.a(STM32BluePillIO.cpp.o)
 .bss           0x0000000000000000        0x0 libmodel.a(STM32BluePillIO.cpp.o)
 .text._ZN5codal15STM32BluePillIOC2Ev
                0x0000000000000000      0xaf8 libmodel.a(STM32BluePillIO.cpp.o)
 .rodata.PinMap_I2C_SCL
                0x0000000000000000       0x30 libmodel.a(STM32BluePillIO.cpp.o)
 .rodata.PinMap_I2C_SDA
                0x0000000000000000       0x30 libmodel.a(STM32BluePillIO.cpp.o)
 .rodata.PinMap_UART_RX
                0x0000000000000000       0x24 libmodel.a(STM32BluePillIO.cpp.o)
 .rodata.PinMap_UART_TX
                0x0000000000000000       0x24 libmodel.a(STM32BluePillIO.cpp.o)
 .data          0x0000000000000000        0x0 libqfplib.a(qfplib.S.o)
 .bss           0x0000000000000000        0x0 libqfplib.a(qfplib.S.o)
 .text          0x0000000000000000        0x0 libnewlib.a(strncpy.c.o)
 .data          0x0000000000000000        0x0 libnewlib.a(strncpy.c.o)
 .bss           0x0000000000000000        0x0 libnewlib.a(strncpy.c.o)
 .text          0x0000000000000000        0x0 libcodal-core.a(I2C.cpp.o)
 .data          0x0000000000000000        0x0 libcodal-core.a(I2C.cpp.o)
 .bss           0x0000000000000000        0x0 libcodal-core.a(I2C.cpp.o)
 .text._ZN5codal3I2C5writeEth
                0x0000000000000000       0x1c libcodal-core.a(I2C.cpp.o)
 .text          0x0000000000000000        0x0 liblibopencm3.a(scb.c.o)
 .data          0x0000000000000000        0x0 liblibopencm3.a(scb.c.o)
 .bss           0x0000000000000000        0x0 liblibopencm3.a(scb.c.o)
 .text.scb_reset_core
                0x0000000000000000       0x10 liblibopencm3.a(scb.c.o)
 .text.scb_set_priority_grouping
                0x0000000000000000       0x14 liblibopencm3.a(scb.c.o)
 .text          0x0000000000000000        0x0 liblibopencm3.a(gpio_common_all.c.o)
 .data          0x0000000000000000        0x0 liblibopencm3.a(gpio_common_all.c.o)
 .bss           0x0000000000000000        0x0 liblibopencm3.a(gpio_common_all.c.o)
 .text.gpio_get
                0x0000000000000000        0x8 liblibopencm3.a(gpio_common_all.c.o)
 .text.gpio_toggle
                0x0000000000000000       0x14 liblibopencm3.a(gpio_common_all.c.o)
 .text.gpio_port_read
                0x0000000000000000        0x8 liblibopencm3.a(gpio_common_all.c.o)
 .text.gpio_port_write
                0x0000000000000000        0x4 liblibopencm3.a(gpio_common_all.c.o)
 .text.gpio_port_config_lock
                0x0000000000000000       0x10 liblibopencm3.a(gpio_common_all.c.o)
 .text          0x0000000000000000        0x0 liblibopencm3.a(pwr_common_v1.c.o)
 .data          0x0000000000000000        0x0 liblibopencm3.a(pwr_common_v1.c.o)
 .bss           0x0000000000000000        0x0 liblibopencm3.a(pwr_common_v1.c.o)
 .text.pwr_enable_power_voltage_detect
                0x0000000000000000       0x1c liblibopencm3.a(pwr_common_v1.c.o)
 .text.pwr_disable_power_voltage_detect
                0x0000000000000000       0x10 liblibopencm3.a(pwr_common_v1.c.o)
 .text.pwr_clear_standby_flag
                0x0000000000000000       0x10 liblibopencm3.a(pwr_common_v1.c.o)
 .text.pwr_clear_wakeup_flag
                0x0000000000000000       0x10 liblibopencm3.a(pwr_common_v1.c.o)
 .text.pwr_set_standby_mode
                0x0000000000000000       0x10 liblibopencm3.a(pwr_common_v1.c.o)
 .text.pwr_set_stop_mode
                0x0000000000000000       0x10 liblibopencm3.a(pwr_common_v1.c.o)
 .text.pwr_voltage_regulator_on_in_stop
                0x0000000000000000       0x10 liblibopencm3.a(pwr_common_v1.c.o)
 .text.pwr_voltage_regulator_low_power_in_stop
                0x0000000000000000       0x10 liblibopencm3.a(pwr_common_v1.c.o)
 .text.pwr_enable_wakeup_pin
                0x0000000000000000       0x10 liblibopencm3.a(pwr_common_v1.c.o)
 .text.pwr_disable_wakeup_pin
                0x0000000000000000       0x10 liblibopencm3.a(pwr_common_v1.c.o)
 .text.pwr_voltage_high
                0x0000000000000000       0x14 liblibopencm3.a(pwr_common_v1.c.o)
 .text.pwr_get_standby_flag
                0x0000000000000000       0x10 liblibopencm3.a(pwr_common_v1.c.o)
 .text.pwr_get_wakeup_flag
                0x0000000000000000       0x10 liblibopencm3.a(pwr_common_v1.c.o)
 .text          0x0000000000000000        0x0 liblibopencm3.a(rcc_common_all.c.o)
 .data          0x0000000000000000        0x0 liblibopencm3.a(rcc_common_all.c.o)
 .bss           0x0000000000000000        0x0 liblibopencm3.a(rcc_common_all.c.o)
 .text.rcc_peripheral_enable_clock
                0x0000000000000000        0x8 liblibopencm3.a(rcc_common_all.c.o)
 .text.rcc_peripheral_disable_clock
                0x0000000000000000        0xc liblibopencm3.a(rcc_common_all.c.o)
 .text.rcc_peripheral_reset
                0x0000000000000000        0x8 liblibopencm3.a(rcc_common_all.c.o)
 .text.rcc_peripheral_clear_reset
                0x0000000000000000        0xc liblibopencm3.a(rcc_common_all.c.o)
 .text.rcc_periph_clock_disable
                0x0000000000000000       0x20 liblibopencm3.a(rcc_common_all.c.o)
 .text.rcc_periph_reset_hold
                0x0000000000000000       0x1c liblibopencm3.a(rcc_common_all.c.o)
 .text.rcc_periph_reset_release
                0x0000000000000000       0x20 liblibopencm3.a(rcc_common_all.c.o)
 .text.rcc_set_mco
                0x0000000000000000       0x14 liblibopencm3.a(rcc_common_all.c.o)
 .text.rcc_osc_bypass_enable
                0x0000000000000000       0x2c liblibopencm3.a(rcc_common_all.c.o)
 .text.rcc_osc_bypass_disable
                0x0000000000000000       0x2c liblibopencm3.a(rcc_common_all.c.o)
 .text          0x0000000000000000        0x0 liblibopencm3.a(desig.c.o)
 .data          0x0000000000000000        0x0 liblibopencm3.a(desig.c.o)
 .bss           0x0000000000000000        0x0 liblibopencm3.a(desig.c.o)
 .text.desig_get_flash_size
                0x0000000000000000        0xc liblibopencm3.a(desig.c.o)
 .text.desig_get_unique_id
                0x0000000000000000       0x1c liblibopencm3.a(desig.c.o)
 .text.desig_get_unique_id_as_dfu
                0x0000000000000000       0x98 liblibopencm3.a(desig.c.o)
 .text          0x0000000000000000        0x0 liblibopencm3.a(gpio.c.o)
 .data          0x0000000000000000        0x0 liblibopencm3.a(gpio.c.o)
 .bss           0x0000000000000000        0x0 liblibopencm3.a(gpio.c.o)
 .text.gpio_set_eventout
                0x0000000000000000       0x10 liblibopencm3.a(gpio.c.o)
 .text.gpio_primary_remap
                0x0000000000000000       0x14 liblibopencm3.a(gpio.c.o)
 .text.gpio_secondary_remap
                0x0000000000000000       0x10 liblibopencm3.a(gpio.c.o)
 .text          0x0000000000000000        0x0 liblibopencm3.a(rcc.c.o)
 .data          0x0000000000000000        0x0 liblibopencm3.a(rcc.c.o)
 .bss           0x0000000000000000        0x0 liblibopencm3.a(rcc.c.o)
 .text.rcc_osc_ready_int_clear
                0x0000000000000000       0x68 liblibopencm3.a(rcc.c.o)
 .text.rcc_osc_ready_int_enable
                0x0000000000000000       0x68 liblibopencm3.a(rcc.c.o)
 .text.rcc_osc_ready_int_disable
                0x0000000000000000       0x68 liblibopencm3.a(rcc.c.o)
 .text.rcc_osc_ready_int_flag
                0x0000000000000000       0x5c liblibopencm3.a(rcc.c.o)
 .text.rcc_css_int_clear
                0x0000000000000000       0x10 liblibopencm3.a(rcc.c.o)
 .text.rcc_css_int_flag
                0x0000000000000000       0x10 liblibopencm3.a(rcc.c.o)
 .text.rcc_is_osc_ready
                0x0000000000000000       0x60 liblibopencm3.a(rcc.c.o)
 .text.rcc_wait_for_osc_ready
                0x0000000000000000       0x10 liblibopencm3.a(rcc.c.o)
 .text.rcc_osc_on
                0x0000000000000000       0x68 liblibopencm3.a(rcc.c.o)
 .text.rcc_osc_off
                0x0000000000000000       0x70 liblibopencm3.a(rcc.c.o)
 .text.rcc_css_enable
                0x0000000000000000       0x10 liblibopencm3.a(rcc.c.o)
 .text.rcc_css_disable
                0x0000000000000000       0x10 liblibopencm3.a(rcc.c.o)
 .text.rcc_set_sysclk_source
                0x0000000000000000       0x14 liblibopencm3.a(rcc.c.o)
 .text.rcc_set_pll_multiplication_factor
                0x0000000000000000       0x14 liblibopencm3.a(rcc.c.o)
 .text.rcc_set_pll2_multiplication_factor
                0x0000000000000000       0x14 liblibopencm3.a(rcc.c.o)
 .text.rcc_set_pll3_multiplication_factor
                0x0000000000000000       0x14 liblibopencm3.a(rcc.c.o)
 .text.rcc_set_pll_source
                0x0000000000000000       0x14 liblibopencm3.a(rcc.c.o)
 .text.rcc_set_pllxtpre
                0x0000000000000000       0x14 liblibopencm3.a(rcc.c.o)
 .text.rcc_rtc_clock_enabled_flag
                0x0000000000000000       0x10 liblibopencm3.a(rcc.c.o)
 .text.rcc_set_adcpre
                0x0000000000000000       0x14 liblibopencm3.a(rcc.c.o)
 .text.rcc_set_ppre2
                0x0000000000000000       0x14 liblibopencm3.a(rcc.c.o)
 .text.rcc_set_ppre1
                0x0000000000000000       0x14 liblibopencm3.a(rcc.c.o)
 .text.rcc_set_hpre
                0x0000000000000000       0x14 liblibopencm3.a(rcc.c.o)
 .text.rcc_set_usbpre
                0x0000000000000000       0x1c liblibopencm3.a(rcc.c.o)
 .text.rcc_set_prediv1
                0x0000000000000000       0x14 liblibopencm3.a(rcc.c.o)
 .text.rcc_set_prediv2
                0x0000000000000000       0x14 liblibopencm3.a(rcc.c.o)
 .text.rcc_set_prediv1_source
                0x0000000000000000       0x1c liblibopencm3.a(rcc.c.o)
 .text.rcc_system_clock_source
                0x0000000000000000       0x10 liblibopencm3.a(rcc.c.o)
 .text.rcc_clock_setup_in_hsi_out_64mhz
                0x0000000000000000       0xa4 liblibopencm3.a(rcc.c.o)
 .text.rcc_clock_setup_in_hsi_out_48mhz
                0x0000000000000000       0xac liblibopencm3.a(rcc.c.o)
 .text.rcc_clock_setup_in_hsi_out_24mhz
                0x0000000000000000       0x9c liblibopencm3.a(rcc.c.o)
 .text.rcc_clock_setup_in_hse_8mhz_out_24mhz
                0x0000000000000000       0xc0 liblibopencm3.a(rcc.c.o)
 .text.rcc_clock_setup_in_hse_12mhz_out_72mhz
                0x0000000000000000       0xd0 liblibopencm3.a(rcc.c.o)
 .text.rcc_clock_setup_in_hse_16mhz_out_72mhz
                0x0000000000000000       0xd0 liblibopencm3.a(rcc.c.o)
 .text.rcc_clock_setup_in_hse_25mhz_out_72mhz
                0x0000000000000000      0x104 liblibopencm3.a(rcc.c.o)
 .text.rcc_backupdomain_reset
                0x0000000000000000       0x18 liblibopencm3.a(rcc.c.o)
 .text          0x0000000000000000        0x0 liblibopencm3.a(st_usbfs_v1.c.o)
 .data          0x0000000000000000        0x0 liblibopencm3.a(st_usbfs_v1.c.o)
 .bss           0x0000000000000000        0x0 liblibopencm3.a(st_usbfs_v1.c.o)
 .text          0x0000000000000000        0x0 liblibopencm3.a(usb.c.o)
 .data          0x0000000000000000        0x0 liblibopencm3.a(usb.c.o)
 .bss           0x0000000000000000        0x0 liblibopencm3.a(usb.c.o)
 .text.usbd_register_reset_callback
                0x0000000000000000        0x4 liblibopencm3.a(usb.c.o)
 .text.usbd_register_suspend_callback
                0x0000000000000000        0x4 liblibopencm3.a(usb.c.o)
 .text.usbd_register_resume_callback
                0x0000000000000000        0x4 liblibopencm3.a(usb.c.o)
 .text.usbd_disconnect
                0x0000000000000000        0xc liblibopencm3.a(usb.c.o)
 .text          0x0000000000000000        0x0 liblibopencm3.a(usb_control.c.o)
 .data          0x0000000000000000        0x0 liblibopencm3.a(usb_control.c.o)
 .bss           0x0000000000000000        0x0 liblibopencm3.a(usb_control.c.o)
 .text          0x0000000000000000        0x0 liblibopencm3.a(usb_standard.c.o)
 .data          0x0000000000000000        0x0 liblibopencm3.a(usb_standard.c.o)
 .bss           0x0000000000000000        0x0 liblibopencm3.a(usb_standard.c.o)
 .text.usbd_register_set_altsetting_callback
                0x0000000000000000        0x8 liblibopencm3.a(usb_standard.c.o)
 .text._usbd_standard_request_interface
                0x0000000000000000       0x38 liblibopencm3.a(usb_standard.c.o)
 .text          0x0000000000000000        0x0 liblibopencm3.a(flash_common_all.c.o)
 .data          0x0000000000000000        0x0 liblibopencm3.a(flash_common_all.c.o)
 .bss           0x0000000000000000        0x0 liblibopencm3.a(flash_common_all.c.o)
 .text.flash_prefetch_enable
                0x0000000000000000       0x10 liblibopencm3.a(flash_common_all.c.o)
 .text.flash_prefetch_disable
                0x0000000000000000       0x10 liblibopencm3.a(flash_common_all.c.o)
 .text.flash_unlock_option_bytes
                0x0000000000000000       0x18 liblibopencm3.a(flash_common_all.c.o)
 .text          0x0000000000000000        0x0 liblibopencm3.a(st_usbfs_core.c.o)
 .data          0x0000000000000000        0x0 liblibopencm3.a(st_usbfs_core.c.o)
 .bss           0x0000000000000000        0x0 liblibopencm3.a(st_usbfs_core.c.o)
 .text          0x0000000000000000        0x0 libcocoos.a(os_cbk.c.o)
 .data          0x0000000000000000        0x0 libcocoos.a(os_cbk.c.o)
 .bss           0x0000000000000000        0x0 libcocoos.a(os_cbk.c.o)
 .text          0x0000000000000000        0x0 libcocoos.a(os_kernel.c.o)
 .data          0x0000000000000000        0x0 libcocoos.a(os_kernel.c.o)
 .bss           0x0000000000000000        0x0 libcocoos.a(os_kernel.c.o)
 .text.os_start
                0x0000000000000000       0x38 libcocoos.a(os_kernel.c.o)
 .text.os_sub_tick
                0x0000000000000000        0xc libcocoos.a(os_kernel.c.o)
 .text.os_sub_nTick
                0x0000000000000000        0x8 libcocoos.a(os_kernel.c.o)
 .text.os_get_running_tid
                0x0000000000000000        0xc libcocoos.a(os_kernel.c.o)
 .text          0x0000000000000000        0x0 libcocoos.a(os_msgqueue.c.o)
 .data          0x0000000000000000        0x0 libcocoos.a(os_msgqueue.c.o)
 .bss           0x0000000000000000        0x0 libcocoos.a(os_msgqueue.c.o)
 .text.os_msgQ_create
                0x0000000000000000       0x50 libcocoos.a(os_msgqueue.c.o)
 .text.os_msgQ_find
                0x0000000000000000       0x30 libcocoos.a(os_msgqueue.c.o)
 .text.os_msgQ_event_get
                0x0000000000000000       0x1c libcocoos.a(os_msgqueue.c.o)
 .text.os_msg_post
                0x0000000000000000       0x70 libcocoos.a(os_msgqueue.c.o)
 .text.os_msg_receive
                0x0000000000000000      0x11c libcocoos.a(os_msgqueue.c.o)
 .text          0x0000000000000000        0x0 libcocoos.a(os_sem.c.o)
 .data          0x0000000000000000        0x0 libcocoos.a(os_sem.c.o)
 .bss           0x0000000000000000        0x0 libcocoos.a(os_sem.c.o)
 .text.sem_bin_create
                0x0000000000000000       0x34 libcocoos.a(os_sem.c.o)
 .text.sem_counting_create
                0x0000000000000000       0x30 libcocoos.a(os_sem.c.o)
 .text.os_sem_larger_than_zero
                0x0000000000000000       0x14 libcocoos.a(os_sem.c.o)
 .text.os_sem_decrement
                0x0000000000000000       0x14 libcocoos.a(os_sem.c.o)
 .text.os_sem_increment
                0x0000000000000000       0x1c libcocoos.a(os_sem.c.o)
 .bss.semList   0x0000000000000000       0x18 libcocoos.a(os_sem.c.o)
 .text          0x0000000000000000        0x0 libcocoos.a(os_task.c.o)
 .data          0x0000000000000000        0x0 libcocoos.a(os_task.c.o)
 .bss           0x0000000000000000        0x0 libcocoos.a(os_task.c.o)
 .text.task_create
                0x0000000000000000       0xf4 libcocoos.a(os_task.c.o)
 .text.task_state_get
                0x0000000000000000       0x28 libcocoos.a(os_task.c.o)
 .text.task_kill
                0x0000000000000000       0x2c libcocoos.a(os_task.c.o)
 .text.task_get_data
                0x0000000000000000       0x1c libcocoos.a(os_task.c.o)
 .text.os_task_next_ready_task
                0x0000000000000000       0x6c libcocoos.a(os_task.c.o)
 .text.os_task_release_waiting_task
                0x0000000000000000       0x60 libcocoos.a(os_task.c.o)
 .text.os_task_waiting_this_semaphore
                0x0000000000000000       0x58 libcocoos.a(os_task.c.o)
 .text.os_task_wait_sem_set
                0x0000000000000000       0x34 libcocoos.a(os_task.c.o)
 .text.os_task_ready_set
                0x0000000000000000       0x2c libcocoos.a(os_task.c.o)
 .text.os_task_suspend
                0x0000000000000000       0x4c libcocoos.a(os_task.c.o)
 .text.os_task_resume
                0x0000000000000000       0x34 libcocoos.a(os_task.c.o)
 .text.os_task_kill
                0x0000000000000000       0x2c libcocoos.a(os_task.c.o)
 .text.os_task_prio_get
                0x0000000000000000       0x2c libcocoos.a(os_task.c.o)
 .text.os_task_clear_wait_queue
                0x0000000000000000       0x18 libcocoos.a(os_task.c.o)
 .text.os_task_wait_time_set
                0x0000000000000000       0x40 libcocoos.a(os_task.c.o)
 .text.os_task_wait_event
                0x0000000000000000       0x60 libcocoos.a(os_task.c.o)
 .text.os_task_internal_state_get
                0x0000000000000000       0x14 libcocoos.a(os_task.c.o)
 .text.os_task_internal_state_set
                0x0000000000000000       0x14 libcocoos.a(os_task.c.o)
 .text.os_task_msgQ_get
                0x0000000000000000       0x14 libcocoos.a(os_task.c.o)
 .text.os_task_set_wait_queue
                0x0000000000000000       0x14 libcocoos.a(os_task.c.o)
 .text.os_task_get_wait_queue
                0x0000000000000000       0x14 libcocoos.a(os_task.c.o)
 .text.os_task_set_change_event
                0x0000000000000000       0x14 libcocoos.a(os_task.c.o)
 .text.os_task_get_change_event
                0x0000000000000000       0x14 libcocoos.a(os_task.c.o)
 .text.os_task_set_msg_result
                0x0000000000000000       0x14 libcocoos.a(os_task.c.o)
 .text.os_task_get_msg_result
                0x0000000000000000       0x14 libcocoos.a(os_task.c.o)
 .text.os_task_timeout_get
                0x0000000000000000       0x14 libcocoos.a(os_task.c.o)
 .text          0x0000000000000000        0x0 libcocoos.a(os_assert.c.o)
 .data          0x0000000000000000        0x0 libcocoos.a(os_assert.c.o)
 .bss           0x0000000000000000        0x0 libcocoos.a(os_assert.c.o)
 .text          0x0000000000000000        0x0 libcocoos.a(os_event.c.o)
 .data          0x0000000000000000        0x0 libcocoos.a(os_event.c.o)
 .bss           0x0000000000000000        0x0 libcocoos.a(os_event.c.o)
 .text.event_create
                0x0000000000000000       0x30 libcocoos.a(os_event.c.o)
 .text.event_signaling_taskId_get
                0x0000000000000000       0x10 libcocoos.a(os_event.c.o)
 .text.event_last_signaled_get
                0x0000000000000000        0xc libcocoos.a(os_event.c.o)
 .text.os_wait_event
                0x0000000000000000       0x28 libcocoos.a(os_event.c.o)
 .text.os_wait_multiple
                0x0000000000000000       0x48 libcocoos.a(os_event.c.o)
 .text          0x0000000000000000        0x0 libbluepill.a(timer.cpp.o)
 .data          0x0000000000000000        0x0 libbluepill.a(timer.cpp.o)
 .bss           0x0000000000000000        0x0 libbluepill.a(timer.cpp.o)
 .text.platform_get_alarm
                0x0000000000000000        0x4 libbluepill.a(timer.cpp.o)
 .text.platform_alarm_count
                0x0000000000000000        0xc libbluepill.a(timer.cpp.o)
 .text.platform_tick_count
                0x0000000000000000        0xc libbluepill.a(timer.cpp.o)
 .text          0x0000000000000000        0x0 liblibopencm3.a(nvic.c.o)
 .data          0x0000000000000000        0x0 liblibopencm3.a(nvic.c.o)
 .bss           0x0000000000000000        0x0 liblibopencm3.a(nvic.c.o)
 .text.nvic_disable_irq
                0x0000000000000000       0x18 liblibopencm3.a(nvic.c.o)
 .text.nvic_get_pending_irq
                0x0000000000000000       0x24 liblibopencm3.a(nvic.c.o)
 .text.nvic_set_pending_irq
                0x0000000000000000       0x1c liblibopencm3.a(nvic.c.o)
 .text.nvic_clear_pending_irq
                0x0000000000000000       0x18 liblibopencm3.a(nvic.c.o)
 .text.nvic_get_irq_enabled
                0x0000000000000000       0x24 liblibopencm3.a(nvic.c.o)
 .text.nvic_set_priority
                0x0000000000000000       0x20 liblibopencm3.a(nvic.c.o)
 .text.nvic_get_active_irq
                0x0000000000000000       0x24 liblibopencm3.a(nvic.c.o)
 .text.nvic_generate_software_interrupt
                0x0000000000000000       0x14 liblibopencm3.a(nvic.c.o)
 .text          0x0000000000000000        0x0 liblibopencm3.a(exti_common_all.c.o)
 .data          0x0000000000000000        0x0 liblibopencm3.a(exti_common_all.c.o)
 .bss           0x0000000000000000        0x0 liblibopencm3.a(exti_common_all.c.o)
 .text.exti_disable_request
                0x0000000000000000       0x1c liblibopencm3.a(exti_common_all.c.o)
 .text.exti_get_flag_status
                0x0000000000000000        0xc liblibopencm3.a(exti_common_all.c.o)
 .text.exti_select_source
                0x0000000000000000       0xb0 liblibopencm3.a(exti_common_all.c.o)
 .text          0x0000000000000000        0x0 liblibopencm3.a(rtc.c.o)
 .data          0x0000000000000000        0x0 liblibopencm3.a(rtc.c.o)
 .bss           0x0000000000000000        0x0 liblibopencm3.a(rtc.c.o)
 .text.rtc_awake_from_off
                0x0000000000000000       0x8c liblibopencm3.a(rtc.c.o)
 .text.rtc_enable_alarm
                0x0000000000000000       0x34 liblibopencm3.a(rtc.c.o)
 .text.rtc_disable_alarm
                0x0000000000000000       0x34 liblibopencm3.a(rtc.c.o)
 .text.rtc_get_prescale_div_val
                0x0000000000000000       0x18 liblibopencm3.a(rtc.c.o)
 .text.rtc_get_alarm_val
                0x0000000000000000       0x18 liblibopencm3.a(rtc.c.o)
 .text.rtc_awake_from_standby
                0x0000000000000000       0x38 liblibopencm3.a(rtc.c.o)
 .text.rtc_auto_awake
                0x0000000000000000       0x34 liblibopencm3.a(rtc.c.o)
 .data          0x0000000000000000        0x0 /usr/local/Cellar/arm-none-eabi-gcc/7-2018-q2-update/gcc/bin/../lib/gcc/arm-none-eabi/7.3.1/thumb/v7-m/libgcc.a(_arm_addsubdf3.o)
 .bss           0x0000000000000000        0x0 /usr/local/Cellar/arm-none-eabi-gcc/7-2018-q2-update/gcc/bin/../lib/gcc/arm-none-eabi/7.3.1/thumb/v7-m/libgcc.a(_arm_addsubdf3.o)
 .data          0x0000000000000000        0x0 /usr/local/Cellar/arm-none-eabi-gcc/7-2018-q2-update/gcc/bin/../lib/gcc/arm-none-eabi/7.3.1/thumb/v7-m/libgcc.a(_arm_truncdfsf2.o)
 .bss           0x0000000000000000        0x0 /usr/local/Cellar/arm-none-eabi-gcc/7-2018-q2-update/gcc/bin/../lib/gcc/arm-none-eabi/7.3.1/thumb/v7-m/libgcc.a(_arm_truncdfsf2.o)
 .text          0x0000000000000000      0x21c /usr/local/Cellar/arm-none-eabi-gcc/7-2018-q2-update/gcc/bin/../lib/gcc/arm-none-eabi/7.3.1/thumb/v7-m/libgcc.a(_arm_addsubsf3.o)
 .data          0x0000000000000000        0x0 /usr/local/Cellar/arm-none-eabi-gcc/7-2018-q2-update/gcc/bin/../lib/gcc/arm-none-eabi/7.3.1/thumb/v7-m/libgcc.a(_arm_addsubsf3.o)
 .bss           0x0000000000000000        0x0 /usr/local/Cellar/arm-none-eabi-gcc/7-2018-q2-update/gcc/bin/../lib/gcc/arm-none-eabi/7.3.1/thumb/v7-m/libgcc.a(_arm_addsubsf3.o)
 .debug_frame   0x0000000000000000       0x4c /usr/local/Cellar/arm-none-eabi-gcc/7-2018-q2-update/gcc/bin/../lib/gcc/arm-none-eabi/7.3.1/thumb/v7-m/libgcc.a(_arm_addsubsf3.o)
 .ARM.attributes
                0x0000000000000000       0x1d /usr/local/Cellar/arm-none-eabi-gcc/7-2018-q2-update/gcc/bin/../lib/gcc/arm-none-eabi/7.3.1/thumb/v7-m/libgcc.a(_arm_addsubsf3.o)
 .text          0x0000000000000000       0xec /usr/local/Cellar/arm-none-eabi-gcc/7-2018-q2-update/gcc/bin/../lib/gcc/arm-none-eabi/7.3.1/thumb/v7-m/libgcc.a(_arm_cmpsf2.o)
 .data          0x0000000000000000        0x0 /usr/local/Cellar/arm-none-eabi-gcc/7-2018-q2-update/gcc/bin/../lib/gcc/arm-none-eabi/7.3.1/thumb/v7-m/libgcc.a(_arm_cmpsf2.o)
 .bss           0x0000000000000000        0x0 /usr/local/Cellar/arm-none-eabi-gcc/7-2018-q2-update/gcc/bin/../lib/gcc/arm-none-eabi/7.3.1/thumb/v7-m/libgcc.a(_arm_cmpsf2.o)
 .debug_frame   0x0000000000000000       0xc8 /usr/local/Cellar/arm-none-eabi-gcc/7-2018-q2-update/gcc/bin/../lib/gcc/arm-none-eabi/7.3.1/thumb/v7-m/libgcc.a(_arm_cmpsf2.o)
 .ARM.attributes
                0x0000000000000000       0x1d /usr/local/Cellar/arm-none-eabi-gcc/7-2018-q2-update/gcc/bin/../lib/gcc/arm-none-eabi/7.3.1/thumb/v7-m/libgcc.a(_arm_cmpsf2.o)
 .text          0x0000000000000000       0x40 /usr/local/Cellar/arm-none-eabi-gcc/7-2018-q2-update/gcc/bin/../lib/gcc/arm-none-eabi/7.3.1/thumb/v7-m/libgcc.a(_arm_fixunssfsi.o)
 .data          0x0000000000000000        0x0 /usr/local/Cellar/arm-none-eabi-gcc/7-2018-q2-update/gcc/bin/../lib/gcc/arm-none-eabi/7.3.1/thumb/v7-m/libgcc.a(_arm_fixunssfsi.o)
 .bss           0x0000000000000000        0x0 /usr/local/Cellar/arm-none-eabi-gcc/7-2018-q2-update/gcc/bin/../lib/gcc/arm-none-eabi/7.3.1/thumb/v7-m/libgcc.a(_arm_fixunssfsi.o)
 .debug_frame   0x0000000000000000       0x24 /usr/local/Cellar/arm-none-eabi-gcc/7-2018-q2-update/gcc/bin/../lib/gcc/arm-none-eabi/7.3.1/thumb/v7-m/libgcc.a(_arm_fixunssfsi.o)
 .ARM.attributes
                0x0000000000000000       0x1d /usr/local/Cellar/arm-none-eabi-gcc/7-2018-q2-update/gcc/bin/../lib/gcc/arm-none-eabi/7.3.1/thumb/v7-m/libgcc.a(_arm_fixunssfsi.o)
 .data          0x0000000000000000        0x0 /usr/local/Cellar/arm-none-eabi-gcc/7-2018-q2-update/gcc/bin/../lib/gcc/arm-none-eabi/7.3.1/thumb/v7-m/libgcc.a(_powidf2.o)
 .bss           0x0000000000000000        0x0 /usr/local/Cellar/arm-none-eabi-gcc/7-2018-q2-update/gcc/bin/../lib/gcc/arm-none-eabi/7.3.1/thumb/v7-m/libgcc.a(_powidf2.o)

Memory Configuration

Name             Origin             Length             Attributes
bootrom          0x0000000008000000 0x0000000000007400 xr
rom              0x0000000008007400 0x0000000000008c00 xr
bootram          0x0000000020000000 0x0000000000001000 xrw
ram              0x0000000020001000 0x00000000000037bc xrw
bootbuf          0x00000000200047bc 0x0000000000000844 xrw
*default*        0x0000000000000000 0xffffffffffffffff

Linker script and memory map

LOAD /Users/Luppy/stm32bluepill-makecode/pxt-maker/libs/stm32bluepill/built/codal/build/libraries/codal-libopencm3/CMakeFiles/hal.dir/stm32/hal/reset_handler.c.o
START GROUP
LOAD CMakeFiles/STM32_BLUE_PILL.dir/pxtapp/base/advmath.cpp.o
LOAD CMakeFiles/STM32_BLUE_PILL.dir/pxtapp/base/buffer.cpp.o
LOAD CMakeFiles/STM32_BLUE_PILL.dir/pxtapp/base/control.cpp.o
LOAD CMakeFiles/STM32_BLUE_PILL.dir/pxtapp/base/core.cpp.o
LOAD CMakeFiles/STM32_BLUE_PILL.dir/pxtapp/base/gc.cpp.o
LOAD CMakeFiles/STM32_BLUE_PILL.dir/pxtapp/base/loops.cpp.o
LOAD CMakeFiles/STM32_BLUE_PILL.dir/pxtapp/base/pxt.cpp.o
LOAD CMakeFiles/STM32_BLUE_PILL.dir/pxtapp/core---stm32bluepill/codal.cpp.o
LOAD CMakeFiles/STM32_BLUE_PILL.dir/pxtapp/core---stm32bluepill/control.cpp.o
LOAD CMakeFiles/STM32_BLUE_PILL.dir/pxtapp/core---stm32bluepill/dmac.cpp.o
LOAD CMakeFiles/STM32_BLUE_PILL.dir/pxtapp/core---stm32bluepill/hf2.cpp.o
LOAD CMakeFiles/STM32_BLUE_PILL.dir/pxtapp/core---stm32bluepill/i2c.cpp.o
LOAD CMakeFiles/STM32_BLUE_PILL.dir/pxtapp/core---stm32bluepill/pins.cpp.o
LOAD CMakeFiles/STM32_BLUE_PILL.dir/pxtapp/core---stm32bluepill/pinsAnalog.cpp.o
LOAD CMakeFiles/STM32_BLUE_PILL.dir/pxtapp/core---stm32bluepill/pinsDigital.cpp.o
LOAD CMakeFiles/STM32_BLUE_PILL.dir/pxtapp/core---stm32bluepill/pinsPWM.cpp.o
LOAD CMakeFiles/STM32_BLUE_PILL.dir/pxtapp/core---stm32bluepill/platform.cpp.o
LOAD CMakeFiles/STM32_BLUE_PILL.dir/pxtapp/core---stm32bluepill/spi.cpp.o
LOAD CMakeFiles/STM32_BLUE_PILL.dir/pxtapp/core---stm32bluepill/usb.cpp.o
LOAD CMakeFiles/STM32_BLUE_PILL.dir/pxtapp/main.cpp.o
LOAD CMakeFiles/STM32_BLUE_PILL.dir/pxtapp/pointers.cpp.o
LOAD libcodal-libopencm3.a
LOAD libqfplib.a
LOAD libnewlib.a
LOAD libcodal-core.a
LOAD liblibopencm3.a
LOAD libcocoos.a
LOAD libnano-float.a
LOAD liblogger.a
LOAD libbluepill.a
LOAD libbaseloader.a
LOAD libbootloader.a
LOAD libhal.a
LOAD libadcint.a
LOAD libi2cint.a
LOAD libporting.a
LOAD libsimulator.a
LOAD libspiint.a
LOAD libuartint.a
LOAD libcm.a
LOAD libmodel.a
LOAD libbme280.a
LOAD /usr/local/Cellar/arm-none-eabi-gcc/7-2018-q2-update/gcc/bin/../lib/gcc/arm-none-eabi/7.3.1/../../../../arm-none-eabi/lib/thumb/v7-m/libnosys.a
LOAD /usr/local/Cellar/arm-none-eabi-gcc/7-2018-q2-update/gcc/bin/../lib/gcc/arm-none-eabi/7.3.1/../../../../arm-none-eabi/lib/thumb/v7-m/libstdc++.a
LOAD /usr/local/Cellar/arm-none-eabi-gcc/7-2018-q2-update/gcc/bin/../lib/gcc/arm-none-eabi/7.3.1/../../../../arm-none-eabi/lib/thumb/v7-m/libsupc++.a
LOAD /usr/local/Cellar/arm-none-eabi-gcc/7-2018-q2-update/gcc/bin/../lib/gcc/arm-none-eabi/7.3.1/../../../../arm-none-eabi/lib/thumb/v7-m/libstdc++.a
LOAD /usr/local/Cellar/arm-none-eabi-gcc/7-2018-q2-update/gcc/bin/../lib/gcc/arm-none-eabi/7.3.1/../../../../arm-none-eabi/lib/thumb/v7-m/libsupc++.a
END GROUP
LOAD /usr/local/Cellar/arm-none-eabi-gcc/7-2018-q2-update/gcc/bin/../lib/gcc/arm-none-eabi/7.3.1/thumb/v7-m/libgcc.a
                0x0000000000007400                _bootrom_size = 0x7400
                0x0000000000001000                _bootram_size = 0x1000
                0x0000000000000844                _bootbuf_size = 0x844

.boot_text      0x0000000008000000     0x6bd4
                0x0000000008000000                _boot_text = .
 *(SORT_BY_ALIGNMENT(.vectors))
 .vectors       0x0000000008000000      0x150 liblibopencm3.a(vector.c.o)
                0x0000000008000000                vector_table
 *(SORT_BY_ALIGNMENT(.base_vectors))
 .base_vectors  0x0000000008000150       0x18 libbaseloader.a(baseloader.c.o)
                0x0000000008000150                base_vector_table
 *libbaseloader.a:(SORT_BY_ALIGNMENT(.text*))
 .text.baseloader_start
                0x0000000008000168      0x5d0 libbaseloader.a(baseloader.c.o)
                0x0000000008000168                baseloader_start
 .text.baseloader_fetch
                0x0000000008000738       0xd0 libbaseloader.a(baseloader.c.o)
                0x0000000008000738                baseloader_fetch
                0x0000000008000808                . = ALIGN (0x4)
 *libbaseloader.a:(SORT_BY_ALIGNMENT(.rodata*))
                0x0000000008000808                . = ALIGN (0x4)
                0x0000000008000808                _base_etext = .
 *(SORT_BY_ALIGNMENT(.text.blocking_handler*))
 .text.blocking_handler
                0x0000000008000808        0x4 liblibopencm3.a(vector.c.o)
                0x0000000008000808                exti0_isr
                0x0000000008000808                tim7_isr
                0x0000000008000808                adc1_2_isr
                0x0000000008000808                tim1_trg_com_isr
                0x0000000008000808                usb_hp_can_tx_isr
                0x0000000008000808                tim6_isr
                0x0000000008000808                usb_wakeup_isr
                0x0000000008000808                blocking_handler
                0x0000000008000808                tim5_isr
                0x0000000008000808                otg_fs_isr
                0x0000000008000808                spi1_isr
                0x0000000008000808                exti2_isr
                0x0000000008000808                dma1_channel6_isr
                0x0000000008000808                can_rx1_isr
                0x0000000008000808                dma1_channel5_isr
                0x0000000008000808                dma2_channel5_isr
                0x0000000008000808                usart1_isr
                0x0000000008000808                usage_fault_handler
                0x0000000008000808                tim8_trg_com_isr
                0x0000000008000808                can2_rx0_isr
                0x0000000008000808                tim1_brk_isr
                0x0000000008000808                can2_rx1_isr
                0x0000000008000808                tim1_cc_isr
                0x0000000008000808                sdio_isr
                0x0000000008000808                eth_isr
                0x0000000008000808                dma1_channel4_isr
                0x0000000008000808                tim8_brk_isr
                0x0000000008000808                dma2_channel4_5_isr
                0x0000000008000808                pvd_isr
                0x0000000008000808                rcc_isr
                0x0000000008000808                flash_isr
                0x0000000008000808                uart4_isr
                0x0000000008000808                exti15_10_isr
                0x0000000008000808                hard_fault_handler
                0x0000000008000808                exti1_isr
                0x0000000008000808                i2c1_ev_isr
                0x0000000008000808                dma2_channel1_isr
                0x0000000008000808                spi2_isr
                0x0000000008000808                tim8_up_isr
                0x0000000008000808                dma2_channel2_isr
                0x0000000008000808                exti3_isr
                0x0000000008000808                adc3_isr
                0x0000000008000808                tim3_isr
                0x0000000008000808                usart2_isr
                0x0000000008000808                usb_lp_can_rx0_isr
                0x0000000008000808                i2c2_er_isr
                0x0000000008000808                i2c2_ev_isr
                0x0000000008000808                uart5_isr
                0x0000000008000808                fsmc_isr
                0x0000000008000808                dma1_channel1_isr
                0x0000000008000808                exti4_isr
                0x0000000008000808                mem_manage_handler
                0x0000000008000808                can2_tx_isr
                0x0000000008000808                exti9_5_isr
                0x0000000008000808                dma2_channel3_isr
                0x0000000008000808                dma1_channel7_isr
                0x0000000008000808                tim1_up_isr
                0x0000000008000808                can2_sce_isr
                0x0000000008000808                tim4_isr
                0x0000000008000808                dma1_channel2_isr
                0x0000000008000808                i2c1_er_isr
                0x0000000008000808                can_sce_isr
                0x0000000008000808                tim8_cc_isr
                0x0000000008000808                tamper_isr
                0x0000000008000808                eth_wkup_isr
                0x0000000008000808                bus_fault_handler
                0x0000000008000808                wwdg_isr
                0x0000000008000808                dma1_channel3_isr
                0x0000000008000808                spi3_isr
                0x0000000008000808                tim2_isr
                0x0000000008000808                usart3_isr
 *(SORT_BY_ALIGNMENT(.text.null_handler*))
 .text.null_handler
                0x000000000800080c        0x4 liblibopencm3.a(vector.c.o)
                0x000000000800080c                null_handler
                0x000000000800080c                sv_call_handler
                0x000000000800080c                pend_sv_handler
                0x000000000800080c                debug_monitor_handler
                0x000000000800080c                sys_tick_handler
                0x000000000800080c                nmi_handler
 *(SORT_BY_ALIGNMENT(.text.*_isr))
 .text.target_in_isr
                0x0000000008000810       0x10 libhal.a(codal_target_hal.cpp.o)
                0x0000000008000810                target_in_isr
 .text.rtc_isr  0x0000000008000820       0x30 libbluepill.a(timer.cpp.o)
                0x0000000008000820                rtc_isr
 .text.rtc_alarm_isr
                0x0000000008000850       0x30 libbluepill.a(timer.cpp.o)
                0x0000000008000850                rtc_alarm_isr
 :*reset_handler*(SORT_BY_ALIGNMENT(.text*))
 .text.reset_handler
                0x0000000008000880      0x134 /Users/Luppy/stm32bluepill-makecode/pxt-maker/libs/stm32bluepill/built/codal/build/libraries/codal-libopencm3/CMakeFiles/hal.dir/stm32/hal/reset_handler.c.o
                0x0000000008000880                reset_handler
 :*codal_target_hal*(SORT_BY_ALIGNMENT(.text*))
 *libhal.a:*codal_target_hal*(SORT_BY_ALIGNMENT(.text*))
 .text._ZL10timer_tickv
                0x00000000080009b4       0x80 libhal.a(codal_target_hal.cpp.o)
 .text._ZL11timer_alarmv
                0x0000000008000a34       0x28 libhal.a(codal_target_hal.cpp.o)
 .text.target_wait.part.1
                0x0000000008000a5c       0x70 libhal.a(codal_target_hal.cpp.o)
 .text.target_init
                0x0000000008000acc       0x30 libhal.a(codal_target_hal.cpp.o)
                0x0000000008000acc                target_init
 .text.target_wait_for_event
                0x0000000008000afc       0x10 libhal.a(codal_target_hal.cpp.o)
                0x0000000008000afc                target_wait_for_event
 .text.target_wait
                0x0000000008000b0c       0x14 libhal.a(codal_target_hal.cpp.o)
                0x0000000008000b0c                target_wait
 .text.target_wait_us
                0x0000000008000b20       0x20 libhal.a(codal_target_hal.cpp.o)
                0x0000000008000b20                target_wait_us
 .text.target_reset
                0x0000000008000b40       0x14 libhal.a(codal_target_hal.cpp.o)
                0x0000000008000b40                target_reset
 .text.target_enable_irq
                0x0000000008000b54        0x4 libhal.a(codal_target_hal.cpp.o)
                0x0000000008000b54                target_enable_irq
 .text.target_disable_irq
                0x0000000008000b58        0x4 libhal.a(codal_target_hal.cpp.o)
                0x0000000008000b58                target_disable_irq
 .text.target_seed_random
                0x0000000008000b5c       0x10 libhal.a(codal_target_hal.cpp.o)
                0x0000000008000b5c                target_seed_random
 .text.target_get_serial
                0x0000000008000b6c       0x18 libhal.a(codal_target_hal.cpp.o)
                0x0000000008000b6c                target_get_serial
 .text.target_panic
                0x0000000008000b84       0x20 libhal.a(codal_target_hal.cpp.o)
                0x0000000008000b84                target_panic
 .text.fiber_initial_stack_base
                0x0000000008000ba4        0x8 libhal.a(codal_target_hal.cpp.o)
                0x0000000008000ba4                fiber_initial_stack_base
 .text.tcb_allocate
                0x0000000008000bac        0x8 libhal.a(codal_target_hal.cpp.o)
                0x0000000008000bac                tcb_allocate
 .text.tcb_configure_lr
                0x0000000008000bb4        0x4 libhal.a(codal_target_hal.cpp.o)
                0x0000000008000bb4                tcb_configure_lr
 .text.tcb_configure_sp
                0x0000000008000bb8        0x4 libhal.a(codal_target_hal.cpp.o)
                0x0000000008000bb8                tcb_configure_sp
 .text.tcb_configure_stack_base
                0x0000000008000bbc        0x4 libhal.a(codal_target_hal.cpp.o)
                0x0000000008000bbc                tcb_configure_stack_base
 .text.tcb_get_stack_base
                0x0000000008000bc0        0x4 libhal.a(codal_target_hal.cpp.o)
                0x0000000008000bc0                tcb_get_stack_base
 .text.get_current_sp
                0x0000000008000bc4        0x4 libhal.a(codal_target_hal.cpp.o)
                0x0000000008000bc4                get_current_sp
 .text.tcb_get_sp
                0x0000000008000bc8        0x4 libhal.a(codal_target_hal.cpp.o)
                0x0000000008000bc8                tcb_get_sp
 .text.tcb_configure_args
                0x0000000008000bcc        0x8 libhal.a(codal_target_hal.cpp.o)
                0x0000000008000bcc                tcb_configure_args
 .text.test_codal
                0x0000000008000bd4       0x70 libhal.a(codal_target_hal.cpp.o)
                0x0000000008000bd4                test_codal
 .text._fini    0x0000000008000c44        0x4 libhal.a(codal_target_hal.cpp.o)
                0x0000000008000c44                _fini
 .text.__aeabi_atexit
                0x0000000008000c48        0x4 libhal.a(codal_target_hal.cpp.o)
                0x0000000008000c48                __aeabi_atexit
 .text.target_set_tick_callback
                0x0000000008000c4c        0xc libhal.a(codal_target_hal.cpp.o)
                0x0000000008000c4c                target_set_tick_callback
 .text.target_set_alarm_callback
                0x0000000008000c58        0xc libhal.a(codal_target_hal.cpp.o)
                0x0000000008000c58                target_set_alarm_callback
 .text.target_set_bootloader_callback
                0x0000000008000c64        0xc libhal.a(codal_target_hal.cpp.o)
                0x0000000008000c64                target_set_bootloader_callback
 .text.target_enable_debug
                0x0000000008000c70        0x4 libhal.a(codal_target_hal.cpp.o)
                0x0000000008000c70                target_enable_debug
 :*CortexContextSwitch*(SORT_BY_ALIGNMENT(.text*))
 *libhal.a:(SORT_BY_ALIGNMENT(.text*))
 .text          0x0000000008000c74      0x124 libhal.a(CortexContextSwitch.s.o)
                0x0000000008000c74                swap_context
                0x0000000008000cf6                save_context
                0x0000000008000d3a                save_register_context
                0x0000000008000d6a                restore_register_context
 *liblibopencm3.a:(SORT_BY_ALIGNMENT(.text*))
 .text.scb_reset_system
                0x0000000008000d98       0x10 liblibopencm3.a(scb.c.o)
                0x0000000008000d98                scb_reset_system
 .text.gpio_set
                0x0000000008000da8        0x4 liblibopencm3.a(gpio_common_all.c.o)
                0x0000000008000da8                gpio_set
 .text.gpio_clear
                0x0000000008000dac        0x8 liblibopencm3.a(gpio_common_all.c.o)
                0x0000000008000dac                gpio_clear
 .text.pwr_disable_backup_domain_write_protect
                0x0000000008000db4       0x10 liblibopencm3.a(pwr_common_v1.c.o)
                0x0000000008000db4                pwr_disable_backup_domain_write_protect
 .text.pwr_enable_backup_domain_write_protect
                0x0000000008000dc4       0x10 liblibopencm3.a(pwr_common_v1.c.o)
                0x0000000008000dc4                pwr_enable_backup_domain_write_protect
 .text.rcc_periph_clock_enable
                0x0000000008000dd4       0x1c liblibopencm3.a(rcc_common_all.c.o)
                0x0000000008000dd4                rcc_periph_clock_enable
 .text.rcc_periph_reset_pulse
                0x0000000008000df0       0x24 liblibopencm3.a(rcc_common_all.c.o)
                0x0000000008000df0                rcc_periph_reset_pulse
 .text.desig_get_unique_id_as_string
                0x0000000008000e14       0x70 liblibopencm3.a(desig.c.o)
                0x0000000008000e14                desig_get_unique_id_as_string
 .text.gpio_set_mode
                0x0000000008000e84       0x7c liblibopencm3.a(gpio.c.o)
                0x0000000008000e84                gpio_set_mode
 .text.rcc_is_osc_ready.part.0
                0x0000000008000f00       0x10 liblibopencm3.a(rcc.c.o)
 .text.rcc_osc_on.part.1
                0x0000000008000f10       0x10 liblibopencm3.a(rcc.c.o)
 .text.rcc_enable_rtc_clock
                0x0000000008000f20       0x10 liblibopencm3.a(rcc.c.o)
                0x0000000008000f20                rcc_enable_rtc_clock
 .text.rcc_set_rtc_clock_source
                0x0000000008000f30       0x98 liblibopencm3.a(rcc.c.o)
                0x0000000008000f30                rcc_set_rtc_clock_source
 .text.rcc_clock_setup_in_hse_8mhz_out_72mhz
                0x0000000008000fc8       0xcc liblibopencm3.a(rcc.c.o)
                0x0000000008000fc8                rcc_clock_setup_in_hse_8mhz_out_72mhz
 .text.st_usbfs_v1_usbd_init
                0x0000000008001094       0x34 liblibopencm3.a(st_usbfs_v1.c.o)
 .text.st_usbfs_copy_to_pm
                0x00000000080010c8       0x24 liblibopencm3.a(st_usbfs_v1.c.o)
                0x00000000080010c8                st_usbfs_copy_to_pm
 .text.st_usbfs_copy_from_pm
                0x00000000080010ec       0x30 liblibopencm3.a(st_usbfs_v1.c.o)
                0x00000000080010ec                st_usbfs_copy_from_pm
 .text.usbd_init
                0x000000000800111c       0x54 liblibopencm3.a(usb.c.o)
                0x000000000800111c                usbd_init
 .text.usbd_register_sof_callback
                0x0000000008001170        0x4 liblibopencm3.a(usb.c.o)
                0x0000000008001170                usbd_register_sof_callback
 .text._usbd_reset
                0x0000000008001174       0x38 liblibopencm3.a(usb.c.o)
                0x0000000008001174                _usbd_reset
 .text.usbd_poll
                0x00000000080011ac        0x8 liblibopencm3.a(usb.c.o)
                0x00000000080011ac                usbd_poll
 .text.usbd_ep_setup
                0x00000000080011b4       0x10 liblibopencm3.a(usb.c.o)
                0x00000000080011b4                usbd_ep_setup
 .text.usbd_ep_write_packet
                0x00000000080011c4       0x10 liblibopencm3.a(usb.c.o)
                0x00000000080011c4                usbd_ep_write_packet
 .text.usbd_ep_read_packet
                0x00000000080011d4       0x10 liblibopencm3.a(usb.c.o)
                0x00000000080011d4                usbd_ep_read_packet
 .text.usbd_ep_stall_set
                0x00000000080011e4        0x8 liblibopencm3.a(usb.c.o)
                0x00000000080011e4                usbd_ep_stall_set
 .text.usbd_ep_stall_get
                0x00000000080011ec        0x8 liblibopencm3.a(usb.c.o)
                0x00000000080011ec                usbd_ep_stall_get
 .text.usbd_ep_nak_set
                0x00000000080011f4        0x8 liblibopencm3.a(usb.c.o)
                0x00000000080011f4                usbd_ep_nak_set
 .text.usb_control_send_chunk
                0x00000000080011fc       0x54 liblibopencm3.a(usb_control.c.o)
 .text.usb_control_request_dispatch
                0x0000000008001250       0x60 liblibopencm3.a(usb_control.c.o)
 .text.usb_control_setup_read
                0x00000000080012b0       0x7c liblibopencm3.a(usb_control.c.o)
 .text.usb_control_recv_chunk
                0x000000000800132c       0x48 liblibopencm3.a(usb_control.c.o)
 .text.usbd_register_control_callback
                0x0000000008001374       0x30 liblibopencm3.a(usb_control.c.o)
                0x0000000008001374                usbd_register_control_callback
 .text._usbd_control_setup
                0x00000000080013a4       0x64 liblibopencm3.a(usb_control.c.o)
                0x00000000080013a4                _usbd_control_setup
 .text._usbd_control_out
                0x0000000008001408       0xa0 liblibopencm3.a(usb_control.c.o)
                0x0000000008001408                _usbd_control_out
 .text._usbd_control_in
                0x00000000080014a8       0x70 liblibopencm3.a(usb_control.c.o)
                0x00000000080014a8                _usbd_control_in
 .text.usb_standard_set_configuration
                0x0000000008001518       0xa4 liblibopencm3.a(usb_standard.c.o)
 .text.usb_standard_get_configuration
                0x00000000080015bc       0x2c liblibopencm3.a(usb_standard.c.o)
 .text.usb_standard_get_interface
                0x00000000080015e8       0x3c liblibopencm3.a(usb_standard.c.o)
 .text.usb_standard_device_get_status
                0x0000000008001624       0x18 liblibopencm3.a(usb_standard.c.o)
 .text.usb_standard_endpoint_get_status
                0x000000000800163c       0x2c liblibopencm3.a(usb_standard.c.o)
 .text.usb_standard_endpoint_stall
                0x0000000008001668       0x10 liblibopencm3.a(usb_standard.c.o)
 .text.usb_standard_endpoint_unstall
                0x0000000008001678       0x10 liblibopencm3.a(usb_standard.c.o)
 .text.usb_standard_set_address
                0x0000000008001688       0x30 liblibopencm3.a(usb_standard.c.o)
 .text.usb_standard_set_interface
                0x00000000080016b8       0x54 liblibopencm3.a(usb_standard.c.o)
 .text.usb_standard_get_descriptor
                0x000000000800170c      0x294 liblibopencm3.a(usb_standard.c.o)
 .text.usb_standard_interface_get_status
                0x00000000080019a0       0x18 liblibopencm3.a(usb_standard.c.o)
 .text.usbd_register_set_config_callback
                0x00000000080019b8       0x34 liblibopencm3.a(usb_standard.c.o)
                0x00000000080019b8                usbd_register_set_config_callback
 .text._usbd_standard_request_device
                0x00000000080019ec       0x58 liblibopencm3.a(usb_standard.c.o)
                0x00000000080019ec                _usbd_standard_request_device
 .text._usbd_standard_request_endpoint
                0x0000000008001a44       0x40 liblibopencm3.a(usb_standard.c.o)
                0x0000000008001a44                _usbd_standard_request_endpoint
 .text._usbd_standard_request
                0x0000000008001a84       0x64 liblibopencm3.a(usb_standard.c.o)
                0x0000000008001a84                _usbd_standard_request
 .text.flash_set_ws
                0x0000000008001ae8       0x14 liblibopencm3.a(flash_common_all.c.o)
                0x0000000008001ae8                flash_set_ws
 .text.st_usbfs_set_address
                0x0000000008001afc       0x10 liblibopencm3.a(st_usbfs_core.c.o)
                0x0000000008001afc                st_usbfs_set_address
 .text.st_usbfs_set_ep_rx_bufsize
                0x0000000008001b0c       0x44 liblibopencm3.a(st_usbfs_core.c.o)
                0x0000000008001b0c                st_usbfs_set_ep_rx_bufsize
 .text.st_usbfs_ep_setup
                0x0000000008001b50      0x118 liblibopencm3.a(st_usbfs_core.c.o)
                0x0000000008001b50                st_usbfs_ep_setup
 .text.st_usbfs_endpoints_reset
                0x0000000008001c68       0x48 liblibopencm3.a(st_usbfs_core.c.o)
                0x0000000008001c68                st_usbfs_endpoints_reset
 .text.st_usbfs_ep_stall_set
                0x0000000008001cb0       0xc0 liblibopencm3.a(st_usbfs_core.c.o)
                0x0000000008001cb0                st_usbfs_ep_stall_set
 .text.st_usbfs_ep_stall_get
                0x0000000008001d70       0x40 liblibopencm3.a(st_usbfs_core.c.o)
                0x0000000008001d70                st_usbfs_ep_stall_get
 .text.st_usbfs_ep_nak_set
                0x0000000008001db0       0x44 liblibopencm3.a(st_usbfs_core.c.o)
                0x0000000008001db0                st_usbfs_ep_nak_set
 .text.st_usbfs_ep_write_packet
                0x0000000008001df4       0x88 liblibopencm3.a(st_usbfs_core.c.o)
                0x0000000008001df4                st_usbfs_ep_write_packet
 .text.st_usbfs_ep_read_packet
                0x0000000008001e7c       0xb4 liblibopencm3.a(st_usbfs_core.c.o)
                0x0000000008001e7c                st_usbfs_ep_read_packet
 .text.st_usbfs_poll
                0x0000000008001f30       0xe4 liblibopencm3.a(st_usbfs_core.c.o)
                0x0000000008001f30                st_usbfs_poll
 .text.nvic_enable_irq
                0x0000000008002014       0x1c liblibopencm3.a(nvic.c.o)
                0x0000000008002014                nvic_enable_irq
 .text.exti_set_trigger
                0x0000000008002030       0x50 liblibopencm3.a(exti_common_all.c.o)
                0x0000000008002030                exti_set_trigger
 .text.exti_enable_request
                0x0000000008002080       0x1c liblibopencm3.a(exti_common_all.c.o)
                0x0000000008002080                exti_enable_request
 .text.exti_reset_request
                0x000000000800209c        0xc liblibopencm3.a(exti_common_all.c.o)
                0x000000000800209c                exti_reset_request
 .text.rtc_enter_config_mode
                0x00000000080020a8       0x18 liblibopencm3.a(rtc.c.o)
                0x00000000080020a8                rtc_enter_config_mode
 .text.rtc_exit_config_mode
                0x00000000080020c0       0x18 liblibopencm3.a(rtc.c.o)
                0x00000000080020c0                rtc_exit_config_mode
 .text.rtc_set_alarm_time
                0x00000000080020d8       0x40 liblibopencm3.a(rtc.c.o)
                0x00000000080020d8                rtc_set_alarm_time
 .text.rtc_set_prescale_val
                0x0000000008002118       0x40 liblibopencm3.a(rtc.c.o)
                0x0000000008002118                rtc_set_prescale_val
 .text.rtc_get_counter_val
                0x0000000008002158       0x18 liblibopencm3.a(rtc.c.o)
                0x0000000008002158                rtc_get_counter_val
 .text.rtc_set_counter_val
                0x0000000008002170       0x40 liblibopencm3.a(rtc.c.o)
                0x0000000008002170                rtc_set_counter_val
 .text.rtc_interrupt_enable
                0x00000000080021b0       0x5c liblibopencm3.a(rtc.c.o)
                0x00000000080021b0                rtc_interrupt_enable
 .text.rtc_interrupt_disable
                0x000000000800220c       0x5c liblibopencm3.a(rtc.c.o)
                0x000000000800220c                rtc_interrupt_disable
 .text.rtc_clear_flag
                0x0000000008002268       0x34 liblibopencm3.a(rtc.c.o)
                0x0000000008002268                rtc_clear_flag
 .text.rtc_check_flag
                0x000000000800229c       0x30 liblibopencm3.a(rtc.c.o)
                0x000000000800229c                rtc_check_flag
 *libFrameworkLibOpenCM3.a:(SORT_BY_ALIGNMENT(.text*))
 *libcocoos.a:(SORT_BY_ALIGNMENT(.text*))
 .text.os_cbkSleep
                0x00000000080022cc        0x4 libcocoos.a(os_cbk.c.o)
                0x00000000080022cc                os_cbkSleep
 .text.os_init  0x00000000080022d0       0x34 libcocoos.a(os_kernel.c.o)
                0x00000000080022d0                os_init
 .text.os_tick  0x0000000008002304        0x8 libcocoos.a(os_kernel.c.o)
                0x0000000008002304                os_tick
 .text.os_running
                0x000000000800230c        0xc libcocoos.a(os_kernel.c.o)
                0x000000000800230c                os_running
 .text.os_msgQ_init
                0x0000000008002318       0x24 libcocoos.a(os_msgqueue.c.o)
                0x0000000008002318                os_msgQ_init
 .text.os_msgQ_tick
                0x000000000800233c       0x60 libcocoos.a(os_msgqueue.c.o)
                0x000000000800233c                os_msgQ_tick
 .text.os_sem_init
                0x000000000800239c        0xc libcocoos.a(os_sem.c.o)
                0x000000000800239c                os_sem_init
 .text.os_task_init
                0x00000000080023a8       0x44 libcocoos.a(os_task.c.o)
                0x00000000080023a8                os_task_init
 .text.os_task_highest_prio_ready_task
                0x00000000080023ec       0x40 libcocoos.a(os_task.c.o)
                0x00000000080023ec                os_task_highest_prio_ready_task
 .text.os_task_tick
                0x000000000800242c       0x98 libcocoos.a(os_task.c.o)
                0x000000000800242c                os_task_tick
 .text.os_task_signal_event
                0x00000000080024c4       0x74 libcocoos.a(os_task.c.o)
                0x00000000080024c4                os_task_signal_event
 .text.os_task_run
                0x0000000008002538       0x34 libcocoos.a(os_task.c.o)
                0x0000000008002538                os_task_run
 .text.os_on_assert
                0x000000000800256c       0x28 libcocoos.a(os_assert.c.o)
                0x000000000800256c                os_on_assert
 .text.os_event_init
                0x0000000008002594        0xc libcocoos.a(os_event.c.o)
                0x0000000008002594                os_event_init
 .text.os_signal_event
                0x00000000080025a0        0xc libcocoos.a(os_event.c.o)
                0x00000000080025a0                os_signal_event
 .text.os_event_set_signaling_tid
                0x00000000080025ac       0x10 libcocoos.a(os_event.c.o)
                0x00000000080025ac                os_event_set_signaling_tid
 *libcocoOS_?.?.?.a:(SORT_BY_ALIGNMENT(.text*))
 *libgcc.a:(SORT_BY_ALIGNMENT(.text*))
 .text          0x00000000080025bc      0x378 /usr/local/Cellar/arm-none-eabi-gcc/7-2018-q2-update/gcc/bin/../lib/gcc/arm-none-eabi/7.3.1/thumb/v7-m/libgcc.a(_arm_addsubdf3.o)
                0x00000000080025bc                __aeabi_drsub
                0x00000000080025c4                __subdf3
                0x00000000080025c4                __aeabi_dsub
                0x00000000080025c8                __aeabi_dadd
                0x00000000080025c8                __adddf3
                0x0000000008002840                __aeabi_ui2d
                0x0000000008002840                __floatunsidf
                0x0000000008002860                __floatsidf
                0x0000000008002860                __aeabi_i2d
                0x0000000008002884                __extendsfdf2
                0x0000000008002884                __aeabi_f2d
                0x00000000080028c8                __aeabi_ul2d
                0x00000000080028c8                __floatundidf
                0x00000000080028d8                __aeabi_l2d
                0x00000000080028d8                __floatdidf
 .text          0x0000000008002934       0xa0 /usr/local/Cellar/arm-none-eabi-gcc/7-2018-q2-update/gcc/bin/../lib/gcc/arm-none-eabi/7.3.1/thumb/v7-m/libgcc.a(_arm_truncdfsf2.o)
                0x0000000008002934                __aeabi_d2f
                0x0000000008002934                __truncdfsf2
 .text          0x00000000080029d4       0x70 /usr/local/Cellar/arm-none-eabi-gcc/7-2018-q2-update/gcc/bin/../lib/gcc/arm-none-eabi/7.3.1/thumb/v7-m/libgcc.a(_powidf2.o)
                0x00000000080029d4                __powidf2
 *libqfplib.a:(SORT_BY_ALIGNMENT(.text*))
 .text          0x0000000008002a44      0x4c8 libqfplib.a(qfplib.S.o)
                0x0000000008002b0c                qfp_fsub
                0x0000000008002b12                qfp_fadd
                0x0000000008002b54                qfp_fcmp
                0x0000000008002b70                qfp_fmul
                0x0000000008002b80                qfp_fdiv
                0x0000000008002bc2                qfp_fdiv_fast
                0x0000000008002c12                qfp_fsqrt_fast
                0x0000000008002c88                qfp_float2int
                0x0000000008002c8a                qfp_float2fix
                0x0000000008002cb2                qfp_float2uint
                0x0000000008002cb4                qfp_float2ufix
                0x0000000008002cce                qfp_int2float
                0x0000000008002cd0                qfp_fix2float
                0x0000000008002cda                qfp_uint2float
                0x0000000008002cdc                qfp_ufix2float
                0x0000000008002d72                qfp_fsin
                0x0000000008002db4                qfp_fcos
                0x0000000008002dbe                qfp_ftan
                0x0000000008002dc6                qfp_fexp
                0x0000000008002df6                qfp_fsqrt
                0x0000000008002e30                qfp_fln
                0x0000000008002e54                qfp_fatan2
 *libnano-float.a:(SORT_BY_ALIGNMENT(.text*))
 *fill*         0x0000000008002f0c        0x4 
 .text.acos     0x0000000008002f10       0xcc libnano-float.a(functions.c.o)
                0x0000000008002f10                acos
 .text.__wrap___aeabi_ddiv
                0x0000000008002fdc       0x30 libnano-float.a(functions.c.o)
                0x0000000008002fdc                __wrap___aeabi_ddiv
 .text.__wrap___aeabi_dmul
                0x000000000800300c       0x30 libnano-float.a(functions.c.o)
                0x000000000800300c                __wrap___aeabi_dmul
 .text.__wrap___aeabi_dadd
                0x000000000800303c       0x30 libnano-float.a(functions.c.o)
                0x000000000800303c                __wrap___aeabi_dadd
 .text.__wrap___aeabi_dsub
                0x000000000800306c       0x30 libnano-float.a(functions.c.o)
                0x000000000800306c                __wrap___aeabi_dsub
 .text.__wrap___aeabi_dcmpeq
                0x000000000800309c       0x34 libnano-float.a(functions.c.o)
                0x000000000800309c                __wrap___aeabi_dcmpeq
 .text.__wrap___aeabi_dcmplt
                0x00000000080030d0       0x30 libnano-float.a(functions.c.o)
                0x00000000080030d0                __wrap___aeabi_dcmplt
 .text.__wrap___aeabi_dcmple
                0x0000000008003100       0x34 libnano-float.a(functions.c.o)
                0x0000000008003100                __wrap___aeabi_dcmple
 .text.__wrap___aeabi_dcmpge
                0x0000000008003134       0x30 libnano-float.a(functions.c.o)
                0x0000000008003134                __wrap___aeabi_dcmpge
 .text.__wrap___aeabi_dcmpgt
                0x0000000008003164       0x34 libnano-float.a(functions.c.o)
                0x0000000008003164                __wrap___aeabi_dcmpgt
 .text.__wrap___aeabi_dcmpun
                0x0000000008003198       0x34 libnano-float.a(functions.c.o)
                0x0000000008003198                __wrap___aeabi_dcmpun
 .text.__wrap___aeabi_d2iz
                0x00000000080031cc       0x2c libnano-float.a(functions.c.o)
                0x00000000080031cc                __wrap___aeabi_d2iz
 .text.__wrap___aeabi_d2uiz
                0x00000000080031f8       0x38 libnano-float.a(functions.c.o)
                0x00000000080031f8                __wrap___aeabi_d2uiz
 .text.sqrt     0x0000000008003230       0x1c libnano-float.a(functions.c.o)
                0x0000000008003230                sqrt
 .text.log      0x000000000800324c       0x1c libnano-float.a(functions.c.o)
                0x000000000800324c                log
 .text.exp      0x0000000008003268       0x1c libnano-float.a(functions.c.o)
                0x0000000008003268                exp
 .text.log2     0x0000000008003284       0x28 libnano-float.a(functions.c.o)
                0x0000000008003284                log2
 .text.log10    0x00000000080032ac       0x28 libnano-float.a(functions.c.o)
                0x00000000080032ac                log10
 .text.pow      0x00000000080032d4       0x8c libnano-float.a(functions.c.o)
                0x00000000080032d4                pow
 .text.sin      0x0000000008003360       0x1c libnano-float.a(functions.c.o)
                0x0000000008003360                sin
 .text.cos      0x000000000800337c       0x34 libnano-float.a(functions.c.o)
                0x000000000800337c                cos
 .text.tan      0x00000000080033b0       0x1c libnano-float.a(functions.c.o)
                0x00000000080033b0                tan
 .text.atan2    0x00000000080033cc       0x54 libnano-float.a(functions.c.o)
                0x00000000080033cc                atan2
 .text.atan     0x0000000008003420       0xb0 libnano-float.a(functions.c.o)
                0x0000000008003420                atan
 .text.asin     0x00000000080034d0       0x94 libnano-float.a(functions.c.o)
                0x00000000080034d0                asin
 .text.sinh     0x0000000008003564       0xa8 libnano-float.a(functions.c.o)
                0x0000000008003564                sinh
 .text.cosh     0x000000000800360c       0xa4 libnano-float.a(functions.c.o)
                0x000000000800360c                cosh
 .text.tanh     0x00000000080036b0       0xb8 libnano-float.a(functions.c.o)
                0x00000000080036b0                tanh
 .text.asinh    0x0000000008003768       0xa4 libnano-float.a(functions.c.o)
                0x0000000008003768                asinh
 .text.acosh    0x000000000800380c       0xac libnano-float.a(functions.c.o)
                0x000000000800380c                acosh
 .text.atanh    0x00000000080038b8       0xc8 libnano-float.a(functions.c.o)
                0x00000000080038b8                atanh
 .text.trunc    0x0000000008003980       0x8c libnano-float.a(functions.c.o)
                0x0000000008003980                trunc
 .text.floor    0x0000000008003a0c       0x88 libnano-float.a(functions.c.o)
                0x0000000008003a0c                floor
 .text.ceil     0x0000000008003a94       0x88 libnano-float.a(functions.c.o)
                0x0000000008003a94                ceil
 .text.fmod     0x0000000008003b1c      0x13c libnano-float.a(functions.c.o)
                0x0000000008003b1c                fmod
 *libnewlib.a:(SORT_BY_ALIGNMENT(.text*))
 .text._strtol_l.isra.0
                0x0000000008003c58       0xec libnewlib.a(strtol.c.o)
 .text.strtol   0x0000000008003d44       0x14 libnewlib.a(strtol.c.o)
                0x0000000008003d44                strtol
 .text.memcpy   0x0000000008003d58       0x1c libnewlib.a(memcpy-stub.c.o)
                0x0000000008003d58                memcpy
 .text          0x0000000008003d74       0x14 libnewlib.a(strcmp.S.o)
                0x0000000008003d74                strcmp
 .text          0x0000000008003d88       0x10 libnewlib.a(strlen.S.o)
                0x0000000008003d88                strlen
 .text.memcmp   0x0000000008003d98       0x1e libnewlib.a(memcmp.c.o)
                0x0000000008003d98                memcmp
 .text.memmove  0x0000000008003db6       0x32 libnewlib.a(memmove.c.o)
                0x0000000008003db6                memmove
 .text.memset   0x0000000008003de8       0x10 libnewlib.a(memset.c.o)
                0x0000000008003de8                memset
 .text.strstr   0x0000000008003df8       0x2e libnewlib.a(strstr.c.o)
                0x0000000008003df8                strstr
 .text.strncpy  0x0000000008003e26       0x2a libnewlib.a(strncpy.c.o)
                0x0000000008003e26                strncpy
 *liblogger.a:(SORT_BY_ALIGNMENT(.text*))
 .text._ZL12debug_appendPKcj
                0x0000000008003e50       0x58 liblogger.a(logger.cpp.o)
 .text.debug_print.part.3
                0x0000000008003ea8       0x14 liblogger.a(logger.cpp.o)
 .text._Z20debug_flush_internalb.part.2
                0x0000000008003ebc       0xa0 liblogger.a(logger.cpp.o)
 .text.enable_log
                0x0000000008003f5c        0xc liblogger.a(logger.cpp.o)
                0x0000000008003f5c                enable_log
 .text.logger_add_output
                0x0000000008003f68       0x4c liblogger.a(logger.cpp.o)
                0x0000000008003f68                logger_add_output
 .text.debug_flush
                0x0000000008003fb4       0x24 liblogger.a(logger.cpp.o)
                0x0000000008003fb4                debug_flush
 .text.debug_force_flush
                0x0000000008003fd8       0x38 liblogger.a(logger.cpp.o)
                0x0000000008003fd8                debug_force_flush
 .text._Z11debug_printj
                0x0000000008004010       0x88 liblogger.a(logger.cpp.o)
                0x0000000008004010                debug_print(unsigned int)
 .text._Z11debug_printi
                0x0000000008004098       0x30 liblogger.a(logger.cpp.o)
                0x0000000008004098                debug_print(int)
 .text.debug_print
                0x00000000080040c8        0xc liblogger.a(logger.cpp.o)
                0x00000000080040c8                debug_print
 .text.debug_println
                0x00000000080040d4       0x1c liblogger.a(logger.cpp.o)
                0x00000000080040d4                debug_println
 .text._Z13debug_printlni
                0x00000000080040f0       0x18 liblogger.a(logger.cpp.o)
                0x00000000080040f0                debug_println(int)
 .text.debug_print_int
                0x0000000008004108        0x4 liblogger.a(logger.cpp.o)
                0x0000000008004108                debug_print_int
 .text.debug_print_unsigned
                0x000000000800410c        0x4 liblogger.a(logger.cpp.o)
                0x000000000800410c                debug_print_unsigned
 .text.debug_printhex
                0x0000000008004110       0x48 liblogger.a(logger.cpp.o)
                0x0000000008004110                debug_printhex
 .text.debug_printhex_unsigned
                0x0000000008004158       0x24 liblogger.a(logger.cpp.o)
                0x0000000008004158                debug_printhex_unsigned
 *libbluepill.a:(SORT_BY_ALIGNMENT(.text*))
 .text.platform_setup
                0x000000000800417c       0x4c libbluepill.a(bluepill.cpp.o)
                0x000000000800417c                platform_setup
 .text.enable_debug
                0x00000000080041c8       0x10 libbluepill.a(bluepill.cpp.o)
                0x00000000080041c8                enable_debug
 .text.__cxa_pure_virtual
                0x00000000080041d8        0x8 libbluepill.a(bluepill.cpp.o)
                0x00000000080041d8                __cxa_pure_virtual
 .text._Znwj    0x00000000080041e0        0x4 libbluepill.a(bluepill.cpp.o)
                0x00000000080041e0                operator new(unsigned int)
 .text._ZdlPv   0x00000000080041e4        0x4 libbluepill.a(bluepill.cpp.o)
                0x00000000080041e4                operator delete(void*)
 .text.led_setup
                0x00000000080041e8       0x20 libbluepill.a(led.cpp.o)
                0x00000000080041e8                led_setup
 .text.led_on   0x0000000008004208       0x10 libbluepill.a(led.cpp.o)
                0x0000000008004208                led_on
 .text.led_off  0x0000000008004218       0x10 libbluepill.a(led.cpp.o)
                0x0000000008004218                led_off
 .text.led_wait
                0x0000000008004228       0x10 libbluepill.a(led.cpp.o)
                0x0000000008004228                led_wait
 .text.platform_start_timer
                0x0000000008004238      0x11c libbluepill.a(timer.cpp.o)
                0x0000000008004238                platform_start_timer
 .text.platform_set_alarm
                0x0000000008004354       0x34 libbluepill.a(timer.cpp.o)
                0x0000000008004354                platform_set_alarm
 .text.millis   0x0000000008004388        0x4 libbluepill.a(timer.cpp.o)
                0x0000000008004388                millis
 *libbootloader.a:(SORT_BY_ALIGNMENT(.text*))
 .text.poll_restart_callback
                0x000000000800438c       0x20 libbootloader.a(bootloader.c.o)
                0x000000000800438c                poll_restart_callback
 .text.bootloader_poll
                0x00000000080043ac       0x30 libbootloader.a(bootloader.c.o)
                0x00000000080043ac                bootloader_poll
 .text.prepare_baseloader
                0x00000000080043dc      0x25c libbootloader.a(bootloader.c.o)
                0x00000000080043dc                prepare_baseloader
 .text.bootloader_start
                0x0000000008004638      0x170 libbootloader.a(bootloader.c.o)
                0x0000000008004638                bootloader_start
 .text.bootloader_set_restart_callback
                0x00000000080047a8        0xc libbootloader.a(bootloader.c.o)
                0x00000000080047a8                bootloader_set_restart_callback
 .text.flash_flush
                0x00000000080047b4       0xc0 libbootloader.a(ghostfat.c.o)
                0x00000000080047b4                flash_flush
 .text.flash_write
                0x0000000008004874       0xe4 libbootloader.a(ghostfat.c.o)
                0x0000000008004874                flash_write
 .text.hf2_connected
                0x0000000008004958       0x10 libbootloader.a(usb_conf.c.o)
 .text.usb_cdc_transmit
                0x0000000008004968       0x30 libbootloader.a(usb_conf.c.o)
 .text.sof_callback
                0x0000000008004998       0x10 libbootloader.a(usb_conf.c.o)
 .text.cdc_connected
                0x00000000080049a8       0x1c libbootloader.a(usb_conf.c.o)
 .text.set_aggregate_callback
                0x00000000080049c4       0x50 libbootloader.a(usb_conf.c.o)
 .text.usb_setup
                0x0000000008004a14       0xac libbootloader.a(usb_conf.c.o)
                0x0000000008004a14                usb_setup
 .text.get_usb_status
                0x0000000008004ac0       0x2c libbootloader.a(usb_conf.c.o)
                0x0000000008004ac0                get_usb_status
 .text.aggregate_register_config_callback
                0x0000000008004aec       0x3c libbootloader.a(usb_conf.c.o)
                0x0000000008004aec                aggregate_register_config_callback
 .text.aggregate_register_callback
                0x0000000008004b28       0x50 libbootloader.a(usb_conf.c.o)
                0x0000000008004b28                aggregate_register_callback
 .text.usb_set_serial_number
                0x0000000008004b78       0x1c libbootloader.a(usb_conf.c.o)
                0x0000000008004b78                usb_set_serial_number
 .text.dump_buffer
                0x0000000008004b94       0x50 libbootloader.a(usb_conf.c.o)
                0x0000000008004b94                dump_buffer
 .text.dump_usb_request
                0x0000000008004be4      0x178 libbootloader.a(usb_conf.c.o)
                0x0000000008004be4                dump_usb_request
 .text.aggregate_callback
                0x0000000008004d5c       0xc0 libbootloader.a(usb_conf.c.o)
 .text.webusb_set_config
                0x0000000008004e1c       0x28 libbootloader.a(webusb.c.o)
 .text.webusb_control_vendor_request
                0x0000000008004e44       0xa4 libbootloader.a(webusb.c.o)
 .text.webusb_setup
                0x0000000008004ee8       0x50 libbootloader.a(webusb.c.o)
                0x0000000008004ee8                webusb_setup
 .text.winusb_control_vendor_request
                0x0000000008004f38       0x9c libbootloader.a(winusb.c.o)
 .text.winusb_set_config
                0x0000000008004fd4       0x28 libbootloader.a(winusb.c.o)
 .text.winusb_descriptor_request
                0x0000000008004ffc       0x48 libbootloader.a(winusb.c.o)
 .text.winusb_setup
                0x0000000008005044       0x5c libbootloader.a(winusb.c.o)
                0x0000000008005044                winusb_setup
 .text.boot_target_get_startup_mode.part.0
                0x00000000080050a0      0x11c libbootloader.a(target_stm32f103.c.o)
 .text.boot_target_get_startup_mode
                0x00000000080051bc       0x10 libbootloader.a(target_stm32f103.c.o)
                0x00000000080051bc                boot_target_get_startup_mode
 .text.boot_target_set_led
                0x00000000080051cc       0x18 libbootloader.a(target_stm32f103.c.o)
                0x00000000080051cc                boot_target_set_led
 .text.boot_target_gpio_setup
                0x00000000080051e4       0x70 libbootloader.a(target_stm32f103.c.o)
                0x00000000080051e4                boot_target_gpio_setup
 .text.boot_target_usb_init
                0x0000000008005254       0x2c libbootloader.a(target_stm32f103.c.o)
                0x0000000008005254                boot_target_usb_init
 .text.boot_target_set_restart_callback
                0x0000000008005280       0x24 libbootloader.a(target_stm32f103.c.o)
                0x0000000008005280                boot_target_set_restart_callback
 .text.boot_target_manifest_app
                0x00000000080052a4       0x20 libbootloader.a(target_stm32f103.c.o)
                0x00000000080052a4                boot_target_manifest_app
 .text.boot_target_manifest_baseloader
                0x00000000080052c4       0x20 libbootloader.a(target_stm32f103.c.o)
                0x00000000080052c4                boot_target_manifest_baseloader
 .text.boot_target_manifest_bootloader
                0x00000000080052e4       0x20 libbootloader.a(target_stm32f103.c.o)
                0x00000000080052e4                boot_target_manifest_bootloader
 .text.boot_target_get_serial_number
                0x0000000008005304        0x8 libbootloader.a(target_stm32f103.c.o)
                0x0000000008005304                boot_target_get_serial_number
 .text.cdcacm_comm_cb
                0x000000000800530c        0xc libbootloader.a(cdc.c.o)
 .text.cdcacm_set_config
                0x0000000008005318       0x68 libbootloader.a(cdc.c.o)
 .text.cdcacm_control_request
                0x0000000008005380       0x64 libbootloader.a(cdc.c.o)
 .text.cdcadm_transmit
                0x00000000080053e4       0x54 libbootloader.a(cdc.c.o)
                0x00000000080053e4                cdcadm_transmit
 .text.cdcacm_data_rx_cb
                0x0000000008005438       0x4c libbootloader.a(cdc.c.o)
 .text.cdc_setup
                0x0000000008005484       0x2c libbootloader.a(cdc.c.o)
                0x0000000008005484                cdc_setup
 .text.hf2_set_config
                0x00000000080054b0       0x40 libbootloader.a(hf2.c.o)
 .text.pokeSend
                0x00000000080054f0       0xdc libbootloader.a(hf2.c.o)
 .text.assert.part.0
                0x00000000080055cc       0x1c libbootloader.a(hf2.c.o)
 .text.hf2_data_rx_cb
                0x00000000080055e8      0x63c libbootloader.a(hf2.c.o)
 .text.hf2_data_tx_cb
                0x0000000008005c24       0x50 libbootloader.a(hf2.c.o)
 .text.hf2_setup
                0x0000000008005c74       0x84 libbootloader.a(hf2.c.o)
                0x0000000008005c74                hf2_setup
 .text.usb21_set_config
                0x0000000008005cf8       0x28 libbootloader.a(usb21_standard.c.o)
 .text.usb21_standard_get_descriptor
                0x0000000008005d20       0xe0 libbootloader.a(usb21_standard.c.o)
 .text.usb21_setup
                0x0000000008005e00       0x38 libbootloader.a(usb21_standard.c.o)
                0x0000000008005e00                usb21_setup
 .text.backup_write
                0x0000000008005e38       0x38 libbootloader.a(backup.c.o)
                0x0000000008005e38                backup_write
 .text.backup_read
                0x0000000008005e70       0x18 libbootloader.a(backup.c.o)
                0x0000000008005e70                backup_read
                0x0000000008005e88                . = ALIGN (0x4)
 *(SORT_BY_ALIGNMENT(.rodata.blocking_handler*))
 *(SORT_BY_ALIGNMENT(.rodata.null_handler*))
 *(SORT_BY_ALIGNMENT(.rodata.*_isr))
 :*reset_handler*(SORT_BY_ALIGNMENT(.rodata*))
 .rodata.reset_handler.str1.4
                0x0000000008005e88       0x37 /Users/Luppy/stm32bluepill-makecode/pxt-maker/libs/stm32bluepill/built/codal/build/libraries/codal-libopencm3/CMakeFiles/hal.dir/stm32/hal/reset_handler.c.o
 :*codal_target_hal*(SORT_BY_ALIGNMENT(.rodata*))
 *libhal.a:*codal_target_hal*(SORT_BY_ALIGNMENT(.rodata*))
 *fill*         0x0000000008005ebf        0x1 
 .rodata._ZL10timer_tickv.str1.4
                0x0000000008005ec0        0x7 libhal.a(codal_target_hal.cpp.o)
 *fill*         0x0000000008005ec7        0x1 
 .rodata._ZL11timer_alarmv.str1.4
                0x0000000008005ec8        0x4 libhal.a(codal_target_hal.cpp.o)
 .rodata.target_get_serial.str1.4
                0x0000000008005ecc       0x16 libhal.a(codal_target_hal.cpp.o)
 *fill*         0x0000000008005ee2        0x2 
 .rodata.target_panic.str1.4
                0x0000000008005ee4       0x13 libhal.a(codal_target_hal.cpp.o)
 *fill*         0x0000000008005ef7        0x1 
 .rodata.target_reset.str1.4
                0x0000000008005ef8       0x11 libhal.a(codal_target_hal.cpp.o)
 *fill*         0x0000000008005f09        0x3 
 .rodata.target_seed_random.str1.4
                0x0000000008005f0c       0x17 libhal.a(codal_target_hal.cpp.o)
 *fill*         0x0000000008005f23        0x1 
 .rodata.target_wait.part.1.str1.4
                0x0000000008005f24        0xb libhal.a(codal_target_hal.cpp.o)
 *fill*         0x0000000008005f2f        0x1 
 .rodata.test_codal.str1.4
                0x0000000008005f30       0x3c libhal.a(codal_target_hal.cpp.o)
 :*CortexContextSwitch*(SORT_BY_ALIGNMENT(.rodata*))
 *libhal.a:(SORT_BY_ALIGNMENT(.rodata*))
 *liblibopencm3.a:(SORT_BY_ALIGNMENT(.rodata*))
 .rodata.desig_get_unique_id_as_string.str1.4
                0x0000000008005f6c       0x11 liblibopencm3.a(desig.c.o)
 *fill*         0x0000000008005f7d        0x3 
 .rodata.st_usbfs_v1_usb_driver
                0x0000000008005f80       0x34 liblibopencm3.a(st_usbfs_v1.c.o)
                0x0000000008005f80                st_usbfs_v1_usb_driver
 *libFrameworkLibOpenCM3.a:(SORT_BY_ALIGNMENT(.rodata*))
 *libcocoos.a:(SORT_BY_ALIGNMENT(.rodata*))
 .rodata.os_on_assert.str1.4
                0x0000000008005fb4       0x1a libcocoos.a(os_assert.c.o)
 *libcocoOS_?.?.?.a:(SORT_BY_ALIGNMENT(.rodata*))
 *libgcc.a:(SORT_BY_ALIGNMENT(.rodata*))
 *libqfplib.a:(SORT_BY_ALIGNMENT(.rodata*))
 *libnano-float.a:(SORT_BY_ALIGNMENT(.rodata*))
 *libnewlib.a:(SORT_BY_ALIGNMENT(.rodata*))
 .rodata._ctype_
                0x0000000008005fce      0x101 libnewlib.a(ctype_.c.o)
                0x0000000008005fce                _ctype_
 *liblogger.a:(SORT_BY_ALIGNMENT(.rodata*))
 *fill*         0x00000000080060cf        0x1 
 .rodata._Z11debug_printi.str1.4
                0x00000000080060d0        0x6 liblogger.a(logger.cpp.o)
 *fill*         0x00000000080060d6        0x2 
 .rodata._Z11debug_printj.str1.4
                0x00000000080060d8        0xb liblogger.a(logger.cpp.o)
 *fill*         0x00000000080060e3        0x1 
 .rodata._ZL12debug_appendPKcj.str1.4
                0x00000000080060e4        0xa liblogger.a(logger.cpp.o)
 *fill*         0x00000000080060ee        0x2 
 .rodata.debug_println.str1.4
                0x00000000080060f0        0x3 liblogger.a(logger.cpp.o)
 *libbluepill.a:(SORT_BY_ALIGNMENT(.rodata*))
 *fill*         0x00000000080060f3        0x1 
 .rodata.platform_setup.str1.4
                0x00000000080060f4       0x13 libbluepill.a(bluepill.cpp.o)
 *fill*         0x0000000008006107        0x1 
 .rodata.platform_set_alarm.str1.4
                0x0000000008006108        0x6 libbluepill.a(timer.cpp.o)
 *fill*         0x000000000800610e        0x2 
 .rodata.platform_start_timer.str1.4
                0x0000000008006110       0x38 libbluepill.a(timer.cpp.o)
                                         0x35 (size before relaxing)
 *libbootloader.a:(SORT_BY_ALIGNMENT(.rodata*))
 .rodata.bootloader_start.str1.4
                0x0000000008006148       0x79 libbootloader.a(bootloader.c.o)
 *fill*         0x00000000080061c1        0x3 
 .rodata.poll_restart_callback.str1.4
                0x00000000080061c4       0x11 libbootloader.a(bootloader.c.o)
 *fill*         0x00000000080061d5        0x3 
 .rodata.prepare_baseloader.str1.4
                0x00000000080061d8       0xef libbootloader.a(bootloader.c.o)
                                         0xff (size before relaxing)
 *fill*         0x00000000080062c7        0x1 
 .rodata.flash_flush.str1.4
                0x00000000080062c8       0x1d libbootloader.a(ghostfat.c.o)
                                         0x25 (size before relaxing)
 *fill*         0x00000000080062e5        0x3 
 .rodata.flash_write.str1.4
                0x00000000080062e8       0x26 libbootloader.a(ghostfat.c.o)
                                         0x37 (size before relaxing)
 *fill*         0x000000000800630e        0x2 
 .rodata.infoUf2File
                0x0000000008006310       0x55 libbootloader.a(ghostfat.c.o)
                0x0000000008006310                infoUf2File
 *fill*         0x0000000008006365        0x3 
 .rodata.aggregate_callback.str1.4
                0x0000000008006368        0xc libbootloader.a(usb_conf.c.o)
 .rodata.aggregate_register_callback.str1.4
                0x0000000008006374       0x26 libbootloader.a(usb_conf.c.o)
 *fill*         0x000000000800639a        0x2 
 .rodata.aggregate_register_config_callback.str1.4
                0x000000000800639c       0x25 libbootloader.a(usb_conf.c.o)
 *fill*         0x00000000080063c1        0x3 
 .rodata.bos_descriptor
                0x00000000080063c4        0x9 libbootloader.a(usb_conf.c.o)
 *fill*         0x00000000080063cd        0x3 
 .rodata.cdc_iface_assoc
                0x00000000080063d0        0x8 libbootloader.a(usb_conf.c.o)
 .rodata.cdcacm_functional_descriptors
                0x00000000080063d8       0x13 libbootloader.a(usb_conf.c.o)
 *fill*         0x00000000080063eb        0x1 
 .rodata.comm_endp
                0x00000000080063ec        0xf libbootloader.a(usb_conf.c.o)
 *fill*         0x00000000080063fb        0x1 
 .rodata.comm_iface
                0x00000000080063fc       0x15 libbootloader.a(usb_conf.c.o)
 *fill*         0x0000000008006411        0x3 
 .rodata.config
                0x0000000008006414        0xd libbootloader.a(usb_conf.c.o)
 *fill*         0x0000000008006421        0x3 
 .rodata.data_endp
                0x0000000008006424       0x1e libbootloader.a(usb_conf.c.o)
 *fill*         0x0000000008006442        0x2 
 .rodata.data_iface
                0x0000000008006444       0x15 libbootloader.a(usb_conf.c.o)
 *fill*         0x0000000008006459        0x3 
 .rodata.dev    0x000000000800645c       0x12 libbootloader.a(usb_conf.c.o)
 *fill*         0x000000000800646e        0x2 
 .rodata.dump_buffer.str1.4
                0x0000000008006470        0x4 libbootloader.a(usb_conf.c.o)
                                          0x9 (size before relaxing)
 .rodata.dump_usb_request.str1.4
                0x0000000008006474       0x88 libbootloader.a(usb_conf.c.o)
                                         0x90 (size before relaxing)
 .rodata.hf2_endp
                0x00000000080064fc       0x1e libbootloader.a(usb_conf.c.o)
 *fill*         0x000000000800651a        0x2 
 .rodata.hf2_iface
                0x000000000800651c       0x15 libbootloader.a(usb_conf.c.o)
 *fill*         0x0000000008006531        0x3 
 .rodata.interfaces
                0x0000000008006534       0x30 libbootloader.a(usb_conf.c.o)
 .rodata.set_aggregate_callback.str1.4
                0x0000000008006564       0x29 libbootloader.a(usb_conf.c.o)
 .rodata.set_usb_busy.str1.4
                0x000000000800658d       0x29 libbootloader.a(usb_conf.c.o)
                                          0x2 (size before relaxing)
 *fill*         0x000000000800658d        0x3 
 .rodata.str1.4
                0x0000000008006590       0x86 libbootloader.a(usb_conf.c.o)
 *fill*         0x0000000008006616        0x2 
 .rodata.usb_setup.str1.4
                0x0000000008006618       0x31 libbootloader.a(usb_conf.c.o)
 *fill*         0x0000000008006649        0x3 
 .rodata.webusb_control_vendor_request.str1.4
                0x000000000800664c       0x3f libbootloader.a(webusb.c.o)
                                         0x43 (size before relaxing)
 *fill*         0x000000000800668b        0x1 
 .rodata.webusb_platform_capability_descriptor
                0x000000000800668c       0x18 libbootloader.a(webusb.c.o)
                0x000000000800668c                webusb_platform_capability_descriptor
 .rodata.webusb_set_config.str1.4
                0x00000000080066a4       0x1d libbootloader.a(webusb.c.o)
 *fill*         0x00000000080066c1        0x3 
 .rodata.webusb_setup.str1.4
                0x00000000080066c4       0x18 libbootloader.a(webusb.c.o)
 .rodata.guid   0x00000000080066dc       0x92 libbootloader.a(winusb.c.o)
 *fill*         0x000000000800676e        0x2 
 .rodata.microsoft_platform_capability_descriptor
                0x0000000008006770       0x1c libbootloader.a(winusb.c.o)
                0x0000000008006770                microsoft_platform_capability_descriptor
 .rodata.winusb_control_vendor_request.str1.4
                0x000000000800678c       0x17 libbootloader.a(winusb.c.o)
 *fill*         0x00000000080067a3        0x1 
 .rodata.winusb_descriptor_request.str1.4
                0x00000000080067a4        0x6 libbootloader.a(winusb.c.o)
 *fill*         0x00000000080067aa        0x2 
 .rodata.winusb_set_config.str1.4
                0x00000000080067ac       0x1d libbootloader.a(winusb.c.o)
 *fill*         0x00000000080067c9        0x3 
 .rodata.winusb_setup.str1.4
                0x00000000080067cc       0x18 libbootloader.a(winusb.c.o)
 .rodata.winusb_string_descriptor
                0x00000000080067e4       0x12 libbootloader.a(winusb.c.o)
 *fill*         0x00000000080067f6        0x2 
 .rodata.boot_target_get_startup_mode.part.0.str1.4
                0x00000000080067f8       0xa1 libbootloader.a(target_stm32f103.c.o)
                                         0xa5 (size before relaxing)
 *fill*         0x0000000008006899        0x3 
 .rodata.boot_target_manifest_app.str1.4
                0x000000000800689c        0x9 libbootloader.a(target_stm32f103.c.o)
 *fill*         0x00000000080068a5        0x3 
 .rodata.boot_target_manifest_baseloader.str1.4
                0x00000000080068a8       0x10 libbootloader.a(target_stm32f103.c.o)
 .rodata.boot_target_manifest_bootloader.str1.4
                0x00000000080068b8       0x10 libbootloader.a(target_stm32f103.c.o)
 .rodata.boot_target_set_restart_callback.str1.4
                0x00000000080068c8       0x16 libbootloader.a(target_stm32f103.c.o)
 *fill*         0x00000000080068de        0x2 
 .rodata.cdc_setup.str1.4
                0x00000000080068e0       0x15 libbootloader.a(cdc.c.o)
 *fill*         0x00000000080068f5        0x3 
 .rodata.cdcacm_comm_cb.str1.4
                0x00000000080068f8        0x5 libbootloader.a(cdc.c.o)
 *fill*         0x00000000080068fd        0x3 
 .rodata.cdcacm_control_request.str1.4
                0x0000000008006900       0x28 libbootloader.a(cdc.c.o)
                                         0x31 (size before relaxing)
 .rodata.cdcacm_set_config.str1.4
                0x0000000008006928       0x1d libbootloader.a(cdc.c.o)
 *fill*         0x0000000008006945        0x3 
 .rodata.line_coding
                0x0000000008006948        0x7 libbootloader.a(cdc.c.o)
 *fill*         0x000000000800694f        0x1 
 .rodata.assert.part.0.str1.4
                0x0000000008006950        0xc libbootloader.a(hf2.c.o)
 .rodata.bad_packet_message
                0x000000000800695c        0xb libbootloader.a(hf2.c.o)
 *fill*         0x0000000008006967        0x1 
 .rodata.hf2_data_rx_cb.str1.4
                0x0000000008006968      0x1c4 libbootloader.a(hf2.c.o)
                                        0x1e4 (size before relaxing)
 .rodata.hf2_set_config.str1.4
                0x0000000008006b2c        0xf libbootloader.a(hf2.c.o)
 *fill*         0x0000000008006b3b        0x1 
 .rodata.hf2_setup.str1.4
                0x0000000008006b3c       0x2d libbootloader.a(hf2.c.o)
 *fill*         0x0000000008006b69        0x3 
 .rodata.pokeSend.str1.4
                0x0000000008006b6c       0x10 libbootloader.a(hf2.c.o)
                                         0x11 (size before relaxing)
 .rodata.usb21_set_config.str1.4
                0x0000000008006b7c       0x1c libbootloader.a(usb21_standard.c.o)
 .rodata.usb21_setup.str1.4
                0x0000000008006b98       0x17 libbootloader.a(usb21_standard.c.o)
 *fill*         0x0000000008006baf        0x1 
 .rodata.usb21_standard_get_descriptor.str1.4
                0x0000000008006bb0       0x24 libbootloader.a(usb21_standard.c.o)
                0x0000000008006bd4                . = ALIGN (0x4)
                0x0000000008006bd4                _boot_etext = .

.text           0x0000000008007400     0x66d8
                0x0000000008007400                . = ALIGN (0x4)
                0x0000000008007400                _text = .
 *(SORT_BY_ALIGNMENT(.text.application_start))
 .text.application_start
                0x0000000008007400      0x118 libcm.a(application.cpp.o)
                0x0000000008007400                application_start
 *(SORT_BY_ALIGNMENT(.text.main))
 *(SORT_BY_ALIGNMENT(.text.startup.main))
 .text.startup.main
                0x0000000008007518        0xc CMakeFiles/STM32_BLUE_PILL.dir/pxtapp/main.cpp.o
                0x0000000008007518                main
 *(SORT_BY_ALIGNMENT(.text*))
 *fill*         0x0000000008007524        0x4 
 .text._ZN6numops5mycvtEdPc
                0x0000000008007528      0x174 CMakeFiles/STM32_BLUE_PILL.dir/pxtapp/base/core.cpp.o
                0x0000000008007528                numops::mycvt(double, char*)
 *fill*         0x000000000800769c        0x4 
 .text._ZN5Math_12randomDoubleEv
                0x00000000080076a0       0x54 CMakeFiles/STM32_BLUE_PILL.dir/pxtapp/base/core.cpp.o
                0x00000000080076a0                Math_::randomDouble()
 .text._ZN5Math_4log2EPN3pxt12TValueStructE
                0x00000000080076f4       0x14 CMakeFiles/STM32_BLUE_PILL.dir/pxtapp/base/advmath.cpp.o
                0x00000000080076f4                Math_::log2(pxt::TValueStruct*)
 .text._ZN5Math_3expEPN3pxt12TValueStructE
                0x0000000008007708       0x14 CMakeFiles/STM32_BLUE_PILL.dir/pxtapp/base/advmath.cpp.o
                0x0000000008007708                Math_::exp(pxt::TValueStruct*)
 .text._ZN5Math_4tanhEPN3pxt12TValueStructE
                0x000000000800771c       0x14 CMakeFiles/STM32_BLUE_PILL.dir/pxtapp/base/advmath.cpp.o
                0x000000000800771c                Math_::tanh(pxt::TValueStruct*)
 .text._ZN5Math_4sinhEPN3pxt12TValueStructE
                0x0000000008007730       0x14 CMakeFiles/STM32_BLUE_PILL.dir/pxtapp/base/advmath.cpp.o
                0x0000000008007730                Math_::sinh(pxt::TValueStruct*)
 .text._ZN5Math_4coshEPN3pxt12TValueStructE
                0x0000000008007744       0x14 CMakeFiles/STM32_BLUE_PILL.dir/pxtapp/base/advmath.cpp.o
                0x0000000008007744                Math_::cosh(pxt::TValueStruct*)
 .text._ZN5Math_5atanhEPN3pxt12TValueStructE
                0x0000000008007758       0x14 CMakeFiles/STM32_BLUE_PILL.dir/pxtapp/base/advmath.cpp.o
                0x0000000008007758                Math_::atanh(pxt::TValueStruct*)
 .text._ZN5Math_5asinhEPN3pxt12TValueStructE
                0x000000000800776c       0x14 CMakeFiles/STM32_BLUE_PILL.dir/pxtapp/base/advmath.cpp.o
                0x000000000800776c                Math_::asinh(pxt::TValueStruct*)
 .text._ZN5Math_5acoshEPN3pxt12TValueStructE
                0x0000000008007780       0x14 CMakeFiles/STM32_BLUE_PILL.dir/pxtapp/base/advmath.cpp.o
                0x0000000008007780                Math_::acosh(pxt::TValueStruct*)
 .text._ZN3pxtL9readBytesEPhS0_ibi
                0x0000000008007794       0x64 CMakeFiles/STM32_BLUE_PILL.dir/pxtapp/base/buffer.cpp.o
 .text._ZN13BufferMethods8getBytesEPN3pxt11BoxedBufferE
                0x00000000080077f8        0x4 CMakeFiles/STM32_BLUE_PILL.dir/pxtapp/base/buffer.cpp.o
                0x00000000080077f8                BufferMethods::getBytes(pxt::BoxedBuffer*)
 .text._ZN13BufferMethods7getByteEPN3pxt11BoxedBufferEi
                0x00000000080077fc       0x18 CMakeFiles/STM32_BLUE_PILL.dir/pxtapp/base/buffer.cpp.o
                0x00000000080077fc                BufferMethods::getByte(pxt::BoxedBuffer*, int)
 .text._ZN13BufferMethods7setByteEPN3pxt11BoxedBufferEii
                0x0000000008007814       0x14 CMakeFiles/STM32_BLUE_PILL.dir/pxtapp/base/buffer.cpp.o
                0x0000000008007814                BufferMethods::setByte(pxt::BoxedBuffer*, int, int)
 .text._ZN13BufferMethods11writeBufferEPN3pxt11BoxedBufferEiS2_ii
                0x0000000008007828       0x50 CMakeFiles/STM32_BLUE_PILL.dir/pxtapp/base/buffer.cpp.o
                0x0000000008007828                BufferMethods::writeBuffer(pxt::BoxedBuffer*, int, pxt::BoxedBuffer*, int, int)
 .text._ZN13BufferMethods6lengthEPN3pxt11BoxedBufferE
                0x0000000008007878        0x4 CMakeFiles/STM32_BLUE_PILL.dir/pxtapp/base/buffer.cpp.o
                0x0000000008007878                BufferMethods::length(pxt::BoxedBuffer*)
 .text._ZN13BufferMethods4fillEPN3pxt11BoxedBufferEiii
                0x000000000800787c       0x2c CMakeFiles/STM32_BLUE_PILL.dir/pxtapp/base/buffer.cpp.o
                0x000000000800787c                BufferMethods::fill(pxt::BoxedBuffer*, int, int, int)
 .text._ZN13BufferMethods5sliceEPN3pxt11BoxedBufferEii
                0x00000000080078a8       0x28 CMakeFiles/STM32_BLUE_PILL.dir/pxtapp/base/buffer.cpp.o
                0x00000000080078a8                BufferMethods::slice(pxt::BoxedBuffer*, int, int)
 .text._ZN13BufferMethods5shiftEPN3pxt11BoxedBufferEiii
                0x00000000080078d0       0x80 CMakeFiles/STM32_BLUE_PILL.dir/pxtapp/base/buffer.cpp.o
                0x00000000080078d0                BufferMethods::shift(pxt::BoxedBuffer*, int, int, int)
 .text._ZN13BufferMethods5toHexEPN3pxt11BoxedBufferE
                0x0000000008007950       0x40 CMakeFiles/STM32_BLUE_PILL.dir/pxtapp/base/buffer.cpp.o
                0x0000000008007950                BufferMethods::toHex(pxt::BoxedBuffer*)
 .text._ZN13BufferMethods6rotateEPN3pxt11BoxedBufferEiii
                0x0000000008007990       0x74 CMakeFiles/STM32_BLUE_PILL.dir/pxtapp/base/buffer.cpp.o
                0x0000000008007990                BufferMethods::rotate(pxt::BoxedBuffer*, int, int, int)
 .text._ZN13BufferMethods5writeEPN3pxt11BoxedBufferEiS2_
                0x0000000008007a04       0x14 CMakeFiles/STM32_BLUE_PILL.dir/pxtapp/base/buffer.cpp.o
                0x0000000008007a04                BufferMethods::write(pxt::BoxedBuffer*, int, pxt::BoxedBuffer*)
 .text._ZN7control12createBufferEi
                0x0000000008007a18        0x8 CMakeFiles/STM32_BLUE_PILL.dir/pxtapp/base/buffer.cpp.o
                0x0000000008007a18                control::createBuffer(int)
 .text._ZN3pxt13setNumberCoreEPhiNS_12NumberFormatEPNS_12TValueStructE
                0x0000000008007a20      0x108 CMakeFiles/STM32_BLUE_PILL.dir/pxtapp/base/buffer.cpp.o
                0x0000000008007a20                pxt::setNumberCore(unsigned char*, int, pxt::NumberFormat, pxt::TValueStruct*)
 .text._ZN13BufferMethods9setNumberEPN3pxt11BoxedBufferENS0_12NumberFormatEiPNS0_12TValueStructE
                0x0000000008007b28       0x1c CMakeFiles/STM32_BLUE_PILL.dir/pxtapp/base/buffer.cpp.o
                0x0000000008007b28                BufferMethods::setNumber(pxt::BoxedBuffer*, pxt::NumberFormat, int, pxt::TValueStruct*)
 .text._ZN3pxt13getNumberCoreEPhiNS_12NumberFormatE
                0x0000000008007b44      0x120 CMakeFiles/STM32_BLUE_PILL.dir/pxtapp/base/buffer.cpp.o
                0x0000000008007b44                pxt::getNumberCore(unsigned char*, int, pxt::NumberFormat)
 .text._ZN13BufferMethods9getNumberEPN3pxt11BoxedBufferENS0_12NumberFormatEi
                0x0000000008007c64       0x1c CMakeFiles/STM32_BLUE_PILL.dir/pxtapp/base/buffer.cpp.o
                0x0000000008007c64                BufferMethods::getNumber(pxt::BoxedBuffer*, pxt::NumberFormat, int)
 .text._ZN7control6millisEv
                0x0000000008007c80        0x4 CMakeFiles/STM32_BLUE_PILL.dir/pxtapp/base/control.cpp.o
                0x0000000008007c80                control::millis()
 .text._ZN7control15internalOnEventEiiPN3pxt12TValueStructEi
                0x0000000008007c84        0x4 CMakeFiles/STM32_BLUE_PILL.dir/pxtapp/base/control.cpp.o
                0x0000000008007c84                control::internalOnEvent(int, int, pxt::TValueStruct*, int)
 .text._ZN7control5resetEv
                0x0000000008007c88        0x4 CMakeFiles/STM32_BLUE_PILL.dir/pxtapp/base/control.cpp.o
                0x0000000008007c88                control::reset()
 .text._ZN7control10waitMicrosEi
                0x0000000008007c8c        0x8 CMakeFiles/STM32_BLUE_PILL.dir/pxtapp/base/control.cpp.o
                0x0000000008007c8c                control::waitMicros(int)
 .text._ZN7control13runInParallelEPN3pxt12TValueStructE
                0x0000000008007c94        0x4 CMakeFiles/STM32_BLUE_PILL.dir/pxtapp/base/control.cpp.o
                0x0000000008007c94                control::runInParallel(pxt::TValueStruct*)
 .text._ZN7control12waitForEventEii
                0x0000000008007c98        0x4 CMakeFiles/STM32_BLUE_PILL.dir/pxtapp/base/control.cpp.o
                0x0000000008007c98                control::waitForEvent(int, int)
 .text._ZN7control18deviceSerialNumberEv
                0x0000000008007c9c        0x4 CMakeFiles/STM32_BLUE_PILL.dir/pxtapp/base/control.cpp.o
                0x0000000008007c9c                control::deviceSerialNumber()
 .text._ZN7control5__logEiPN3pxt11BoxedStringE
                0x0000000008007ca0       0x10 CMakeFiles/STM32_BLUE_PILL.dir/pxtapp/base/control.cpp.o
                0x0000000008007ca0                control::__log(int, pxt::BoxedString*)
 .text._ZN7control10dmesgValueEPN3pxt12TValueStructE
                0x0000000008007cb0        0x4 CMakeFiles/STM32_BLUE_PILL.dir/pxtapp/base/control.cpp.o
                0x0000000008007cb0                control::dmesgValue(pxt::TValueStruct*)
 .text._ZN7control2gcEv
                0x0000000008007cb4        0x8 CMakeFiles/STM32_BLUE_PILL.dir/pxtapp/base/control.cpp.o
                0x0000000008007cb4                control::gc()
 .text._ZN7control8heapDumpEv
                0x0000000008007cbc       0x14 CMakeFiles/STM32_BLUE_PILL.dir/pxtapp/base/control.cpp.o
                0x0000000008007cbc                control::heapDump()
 .text._ZN7control16profilingEnabledEv
                0x0000000008007cd0        0x4 CMakeFiles/STM32_BLUE_PILL.dir/pxtapp/base/control.cpp.o
                0x0000000008007cd0                control::profilingEnabled()
 .text._ZN3pxtL13dtorDoNothingEv
                0x0000000008007cd4        0x4 CMakeFiles/STM32_BLUE_PILL.dir/pxtapp/base/core.cpp.o
 .text._ZN3pxtL11string_sizeEPNS_11BoxedStringE
                0x0000000008007cd8        0x8 CMakeFiles/STM32_BLUE_PILL.dir/pxtapp/base/core.cpp.o
 .text._ZN3pxtL11number_sizeEPNS_11BoxedNumberE
                0x0000000008007ce0        0x4 CMakeFiles/STM32_BLUE_PILL.dir/pxtapp/base/core.cpp.o
 .text._ZN3pxtL11buffer_sizeEPNS_11BoxedBufferE
                0x0000000008007ce4        0x8 CMakeFiles/STM32_BLUE_PILL.dir/pxtapp/base/core.cpp.o
 .text._ZN3pxt11findBindingEii
                0x0000000008007cec       0x1c CMakeFiles/STM32_BLUE_PILL.dir/pxtapp/base/core.cpp.o
                0x0000000008007cec                pxt::findBinding(int, int)
 .text._ZN3pxt10setBindingEiiPNS_12TValueStructE
                0x0000000008007d08       0x4c CMakeFiles/STM32_BLUE_PILL.dir/pxtapp/base/core.cpp.o
                0x0000000008007d08                pxt::setBinding(int, int, pxt::TValueStruct*)
 .text._ZN3pxt8mkStringEPKci
                0x0000000008007d54       0x4c CMakeFiles/STM32_BLUE_PILL.dir/pxtapp/base/core.cpp.o
                0x0000000008007d54                pxt::mkString(char const*, int)
 .text._ZN3pxt8mkBufferEPKhi
                0x0000000008007da0       0x44 CMakeFiles/STM32_BLUE_PILL.dir/pxtapp/base/core.cpp.o
                0x0000000008007da0                pxt::mkBuffer(unsigned char const*, int)
 .text._ZN3pxt9getRandomEj
                0x0000000008007de4       0x40 CMakeFiles/STM32_BLUE_PILL.dir/pxtapp/base/core.cpp.o
                0x0000000008007de4                pxt::getRandom(unsigned int)
 .text._ZN7String_7mkEmptyEv
                0x0000000008007e24        0xc CMakeFiles/STM32_BLUE_PILL.dir/pxtapp/base/core.cpp.o
                0x0000000008007e24                String_::mkEmpty()
 .text._ZN7String_12fromCharCodeEi
                0x0000000008007e30       0x20 CMakeFiles/STM32_BLUE_PILL.dir/pxtapp/base/core.cpp.o
                0x0000000008007e30                String_::fromCharCode(int)
 .text._ZN7String_6charAtEPN3pxt11BoxedStringEi
                0x0000000008007e50       0x3c CMakeFiles/STM32_BLUE_PILL.dir/pxtapp/base/core.cpp.o
                0x0000000008007e50                String_::charAt(pxt::BoxedString*, int)
 .text._ZN7String_6concatEPN3pxt11BoxedStringES2_
                0x0000000008007e8c       0x6c CMakeFiles/STM32_BLUE_PILL.dir/pxtapp/base/core.cpp.o
                0x0000000008007e8c                String_::concat(pxt::BoxedString*, pxt::BoxedString*)
 .text._ZN7String_7compareEPN3pxt11BoxedStringES2_
                0x0000000008007ef8       0x24 CMakeFiles/STM32_BLUE_PILL.dir/pxtapp/base/core.cpp.o
                0x0000000008007ef8                String_::compare(pxt::BoxedString*, pxt::BoxedString*)
 .text._ZN7String_6lengthEPN3pxt11BoxedStringE
                0x0000000008007f1c        0x4 CMakeFiles/STM32_BLUE_PILL.dir/pxtapp/base/core.cpp.o
                0x0000000008007f1c                String_::length(pxt::BoxedString*)
 .text._ZN7String_8mystrtodEPKcPPc
                0x0000000008007f20      0x16c CMakeFiles/STM32_BLUE_PILL.dir/pxtapp/base/core.cpp.o
                0x0000000008007f20                String_::mystrtod(char const*, char**)
 .text._ZN7String_6substrEPN3pxt11BoxedStringEii
                0x000000000800808c       0x34 CMakeFiles/STM32_BLUE_PILL.dir/pxtapp/base/core.cpp.o
                0x000000000800808c                String_::substr(pxt::BoxedString*, int, int)
 .text._ZN7String_7indexOfEPN3pxt11BoxedStringES2_i
                0x00000000080080c0       0x30 CMakeFiles/STM32_BLUE_PILL.dir/pxtapp/base/core.cpp.o
                0x00000000080080c0                String_::indexOf(pxt::BoxedString*, pxt::BoxedString*, int)
 .text._ZN7String_8includesEPN3pxt11BoxedStringES2_i
                0x00000000080080f0       0x10 CMakeFiles/STM32_BLUE_PILL.dir/pxtapp/base/core.cpp.o
                0x00000000080080f0                String_::includes(pxt::BoxedString*, pxt::BoxedString*, int)
 .text._ZN8Boolean_4bangEi
                0x0000000008008100        0x8 CMakeFiles/STM32_BLUE_PILL.dir/pxtapp/base/core.cpp.o
                0x0000000008008100                Boolean_::bang(int)
 .text._ZN3pxt10fromDoubleEd
                0x0000000008008108       0xac CMakeFiles/STM32_BLUE_PILL.dir/pxtapp/base/core.cpp.o
                0x0000000008008108                pxt::fromDouble(double)
 .text._ZN7String_8toNumberEPN3pxt11BoxedStringE
                0x00000000080081b4       0xa0 CMakeFiles/STM32_BLUE_PILL.dir/pxtapp/base/core.cpp.o
                0x00000000080081b4                String_::toNumber(pxt::BoxedString*)
 .text._ZN3pxt7fromIntEi.part.7
                0x0000000008008254       0x10 CMakeFiles/STM32_BLUE_PILL.dir/pxtapp/base/core.cpp.o
 .text._ZN7String_10charCodeAtEPN3pxt11BoxedStringEi
                0x0000000008008264       0x1c CMakeFiles/STM32_BLUE_PILL.dir/pxtapp/base/core.cpp.o
                0x0000000008008264                String_::charCodeAt(pxt::BoxedString*, int)
 .text._ZN3pxt9fromFloatEf
                0x0000000008008280       0x10 CMakeFiles/STM32_BLUE_PILL.dir/pxtapp/base/core.cpp.o
                0x0000000008008280                pxt::fromFloat(float)
 .text._ZN3pxt7fromIntEi
                0x0000000008008290       0x14 CMakeFiles/STM32_BLUE_PILL.dir/pxtapp/base/core.cpp.o
                0x0000000008008290                pxt::fromInt(int)
 .text._ZN3pxt8fromUIntEj
                0x00000000080082a4       0x1c CMakeFiles/STM32_BLUE_PILL.dir/pxtapp/base/core.cpp.o
                0x00000000080082a4                pxt::fromUInt(unsigned int)
 .text._ZN3pxt8fromBoolEb
                0x00000000080082c0        0xc CMakeFiles/STM32_BLUE_PILL.dir/pxtapp/base/core.cpp.o
                0x00000000080082c0                pxt::fromBool(bool)
 .text._ZN5Math_6randomEv
                0x00000000080082cc       0x10 CMakeFiles/STM32_BLUE_PILL.dir/pxtapp/base/core.cpp.o
                0x00000000080082cc                Math_::random()
 .text._ZN5Math_4imulEii
                0x00000000080082dc        0x8 CMakeFiles/STM32_BLUE_PILL.dir/pxtapp/base/core.cpp.o
                0x00000000080082dc                Math_::imul(int, int)
 .text._ZN5Math_4idivEii
                0x00000000080082e4        0x8 CMakeFiles/STM32_BLUE_PILL.dir/pxtapp/base/core.cpp.o
                0x00000000080082e4                Math_::idiv(int, int)
 .text._ZN6Array_2mkEv
                0x00000000080082ec       0x14 CMakeFiles/STM32_BLUE_PILL.dir/pxtapp/base/core.cpp.o
                0x00000000080082ec                Array_::mk()
 .text._ZN6Array_6lengthEPN3pxt13RefCollectionE
                0x0000000008008300        0x4 CMakeFiles/STM32_BLUE_PILL.dir/pxtapp/base/core.cpp.o
                0x0000000008008300                Array_::length(pxt::RefCollection*)
 .text._ZN6Array_9setLengthEPN3pxt13RefCollectionEi
                0x0000000008008304        0x8 CMakeFiles/STM32_BLUE_PILL.dir/pxtapp/base/core.cpp.o
                0x0000000008008304                Array_::setLength(pxt::RefCollection*, int)
 .text._ZN6Array_4pushEPN3pxt13RefCollectionEPNS0_12TValueStructE
                0x000000000800830c        0xc CMakeFiles/STM32_BLUE_PILL.dir/pxtapp/base/core.cpp.o
                0x000000000800830c                Array_::push(pxt::RefCollection*, pxt::TValueStruct*)
 .text._ZN6Array_3popEPN3pxt13RefCollectionE
                0x0000000008008318        0x8 CMakeFiles/STM32_BLUE_PILL.dir/pxtapp/base/core.cpp.o
                0x0000000008008318                Array_::pop(pxt::RefCollection*)
 .text._ZN6Array_5getAtEPN3pxt13RefCollectionEi
                0x0000000008008320       0x10 CMakeFiles/STM32_BLUE_PILL.dir/pxtapp/base/core.cpp.o
                0x0000000008008320                Array_::getAt(pxt::RefCollection*, int)
 .text._ZN6Array_5setAtEPN3pxt13RefCollectionEiPNS0_12TValueStructE
                0x0000000008008330        0x8 CMakeFiles/STM32_BLUE_PILL.dir/pxtapp/base/core.cpp.o
                0x0000000008008330                Array_::setAt(pxt::RefCollection*, int, pxt::TValueStruct*)
 .text._ZN6Array_8removeAtEPN3pxt13RefCollectionEi
                0x0000000008008338        0x8 CMakeFiles/STM32_BLUE_PILL.dir/pxtapp/base/core.cpp.o
                0x0000000008008338                Array_::removeAt(pxt::RefCollection*, int)
 .text._ZN6Array_8insertAtEPN3pxt13RefCollectionEiPNS0_12TValueStructE
                0x0000000008008340        0x8 CMakeFiles/STM32_BLUE_PILL.dir/pxtapp/base/core.cpp.o
                0x0000000008008340                Array_::insertAt(pxt::RefCollection*, int, pxt::TValueStruct*)
 .text._ZN3pxt11programSizeEv
                0x0000000008008348       0x10 CMakeFiles/STM32_BLUE_PILL.dir/pxtapp/base/core.cpp.o
                0x0000000008008348                pxt::programSize()
 .text._ZN3pxt9getConfigEii
                0x0000000008008358       0x38 CMakeFiles/STM32_BLUE_PILL.dir/pxtapp/base/core.cpp.o
                0x0000000008008358                pxt::getConfig(int, int)
 .text._ZN5pxtrt8ldlocRefEPN3pxt11RefRefLocalE
                0x0000000008008390        0x4 CMakeFiles/STM32_BLUE_PILL.dir/pxtapp/base/core.cpp.o
                0x0000000008008390                pxtrt::ldlocRef(pxt::RefRefLocal*)
 .text._ZN5pxtrt8stlocRefEPN3pxt11RefRefLocalEPNS0_12TValueStructE
                0x0000000008008394        0x4 CMakeFiles/STM32_BLUE_PILL.dir/pxtapp/base/core.cpp.o
                0x0000000008008394                pxtrt::stlocRef(pxt::RefRefLocal*, pxt::TValueStruct*)
 .text._ZN5pxtrt8mklocRefEv
                0x0000000008008398       0x14 CMakeFiles/STM32_BLUE_PILL.dir/pxtapp/base/core.cpp.o
                0x0000000008008398                pxtrt::mklocRef()
 .text._ZN5pxtrt5stcloEPN3pxt9RefActionEiPNS0_12TValueStructE
                0x00000000080083ac       0x34 CMakeFiles/STM32_BLUE_PILL.dir/pxtapp/base/core.cpp.o
                0x00000000080083ac                pxtrt::stclo(pxt::RefAction*, int, pxt::TValueStruct*)
 .text._ZN5pxtrt5panicEi
                0x00000000080083e0        0x4 CMakeFiles/STM32_BLUE_PILL.dir/pxtapp/base/core.cpp.o
                0x00000000080083e0                pxtrt::panic(int)
 .text._ZN5pxtrt11emptyToNullEPN3pxt11BoxedStringE
                0x00000000080083e4        0xc CMakeFiles/STM32_BLUE_PILL.dir/pxtapp/base/core.cpp.o
                0x00000000080083e4                pxtrt::emptyToNull(pxt::BoxedString*)
 .text._ZN5pxtrt9ptrToBoolEPN3pxt12TValueStructE
                0x00000000080083f0        0x8 CMakeFiles/STM32_BLUE_PILL.dir/pxtapp/base/core.cpp.o
                0x00000000080083f0                pxtrt::ptrToBool(pxt::TValueStruct*)
 .text._ZN5pxtrt5mkMapEv
                0x00000000080083f8       0x14 CMakeFiles/STM32_BLUE_PILL.dir/pxtapp/base/core.cpp.o
                0x00000000080083f8                pxtrt::mkMap()
 .text._ZN5pxtrt14mapGetByStringEPN3pxt6RefMapEPNS0_11BoxedStringE
                0x000000000800840c       0x20 CMakeFiles/STM32_BLUE_PILL.dir/pxtapp/base/core.cpp.o
                0x000000000800840c                pxtrt::mapGetByString(pxt::RefMap*, pxt::BoxedString*)
 .text._ZN5pxtrt12lookupMapKeyEPN3pxt11BoxedStringE
                0x000000000800842c       0x88 CMakeFiles/STM32_BLUE_PILL.dir/pxtapp/base/core.cpp.o
                0x000000000800842c                pxtrt::lookupMapKey(pxt::BoxedString*)
 .text._ZN5pxtrt6mapGetEPN3pxt6RefMapEj
                0x00000000080084b4       0x14 CMakeFiles/STM32_BLUE_PILL.dir/pxtapp/base/core.cpp.o
                0x00000000080084b4                pxtrt::mapGet(pxt::RefMap*, unsigned int)
 .text._ZN5pxtrt14mapSetByStringEPN3pxt6RefMapEPNS0_11BoxedStringEPNS0_12TValueStructE
                0x00000000080084c8       0x38 CMakeFiles/STM32_BLUE_PILL.dir/pxtapp/base/core.cpp.o
                0x00000000080084c8                pxtrt::mapSetByString(pxt::RefMap*, pxt::BoxedString*, pxt::TValueStruct*)
 .text._ZN5pxtrt6mapSetEPN3pxt6RefMapEjPNS0_12TValueStructE
                0x0000000008008500       0x14 CMakeFiles/STM32_BLUE_PILL.dir/pxtapp/base/core.cpp.o
                0x0000000008008500                pxtrt::mapSet(pxt::RefMap*, unsigned int, pxt::TValueStruct*)
 .text._ZN5pxtrt13getGlobalsPtrEv
                0x0000000008008514        0xc CMakeFiles/STM32_BLUE_PILL.dir/pxtapp/base/core.cpp.o
                0x0000000008008514                pxtrt::getGlobalsPtr()
 .text._ZN5pxtrt14runtimeWarningEPN3pxt11BoxedStringE
                0x0000000008008520        0x4 CMakeFiles/STM32_BLUE_PILL.dir/pxtapp/base/core.cpp.o
                0x0000000008008520                pxtrt::runtimeWarning(pxt::BoxedString*)
 .text._ZN3pxt7valTypeEPNS_12TValueStructE
                0x0000000008008524       0x48 CMakeFiles/STM32_BLUE_PILL.dir/pxtapp/base/core.cpp.o
                0x0000000008008524                pxt::valType(pxt::TValueStruct*)
 .text._ZN3pxt8toDoubleEPNS_12TValueStructE
                0x000000000800856c       0x60 CMakeFiles/STM32_BLUE_PILL.dir/pxtapp/base/core.cpp.o
                0x000000000800856c                pxt::toDouble(pxt::TValueStruct*)
 .text._ZN3pxt6toUIntEPNS_12TValueStructE
                0x00000000080085cc       0xc8 CMakeFiles/STM32_BLUE_PILL.dir/pxtapp/base/core.cpp.o
                0x00000000080085cc                pxt::toUInt(pxt::TValueStruct*)
 .text._ZN3pxt5toIntEPNS_12TValueStructE
                0x0000000008008694        0x4 CMakeFiles/STM32_BLUE_PILL.dir/pxtapp/base/core.cpp.o
                0x0000000008008694                pxt::toInt(pxt::TValueStruct*)
 .text._ZN6numops4lslsEPN3pxt12TValueStructES2_
                0x0000000008008698       0x2c CMakeFiles/STM32_BLUE_PILL.dir/pxtapp/base/core.cpp.o
                0x0000000008008698                numops::lsls(pxt::TValueStruct*, pxt::TValueStruct*)
 .text._ZN6numops4asrsEPN3pxt12TValueStructES2_
                0x00000000080086c4       0x2c CMakeFiles/STM32_BLUE_PILL.dir/pxtapp/base/core.cpp.o
                0x00000000080086c4                numops::asrs(pxt::TValueStruct*, pxt::TValueStruct*)
 .text._ZN6numops4eorsEPN3pxt12TValueStructES2_
                0x00000000080086f0       0x28 CMakeFiles/STM32_BLUE_PILL.dir/pxtapp/base/core.cpp.o
                0x00000000080086f0                numops::eors(pxt::TValueStruct*, pxt::TValueStruct*)
 .text._ZN6numops4orrsEPN3pxt12TValueStructES2_
                0x0000000008008718       0x28 CMakeFiles/STM32_BLUE_PILL.dir/pxtapp/base/core.cpp.o
                0x0000000008008718                numops::orrs(pxt::TValueStruct*, pxt::TValueStruct*)
 .text._ZN6numops4bnotEPN3pxt12TValueStructE
                0x0000000008008740       0x20 CMakeFiles/STM32_BLUE_PILL.dir/pxtapp/base/core.cpp.o
                0x0000000008008740                numops::bnot(pxt::TValueStruct*)
 .text._ZN6numops4andsEPN3pxt12TValueStructES2_
                0x0000000008008760       0x28 CMakeFiles/STM32_BLUE_PILL.dir/pxtapp/base/core.cpp.o
                0x0000000008008760                numops::ands(pxt::TValueStruct*, pxt::TValueStruct*)
 .text._ZN6numops4lsrsEPN3pxt12TValueStructES2_
                0x0000000008008788       0x30 CMakeFiles/STM32_BLUE_PILL.dir/pxtapp/base/core.cpp.o
                0x0000000008008788                numops::lsrs(pxt::TValueStruct*, pxt::TValueStruct*)
 .text._ZN3pxt7toFloatEPNS_12TValueStructE
                0x00000000080087b8        0xc CMakeFiles/STM32_BLUE_PILL.dir/pxtapp/base/core.cpp.o
                0x00000000080087b8                pxt::toFloat(pxt::TValueStruct*)
 .text._ZN6numops4addsEPN3pxt12TValueStructES2_
                0x00000000080087c4       0x28 CMakeFiles/STM32_BLUE_PILL.dir/pxtapp/base/core.cpp.o
                0x00000000080087c4                numops::adds(pxt::TValueStruct*, pxt::TValueStruct*)
 .text._ZN6numops4subsEPN3pxt12TValueStructES2_
                0x00000000080087ec       0x28 CMakeFiles/STM32_BLUE_PILL.dir/pxtapp/base/core.cpp.o
                0x00000000080087ec                numops::subs(pxt::TValueStruct*, pxt::TValueStruct*)
 .text._ZN6numops4mulsEPN3pxt12TValueStructES2_
                0x0000000008008814       0x58 CMakeFiles/STM32_BLUE_PILL.dir/pxtapp/base/core.cpp.o
                0x0000000008008814                numops::muls(pxt::TValueStruct*, pxt::TValueStruct*)
 .text._ZN6numops3divEPN3pxt12TValueStructES2_
                0x000000000800886c       0x28 CMakeFiles/STM32_BLUE_PILL.dir/pxtapp/base/core.cpp.o
                0x000000000800886c                numops::div(pxt::TValueStruct*, pxt::TValueStruct*)
 .text._ZN6numops3modEPN3pxt12TValueStructES2_
                0x0000000008008894       0x60 CMakeFiles/STM32_BLUE_PILL.dir/pxtapp/base/core.cpp.o
                0x0000000008008894                numops::mod(pxt::TValueStruct*, pxt::TValueStruct*)
 .text._ZN5Math_3powEPN3pxt12TValueStructES2_
                0x00000000080088f4       0x28 CMakeFiles/STM32_BLUE_PILL.dir/pxtapp/base/core.cpp.o
                0x00000000080088f4                Math_::pow(pxt::TValueStruct*, pxt::TValueStruct*)
 .text._ZN5Math_5atan2EPN3pxt12TValueStructES2_
                0x000000000800891c       0x28 CMakeFiles/STM32_BLUE_PILL.dir/pxtapp/base/core.cpp.o
                0x000000000800891c                Math_::atan2(pxt::TValueStruct*, pxt::TValueStruct*)
 .text._ZN5Math_11randomRangeEPN3pxt12TValueStructES2_
                0x0000000008008944       0xb4 CMakeFiles/STM32_BLUE_PILL.dir/pxtapp/base/core.cpp.o
                0x0000000008008944                Math_::randomRange(pxt::TValueStruct*, pxt::TValueStruct*)
 .text._ZN5Math_3logEPN3pxt12TValueStructE
                0x00000000080089f8       0x14 CMakeFiles/STM32_BLUE_PILL.dir/pxtapp/base/core.cpp.o
                0x00000000080089f8                Math_::log(pxt::TValueStruct*)
 .text._ZN5Math_5log10EPN3pxt12TValueStructE
                0x0000000008008a0c       0x14 CMakeFiles/STM32_BLUE_PILL.dir/pxtapp/base/core.cpp.o
                0x0000000008008a0c                Math_::log10(pxt::TValueStruct*)
 .text._ZN5Math_3tanEPN3pxt12TValueStructE
                0x0000000008008a20       0x14 CMakeFiles/STM32_BLUE_PILL.dir/pxtapp/base/core.cpp.o
                0x0000000008008a20                Math_::tan(pxt::TValueStruct*)
 .text._ZN5Math_3sinEPN3pxt12TValueStructE
                0x0000000008008a34       0x14 CMakeFiles/STM32_BLUE_PILL.dir/pxtapp/base/core.cpp.o
                0x0000000008008a34                Math_::sin(pxt::TValueStruct*)
 .text._ZN5Math_3cosEPN3pxt12TValueStructE
                0x0000000008008a48       0x14 CMakeFiles/STM32_BLUE_PILL.dir/pxtapp/base/core.cpp.o
                0x0000000008008a48                Math_::cos(pxt::TValueStruct*)
 .text._ZN5Math_4atanEPN3pxt12TValueStructE
                0x0000000008008a5c       0x14 CMakeFiles/STM32_BLUE_PILL.dir/pxtapp/base/core.cpp.o
                0x0000000008008a5c                Math_::atan(pxt::TValueStruct*)
 .text._ZN5Math_4asinEPN3pxt12TValueStructE
                0x0000000008008a70       0x14 CMakeFiles/STM32_BLUE_PILL.dir/pxtapp/base/core.cpp.o
                0x0000000008008a70                Math_::asin(pxt::TValueStruct*)
 .text._ZN5Math_4acosEPN3pxt12TValueStructE
                0x0000000008008a84       0x14 CMakeFiles/STM32_BLUE_PILL.dir/pxtapp/base/core.cpp.o
                0x0000000008008a84                Math_::acos(pxt::TValueStruct*)
 .text._ZN5Math_4sqrtEPN3pxt12TValueStructE
                0x0000000008008a98       0x14 CMakeFiles/STM32_BLUE_PILL.dir/pxtapp/base/core.cpp.o
                0x0000000008008a98                Math_::sqrt(pxt::TValueStruct*)
 .text._ZN5Math_5floorEPN3pxt12TValueStructE
                0x0000000008008aac       0x14 CMakeFiles/STM32_BLUE_PILL.dir/pxtapp/base/core.cpp.o
                0x0000000008008aac                Math_::floor(pxt::TValueStruct*)
 .text._ZN5Math_4ceilEPN3pxt12TValueStructE
                0x0000000008008ac0       0x14 CMakeFiles/STM32_BLUE_PILL.dir/pxtapp/base/core.cpp.o
                0x0000000008008ac0                Math_::ceil(pxt::TValueStruct*)
 .text._ZN5Math_5truncEPN3pxt12TValueStructE
                0x0000000008008ad4       0x14 CMakeFiles/STM32_BLUE_PILL.dir/pxtapp/base/core.cpp.o
                0x0000000008008ad4                Math_::trunc(pxt::TValueStruct*)
 .text._ZN5Math_5roundEPN3pxt12TValueStructE
                0x0000000008008ae8       0x20 CMakeFiles/STM32_BLUE_PILL.dir/pxtapp/base/core.cpp.o
                0x0000000008008ae8                Math_::round(pxt::TValueStruct*)
 .text._ZN3pxt8eqq_boolEPNS_12TValueStructES1_
                0x0000000008008b08       0x80 CMakeFiles/STM32_BLUE_PILL.dir/pxtapp/base/core.cpp.o
                0x0000000008008b08                pxt::eqq_bool(pxt::TValueStruct*, pxt::TValueStruct*)
 .text._ZN6numops3eqqEPN3pxt12TValueStructES2_
                0x0000000008008b88       0x10 CMakeFiles/STM32_BLUE_PILL.dir/pxtapp/base/core.cpp.o
                0x0000000008008b88                numops::eqq(pxt::TValueStruct*, pxt::TValueStruct*)
 .text._ZN6numops4neqqEPN3pxt12TValueStructES2_
                0x0000000008008b98       0x10 CMakeFiles/STM32_BLUE_PILL.dir/pxtapp/base/core.cpp.o
                0x0000000008008b98                numops::neqq(pxt::TValueStruct*, pxt::TValueStruct*)
 .text._ZN3pxt7eq_boolEPNS_12TValueStructES1_
                0x0000000008008ba8      0x130 CMakeFiles/STM32_BLUE_PILL.dir/pxtapp/base/core.cpp.o
                0x0000000008008ba8                pxt::eq_bool(pxt::TValueStruct*, pxt::TValueStruct*)
 .text._ZN3pxt9switch_eqEPNS_12TValueStructES1_
                0x0000000008008cd8        0x4 CMakeFiles/STM32_BLUE_PILL.dir/pxtapp/base/core.cpp.o
                0x0000000008008cd8                pxt::switch_eq(pxt::TValueStruct*, pxt::TValueStruct*)
 .text._ZN6numops2eqEPN3pxt12TValueStructES2_
                0x0000000008008cdc       0x10 CMakeFiles/STM32_BLUE_PILL.dir/pxtapp/base/core.cpp.o
                0x0000000008008cdc                numops::eq(pxt::TValueStruct*, pxt::TValueStruct*)
 .text._ZN6numops3neqEPN3pxt12TValueStructES2_
                0x0000000008008cec       0x10 CMakeFiles/STM32_BLUE_PILL.dir/pxtapp/base/core.cpp.o
                0x0000000008008cec                numops::neq(pxt::TValueStruct*, pxt::TValueStruct*)
 .text._ZN6Array_7indexOfEPN3pxt13RefCollectionEPNS0_12TValueStructEi
                0x0000000008008cfc       0x30 CMakeFiles/STM32_BLUE_PILL.dir/pxtapp/base/core.cpp.o
                0x0000000008008cfc                Array_::indexOf(pxt::RefCollection*, pxt::TValueStruct*, int)
 .text._ZN6Array_13removeElementEPN3pxt13RefCollectionEPNS0_12TValueStructE
                0x0000000008008d2c       0x1c CMakeFiles/STM32_BLUE_PILL.dir/pxtapp/base/core.cpp.o
                0x0000000008008d2c                Array_::removeElement(pxt::RefCollection*, pxt::TValueStruct*)
 .text._ZN6numops6toBoolEPN3pxt12TValueStructE
                0x0000000008008d48       0x68 CMakeFiles/STM32_BLUE_PILL.dir/pxtapp/base/core.cpp.o
                0x0000000008008d48                numops::toBool(pxt::TValueStruct*)
 .text._ZN6numops10toBoolDecrEPN3pxt12TValueStructE
                0x0000000008008db0       0x14 CMakeFiles/STM32_BLUE_PILL.dir/pxtapp/base/core.cpp.o
                0x0000000008008db0                numops::toBoolDecr(pxt::TValueStruct*)
 .text._ZN6numopsL10valCompareEPN3pxt12TValueStructES2_
                0x0000000008008dc4       0xa8 CMakeFiles/STM32_BLUE_PILL.dir/pxtapp/base/core.cpp.o
 .text._ZN6numops7lt_boolEPN3pxt12TValueStructES2_
                0x0000000008008e6c       0x24 CMakeFiles/STM32_BLUE_PILL.dir/pxtapp/base/core.cpp.o
                0x0000000008008e6c                numops::lt_bool(pxt::TValueStruct*, pxt::TValueStruct*)
 .text._ZN6numops2leEPN3pxt12TValueStructES2_
                0x0000000008008e90       0x24 CMakeFiles/STM32_BLUE_PILL.dir/pxtapp/base/core.cpp.o
                0x0000000008008e90                numops::le(pxt::TValueStruct*, pxt::TValueStruct*)
 .text._ZN6numops2ltEPN3pxt12TValueStructES2_
                0x0000000008008eb4       0x24 CMakeFiles/STM32_BLUE_PILL.dir/pxtapp/base/core.cpp.o
                0x0000000008008eb4                numops::lt(pxt::TValueStruct*, pxt::TValueStruct*)
 .text._ZN6numops2geEPN3pxt12TValueStructES2_
                0x0000000008008ed8       0x20 CMakeFiles/STM32_BLUE_PILL.dir/pxtapp/base/core.cpp.o
                0x0000000008008ed8                numops::ge(pxt::TValueStruct*, pxt::TValueStruct*)
 .text._ZN6numops2gtEPN3pxt12TValueStructES2_
                0x0000000008008ef8       0x20 CMakeFiles/STM32_BLUE_PILL.dir/pxtapp/base/core.cpp.o
                0x0000000008008ef8                numops::gt(pxt::TValueStruct*, pxt::TValueStruct*)
 .text._ZN6numops8toStringEPN3pxt12TValueStructE
                0x0000000008008f18      0x100 CMakeFiles/STM32_BLUE_PILL.dir/pxtapp/base/core.cpp.o
                0x0000000008008f18                numops::toString(pxt::TValueStruct*)
 .text._ZN3pxt6typeOfEPNS_12TValueStructE
                0x0000000008009018       0x50 CMakeFiles/STM32_BLUE_PILL.dir/pxtapp/base/core.cpp.o
                0x0000000008009018                pxt::typeOf(pxt::TValueStruct*)
 .text._ZN3pxt8anyPrintEPNS_12TValueStructE
                0x0000000008009068       0x7c CMakeFiles/STM32_BLUE_PILL.dir/pxtapp/base/core.cpp.o
                0x0000000008009068                pxt::anyPrint(pxt::TValueStruct*)
 .text._ZN3pxt10failedCastEPNS_12TValueStructE
                0x00000000080090e4       0x54 CMakeFiles/STM32_BLUE_PILL.dir/pxtapp/base/core.cpp.o
                0x00000000080090e4                pxt::failedCast(pxt::TValueStruct*)
 .text._ZN3pxt15missingPropertyEPNS_12TValueStructE
                0x0000000008009138       0x1c CMakeFiles/STM32_BLUE_PILL.dir/pxtapp/base/core.cpp.o
                0x0000000008009138                pxt::missingProperty(pxt::TValueStruct*)
 .text._ZN3pxtL13getObjectSizeEPNS_9RefObjectE
                0x0000000008009154       0x40 CMakeFiles/STM32_BLUE_PILL.dir/pxtapp/base/gc.cpp.o
 .text._ZN3pxtL9removePtrEPNS_12TValueStructE
                0x0000000008009194       0x54 CMakeFiles/STM32_BLUE_PILL.dir/pxtapp/base/gc.cpp.o
 .text._ZN3pxt16RefRecord_gcsizeEPNS_9RefRecordE
                0x00000000080091e8        0xc CMakeFiles/STM32_BLUE_PILL.dir/pxtapp/base/gc.cpp.o
                0x00000000080091e8                pxt::RefRecord_gcsize(pxt::RefRecord*)
 .text._ZN3pxt16popThreadContextEPNS_13ThreadContextE
                0x00000000080091f4       0x60 CMakeFiles/STM32_BLUE_PILL.dir/pxtapp/base/gc.cpp.o
                0x00000000080091f4                pxt::popThreadContext(pxt::ThreadContext*)
 .text._ZN3pxt6gcScanEPNS_12TValueStructE
                0x0000000008009254       0x38 CMakeFiles/STM32_BLUE_PILL.dir/pxtapp/base/gc.cpp.o
                0x0000000008009254                pxt::gcScan(pxt::TValueStruct*)
 .text._ZN3pxt10gcScanManyEPPNS_12TValueStructEj
                0x000000000800928c       0x48 CMakeFiles/STM32_BLUE_PILL.dir/pxtapp/base/gc.cpp.o
                0x000000000800928c                pxt::gcScanMany(pxt::TValueStruct**, unsigned int)
 .text._ZN3pxt13gcScanSegmentERNS_7SegmentE
                0x00000000080092d4       0x34 CMakeFiles/STM32_BLUE_PILL.dir/pxtapp/base/gc.cpp.o
                0x00000000080092d4                pxt::gcScanSegment(pxt::Segment&)
 .text._ZN3pxt9gcProcessEPNS_12TValueStructE
                0x0000000008009308       0x58 CMakeFiles/STM32_BLUE_PILL.dir/pxtapp/base/gc.cpp.o
                0x0000000008009308                pxt::gcProcess(pxt::TValueStruct*)
 .text._ZN3pxt2gcEi
                0x0000000008009360      0x260 CMakeFiles/STM32_BLUE_PILL.dir/pxtapp/base/gc.cpp.o
                0x0000000008009360                pxt::gc(int)
 .text._ZN3pxtL13allocateBlockEv
                0x00000000080095c0       0xd0 CMakeFiles/STM32_BLUE_PILL.dir/pxtapp/base/gc.cpp.o
 .text.free     0x0000000008009690       0x48 CMakeFiles/STM32_BLUE_PILL.dir/pxtapp/base/gc.cpp.o
                0x0000000008009690                free
 .text._ZN3pxt10gcAllocateEi
                0x00000000080096d8      0x12c CMakeFiles/STM32_BLUE_PILL.dir/pxtapp/base/gc.cpp.o
                0x00000000080096d8                pxt::gcAllocate(int)
 .text._ZN3pxt15gcAllocateArrayEi
                0x0000000008009804       0x1c CMakeFiles/STM32_BLUE_PILL.dir/pxtapp/base/gc.cpp.o
                0x0000000008009804                pxt::gcAllocateArray(int)
 .text.app_alloc
                0x0000000008009820       0x20 CMakeFiles/STM32_BLUE_PILL.dir/pxtapp/base/gc.cpp.o
                0x0000000008009820                app_alloc
 .text.malloc   0x0000000008009840       0x28 CMakeFiles/STM32_BLUE_PILL.dir/pxtapp/base/gc.cpp.o
                0x0000000008009840                malloc
 .text.realloc  0x0000000008009868       0x74 CMakeFiles/STM32_BLUE_PILL.dir/pxtapp/base/gc.cpp.o
                0x0000000008009868                realloc
 .text._ZN3pxt17pushThreadContextEPvS0_
                0x00000000080098dc       0x84 CMakeFiles/STM32_BLUE_PILL.dir/pxtapp/base/gc.cpp.o
                0x00000000080098dc                pxt::pushThreadContext(void*, void*)
 .text._ZN3pxt10registerGCEPPNS_12TValueStructEi
                0x0000000008009960       0x34 CMakeFiles/STM32_BLUE_PILL.dir/pxtapp/base/gc.cpp.o
                0x0000000008009960                pxt::registerGC(pxt::TValueStruct**, int)
 .text._ZN3pxt13registerGCPtrEPNS_12TValueStructE
                0x0000000008009994       0x1c CMakeFiles/STM32_BLUE_PILL.dir/pxtapp/base/gc.cpp.o
                0x0000000008009994                pxt::registerGCPtr(pxt::TValueStruct*)
 .text._ZN3pxt15unregisterGCPtrEPNS_12TValueStructE
                0x00000000080099b0       0x14 CMakeFiles/STM32_BLUE_PILL.dir/pxtapp/base/gc.cpp.o
                0x00000000080099b0                pxt::unregisterGCPtr(pxt::TValueStruct*)
 .text._ZN3pxt13RefCollection4scanEPS0_
                0x00000000080099c4        0x8 CMakeFiles/STM32_BLUE_PILL.dir/pxtapp/base/gc.cpp.o
                0x00000000080099c4                pxt::RefCollection::scan(pxt::RefCollection*)
 .text._ZN3pxt9RefAction4scanEPS0_
                0x00000000080099cc        0x8 CMakeFiles/STM32_BLUE_PILL.dir/pxtapp/base/gc.cpp.o
                0x00000000080099cc                pxt::RefAction::scan(pxt::RefAction*)
 .text._ZN3pxt11RefRefLocal4scanEPS0_
                0x00000000080099d4        0x8 CMakeFiles/STM32_BLUE_PILL.dir/pxtapp/base/gc.cpp.o
                0x00000000080099d4                pxt::RefRefLocal::scan(pxt::RefRefLocal*)
 .text._ZN3pxt6RefMap4scanEPS0_
                0x00000000080099dc       0x18 CMakeFiles/STM32_BLUE_PILL.dir/pxtapp/base/gc.cpp.o
                0x00000000080099dc                pxt::RefMap::scan(pxt::RefMap*)
 .text._ZN3pxt14RefRecord_scanEPNS_9RefRecordE
                0x00000000080099f4       0x14 CMakeFiles/STM32_BLUE_PILL.dir/pxtapp/base/gc.cpp.o
                0x00000000080099f4                pxt::RefRecord_scan(pxt::RefRecord*)
 .text._ZN3pxt13RefCollection6gcsizeEPS0_
                0x0000000008009a08        0x4 CMakeFiles/STM32_BLUE_PILL.dir/pxtapp/base/gc.cpp.o
                0x0000000008009a08                pxt::RefCollection::gcsize(pxt::RefCollection*)
 .text._ZN3pxt9RefAction6gcsizeEPS0_
                0x0000000008009a0c        0xc CMakeFiles/STM32_BLUE_PILL.dir/pxtapp/base/gc.cpp.o
                0x0000000008009a0c                pxt::RefAction::gcsize(pxt::RefAction*)
 .text._ZN3pxt11RefRefLocal6gcsizeEPS0_
                0x0000000008009a18        0x4 CMakeFiles/STM32_BLUE_PILL.dir/pxtapp/base/gc.cpp.o
                0x0000000008009a18                pxt::RefRefLocal::gcsize(pxt::RefRefLocal*)
 .text._ZN3pxt6RefMap6gcsizeEPS0_
                0x0000000008009a1c        0x4 CMakeFiles/STM32_BLUE_PILL.dir/pxtapp/base/gc.cpp.o
                0x0000000008009a1c                pxt::RefMap::gcsize(pxt::RefMap*)
 .text.startup._GLOBAL__sub_I__ZN3pxt16RefRecord_gcsizeEPNS_9RefRecordE
                0x0000000008009a20       0x18 CMakeFiles/STM32_BLUE_PILL.dir/pxtapp/base/gc.cpp.o
 .text._ZN5loops7foreverEPN3pxt12TValueStructE
                0x0000000008009a38        0x4 CMakeFiles/STM32_BLUE_PILL.dir/pxtapp/base/loops.cpp.o
                0x0000000008009a38                loops::forever(pxt::TValueStruct*)
 .text._ZN5loops5pauseEi
                0x0000000008009a3c        0xc CMakeFiles/STM32_BLUE_PILL.dir/pxtapp/base/loops.cpp.o
                0x0000000008009a3c                loops::pause(int)
 .text._ZN3pxt17RefRecord_destroyEPNS_9RefRecordE
                0x0000000008009a48        0x4 CMakeFiles/STM32_BLUE_PILL.dir/pxtapp/base/pxt.cpp.o
                0x0000000008009a48                pxt::RefRecord_destroy(pxt::RefRecord*)
 .text._ZN3pxt13RefCollection7destroyEPS0_
                0x0000000008009a4c        0x8 CMakeFiles/STM32_BLUE_PILL.dir/pxtapp/base/pxt.cpp.o
                0x0000000008009a4c                pxt::RefCollection::destroy(pxt::RefCollection*)
 .text._ZN3pxt6RefMap7destroyEPS0_
                0x0000000008009a54        0xc CMakeFiles/STM32_BLUE_PILL.dir/pxtapp/base/pxt.cpp.o
                0x0000000008009a54                pxt::RefMap::destroy(pxt::RefMap*)
 .text._ZN3pxt9RefAction5printEPS0_
                0x0000000008009a60       0x28 CMakeFiles/STM32_BLUE_PILL.dir/pxtapp/base/pxt.cpp.o
                0x0000000008009a60                pxt::RefAction::print(pxt::RefAction*)
 .text._ZN3pxt11RefRefLocal5printEPS0_
                0x0000000008009a88       0x10 CMakeFiles/STM32_BLUE_PILL.dir/pxtapp/base/pxt.cpp.o
                0x0000000008009a88                pxt::RefRefLocal::print(pxt::RefRefLocal*)
 .text._ZN3pxt6RefMap5printEPS0_
                0x0000000008009a98       0x10 CMakeFiles/STM32_BLUE_PILL.dir/pxtapp/base/pxt.cpp.o
                0x0000000008009a98                pxt::RefMap::print(pxt::RefMap*)
 .text._ZN3pxt9LLSegment9setLengthEj.part.5
                0x0000000008009aa8       0x98 CMakeFiles/STM32_BLUE_PILL.dir/pxtapp/base/pxt.cpp.o
 .text._ZN3pxt8checkStrEbPKc.part.6
                0x0000000008009b40       0x1c CMakeFiles/STM32_BLUE_PILL.dir/pxtapp/base/pxt.cpp.o
 .text._ZN3pxt9RefAction7destroyEPS0_
                0x0000000008009b5c        0x4 CMakeFiles/STM32_BLUE_PILL.dir/pxtapp/base/pxt.cpp.o
                0x0000000008009b5c                pxt::RefAction::destroy(pxt::RefAction*)
 .text._ZN3pxt11RefRefLocal7destroyEPS0_
                0x0000000008009b60        0x4 CMakeFiles/STM32_BLUE_PILL.dir/pxtapp/base/pxt.cpp.o
                0x0000000008009b60                pxt::RefRefLocal::destroy(pxt::RefRefLocal*)
 .text._ZN3pxt8mkActionEiPNS_9RefActionE
                0x0000000008009b64       0x64 CMakeFiles/STM32_BLUE_PILL.dir/pxtapp/base/pxt.cpp.o
                0x0000000008009b64                pxt::mkAction(int, pxt::RefAction*)
 .text._ZN3pxt15mkClassInstanceEPNS_6VTableE
                0x0000000008009bc8       0x44 CMakeFiles/STM32_BLUE_PILL.dir/pxtapp/base/pxt.cpp.o
                0x0000000008009bc8                pxt::mkClassInstance(pxt::VTable*)
 .text._ZN3pxt9RefObject9destroyVTEv
                0x0000000008009c0c        0xc CMakeFiles/STM32_BLUE_PILL.dir/pxtapp/base/pxt.cpp.o
                0x0000000008009c0c                pxt::RefObject::destroyVT()
 .text._ZN3pxt15deleteRefObjectEPNS_9RefObjectE
                0x0000000008009c18        0xc CMakeFiles/STM32_BLUE_PILL.dir/pxtapp/base/pxt.cpp.o
                0x0000000008009c18                pxt::deleteRefObject(pxt::RefObject*)
 .text._ZN3pxt15RefRecord_printEPNS_9RefRecordE
                0x0000000008009c24       0x18 CMakeFiles/STM32_BLUE_PILL.dir/pxtapp/base/pxt.cpp.o
                0x0000000008009c24                pxt::RefRecord_print(pxt::RefRecord*)
 .text._ZN3pxt9LLSegment3setEjPNS_12TValueStructE
                0x0000000008009c3c       0x30 CMakeFiles/STM32_BLUE_PILL.dir/pxtapp/base/pxt.cpp.o
                0x0000000008009c3c                pxt::LLSegment::set(unsigned int, pxt::TValueStruct*)
 .text._ZN3pxt9LLSegment3popEv
                0x0000000008009c6c       0x1c CMakeFiles/STM32_BLUE_PILL.dir/pxtapp/base/pxt.cpp.o
                0x0000000008009c6c                pxt::LLSegment::pop()
 .text._ZN3pxt7Segment9growByMinEt
                0x0000000008009c88       0x90 CMakeFiles/STM32_BLUE_PILL.dir/pxtapp/base/pxt.cpp.o
                0x0000000008009c88                pxt::Segment::growByMin(unsigned short)
 .text._ZN3pxt7Segment3setEjPNS_12TValueStructE
                0x0000000008009d18       0x40 CMakeFiles/STM32_BLUE_PILL.dir/pxtapp/base/pxt.cpp.o
                0x0000000008009d18                pxt::Segment::set(unsigned int, pxt::TValueStruct*)
 .text._ZN3pxt7Segment9setLengthEj
                0x0000000008009d58       0x20 CMakeFiles/STM32_BLUE_PILL.dir/pxtapp/base/pxt.cpp.o
                0x0000000008009d58                pxt::Segment::setLength(unsigned int)
 .text._ZN3pxt7Segment3popEv
                0x0000000008009d78       0x1c CMakeFiles/STM32_BLUE_PILL.dir/pxtapp/base/pxt.cpp.o
                0x0000000008009d78                pxt::Segment::pop()
 .text._ZN3pxt7Segment6removeEj
                0x0000000008009d94       0x48 CMakeFiles/STM32_BLUE_PILL.dir/pxtapp/base/pxt.cpp.o
                0x0000000008009d94                pxt::Segment::remove(unsigned int)
 .text._ZN3pxt7Segment6insertEjPNS_12TValueStructE
                0x0000000008009ddc       0x44 CMakeFiles/STM32_BLUE_PILL.dir/pxtapp/base/pxt.cpp.o
                0x0000000008009ddc                pxt::Segment::insert(unsigned int, pxt::TValueStruct*)
 .text._ZN3pxt7Segment5printEv
                0x0000000008009e20       0x38 CMakeFiles/STM32_BLUE_PILL.dir/pxtapp/base/pxt.cpp.o
                0x0000000008009e20                pxt::Segment::print()
 .text._ZN3pxt13RefCollection5printEPS0_
                0x0000000008009e58       0x20 CMakeFiles/STM32_BLUE_PILL.dir/pxtapp/base/pxt.cpp.o
                0x0000000008009e58                pxt::RefCollection::print(pxt::RefCollection*)
 .text._ZN3pxt13RefCollectionC2Ev
                0x0000000008009e78       0x10 CMakeFiles/STM32_BLUE_PILL.dir/pxtapp/base/pxt.cpp.o
                0x0000000008009e78                pxt::RefCollection::RefCollection()
                0x0000000008009e78                pxt::RefCollection::RefCollection()
 .text._ZN3pxt11RefRefLocalC2Ev
                0x0000000008009e88       0x10 CMakeFiles/STM32_BLUE_PILL.dir/pxtapp/base/pxt.cpp.o
                0x0000000008009e88                pxt::RefRefLocal::RefRefLocal()
                0x0000000008009e88                pxt::RefRefLocal::RefRefLocal()
 .text._ZN3pxt6RefMapC2Ev
                0x0000000008009e98       0x14 CMakeFiles/STM32_BLUE_PILL.dir/pxtapp/base/pxt.cpp.o
                0x0000000008009e98                pxt::RefMap::RefMap()
                0x0000000008009e98                pxt::RefMap::RefMap()
 .text._ZN3pxt6RefMap7findIdxEPNS_11BoxedStringE
                0x0000000008009eac       0x64 CMakeFiles/STM32_BLUE_PILL.dir/pxtapp/base/pxt.cpp.o
                0x0000000008009eac                pxt::RefMap::findIdx(pxt::BoxedString*)
 .text._ZN3pxt13debugMemLeaksEv
                0x0000000008009f10        0x4 CMakeFiles/STM32_BLUE_PILL.dir/pxtapp/base/pxt.cpp.o
                0x0000000008009f10                pxt::debugMemLeaks()
 .text._ZN3pxt5errorENS_9PXT_PANICEi
                0x0000000008009f14       0x1c CMakeFiles/STM32_BLUE_PILL.dir/pxtapp/base/pxt.cpp.o
                0x0000000008009f14                pxt::error(pxt::PXT_PANIC, int)
 .text._ZN3pxt12templateHashEv
                0x0000000008009f30        0xc CMakeFiles/STM32_BLUE_PILL.dir/pxtapp/base/pxt.cpp.o
                0x0000000008009f30                pxt::templateHash()
 .text._ZN3pxt11programHashEv
                0x0000000008009f3c        0xc CMakeFiles/STM32_BLUE_PILL.dir/pxtapp/base/pxt.cpp.o
                0x0000000008009f3c                pxt::programHash()
 .text._ZN3pxt13getNumGlobalsEv
                0x0000000008009f48        0xc CMakeFiles/STM32_BLUE_PILL.dir/pxtapp/base/pxt.cpp.o
                0x0000000008009f48                pxt::getNumGlobals()
 .text._ZN3pxt11exec_binaryEPj
                0x0000000008009f54      0x108 CMakeFiles/STM32_BLUE_PILL.dir/pxtapp/base/pxt.cpp.o
                0x0000000008009f54                pxt::exec_binary(unsigned int*)
 .text._ZN3pxt5startEv
                0x000000000800a05c        0xc CMakeFiles/STM32_BLUE_PILL.dir/pxtapp/base/pxt.cpp.o
                0x000000000800a05c                pxt::start()
 .text._ZN6Array_7isArrayEPN3pxt12TValueStructE
                0x000000000800a068       0x2c CMakeFiles/STM32_BLUE_PILL.dir/pxtapp/base/pxt.cpp.o
                0x000000000800a068                Array_::isArray(pxt::TValueStruct*)
 .text._ZN5pxtrt6keysOfEPN3pxt12TValueStructE
                0x000000000800a094       0x68 CMakeFiles/STM32_BLUE_PILL.dir/pxtapp/base/pxt.cpp.o
                0x000000000800a094                pxtrt::keysOf(pxt::TValueStruct*)
 .text._ZN5codal14CodalComponent4initEv
                0x000000000800a0fc        0x8 CMakeFiles/STM32_BLUE_PILL.dir/pxtapp/core---stm32bluepill/codal.cpp.o
                0x000000000800a0fc                codal::CodalComponent::init()
 .text._ZN3pxtL10runAction0EPNS_12TValueStructE
                0x000000000800a104       0x18 CMakeFiles/STM32_BLUE_PILL.dir/pxtapp/core---stm32bluepill/codal.cpp.o
 .text._ZN3pxt13dispatchEventEN5codal5EventE
                0x000000000800a11c       0x70 CMakeFiles/STM32_BLUE_PILL.dir/pxtapp/core---stm32bluepill/codal.cpp.o
                0x000000000800a11c                pxt::dispatchEvent(codal::Event)
 .text._ZN3pxt9fiberDoneEPv
                0x000000000800a18c       0x10 CMakeFiles/STM32_BLUE_PILL.dir/pxtapp/core---stm32bluepill/codal.cpp.o
                0x000000000800a18c                pxt::fiberDone(void*)
 .text._ZN3pxt12forever_stubEPv
                0x000000000800a19c       0x20 CMakeFiles/STM32_BLUE_PILL.dir/pxtapp/core---stm32bluepill/codal.cpp.o
                0x000000000800a19c                pxt::forever_stub(void*)
 .text._ZN5codal3_cm5TimerD2Ev
                0x000000000800a1bc       0x14 CMakeFiles/STM32_BLUE_PILL.dir/pxtapp/core---stm32bluepill/codal.cpp.o
                0x000000000800a1bc                codal::_cm::Timer::~Timer()
                0x000000000800a1bc                codal::_cm::Timer::~Timer()
 .text._ZN3pxt12releaseFiberEv
                0x000000000800a1d0        0x4 CMakeFiles/STM32_BLUE_PILL.dir/pxtapp/core---stm32bluepill/codal.cpp.o
                0x000000000800a1d0                pxt::releaseFiber()
 .text._ZN3pxt8sleep_msEj
                0x000000000800a1d4        0x4 CMakeFiles/STM32_BLUE_PILL.dir/pxtapp/core---stm32bluepill/codal.cpp.o
                0x000000000800a1d4                pxt::sleep_ms(unsigned int)
 .text._ZN3pxt8sleep_usEy
                0x000000000800a1d8        0x4 CMakeFiles/STM32_BLUE_PILL.dir/pxtapp/core---stm32bluepill/codal.cpp.o
                0x000000000800a1d8                pxt::sleep_us(unsigned long long)
 .text._ZN3pxt10runForeverEPNS_12TValueStructE
                0x000000000800a1dc       0x24 CMakeFiles/STM32_BLUE_PILL.dir/pxtapp/core---stm32bluepill/codal.cpp.o
                0x000000000800a1dc                pxt::runForever(pxt::TValueStruct*)
 .text._ZN3pxt13runInParallelEPNS_12TValueStructE
                0x000000000800a200       0x24 CMakeFiles/STM32_BLUE_PILL.dir/pxtapp/core---stm32bluepill/codal.cpp.o
                0x000000000800a200                pxt::runInParallel(pxt::TValueStruct*)
 .text._ZN3pxt12waitForEventEii
                0x000000000800a224        0x8 CMakeFiles/STM32_BLUE_PILL.dir/pxtapp/core---stm32bluepill/codal.cpp.o
                0x000000000800a224                pxt::waitForEvent(int, int)
 .text._ZN3pxt11initRuntimeEv
                0x000000000800a22c      0x12c CMakeFiles/STM32_BLUE_PILL.dir/pxtapp/core---stm32bluepill/codal.cpp.o
                0x000000000800a22c                pxt::initRuntime()
 .text._ZN3pxt16afterProgramPageEv
                0x000000000800a358       0x20 CMakeFiles/STM32_BLUE_PILL.dir/pxtapp/core---stm32bluepill/codal.cpp.o
                0x000000000800a358                pxt::afterProgramPage()
 .text._ZN3pxt15getSerialNumberEv
                0x000000000800a378        0x4 CMakeFiles/STM32_BLUE_PILL.dir/pxtapp/core---stm32bluepill/codal.cpp.o
                0x000000000800a378                pxt::getSerialNumber()
 .text._ZN3pxt15current_time_msEv
                0x000000000800a37c        0x4 CMakeFiles/STM32_BLUE_PILL.dir/pxtapp/core---stm32bluepill/codal.cpp.o
                0x000000000800a37c                pxt::current_time_ms()
 .text._ZN3pxt16getThreadContextEv
                0x000000000800a380        0xc CMakeFiles/STM32_BLUE_PILL.dir/pxtapp/core---stm32bluepill/codal.cpp.o
                0x000000000800a380                pxt::getThreadContext()
 .text._ZN3pxt16setThreadContextEPNS_13ThreadContextE
                0x000000000800a38c        0xc CMakeFiles/STM32_BLUE_PILL.dir/pxtapp/core---stm32bluepill/codal.cpp.o
                0x000000000800a38c                pxt::setThreadContext(pxt::ThreadContext*)
 .text._ZN3pxt15gcProcessStacksEi
                0x000000000800a398       0xd4 CMakeFiles/STM32_BLUE_PILL.dir/pxtapp/core---stm32bluepill/codal.cpp.o
                0x000000000800a398                pxt::gcProcessStacks(int)
 .text.startup._GLOBAL__sub_I__ZN3pxt8devTimerE
                0x000000000800a46c       0x58 CMakeFiles/STM32_BLUE_PILL.dir/pxtapp/core---stm32bluepill/codal.cpp.o
 .text._ZN3pxt15registerWithDalEiiPNS_12TValueStructEi
                0x000000000800a4c4       0x64 CMakeFiles/STM32_BLUE_PILL.dir/pxtapp/core---stm32bluepill/codal.cpp.o
                0x000000000800a4c4                pxt::registerWithDal(int, int, pxt::TValueStruct*, int)
 .text._ZN7control10raiseEventEii
                0x000000000800a528       0x18 CMakeFiles/STM32_BLUE_PILL.dir/pxtapp/core---stm32bluepill/control.cpp.o
                0x000000000800a528                control::raiseEvent(int, int)
 .text._ZN7control16deviceDalVersionEv
                0x000000000800a540       0x10 CMakeFiles/STM32_BLUE_PILL.dir/pxtapp/core---stm32bluepill/control.cpp.o
                0x000000000800a540                control::deviceDalVersion()
 .text._ZN7control19allocateNotifyEventEv
                0x000000000800a550        0x8 CMakeFiles/STM32_BLUE_PILL.dir/pxtapp/core---stm32bluepill/control.cpp.o
                0x000000000800a550                control::allocateNotifyEvent()
 .text._ZN7control5dmesgEPN3pxt11BoxedStringE
                0x000000000800a558        0xc CMakeFiles/STM32_BLUE_PILL.dir/pxtapp/core---stm32bluepill/control.cpp.o
                0x000000000800a558                control::dmesg(pxt::BoxedString*)
 .text._ZN7control8dmesgPtrEPN3pxt11BoxedStringEPv
                0x000000000800a564       0x10 CMakeFiles/STM32_BLUE_PILL.dir/pxtapp/core---stm32bluepill/control.cpp.o
                0x000000000800a564                control::dmesgPtr(pxt::BoxedString*, void*)
 .text._ZN4pinsL7initI2CEv.part.0
                0x000000000800a574       0x40 CMakeFiles/STM32_BLUE_PILL.dir/pxtapp/core---stm32bluepill/i2c.cpp.o
 .text._ZN4pins13i2cReadBufferEiib
                0x000000000800a5b4       0x4c CMakeFiles/STM32_BLUE_PILL.dir/pxtapp/core---stm32bluepill/i2c.cpp.o
                0x000000000800a5b4                pins::i2cReadBuffer(int, int, bool)
 .text._ZN4pins14i2cWriteBufferEiPN3pxt11BoxedBufferEb
                0x000000000800a600       0x34 CMakeFiles/STM32_BLUE_PILL.dir/pxtapp/core---stm32bluepill/i2c.cpp.o
                0x000000000800a600                pins::i2cWriteBuffer(int, pxt::BoxedBuffer*, bool)
 .text._ZN5codal3Pin15setServoPulseUsEm
                0x000000000800a634        0x8 CMakeFiles/STM32_BLUE_PILL.dir/pxtapp/core---stm32bluepill/pins.cpp.o
                0x000000000800a634                codal::Pin::setServoPulseUs(unsigned long)
 .text._ZN5codal3Pin17setAnalogPeriodUsEm
                0x000000000800a63c        0x8 CMakeFiles/STM32_BLUE_PILL.dir/pxtapp/core---stm32bluepill/pins.cpp.o
                0x000000000800a63c                codal::Pin::setAnalogPeriodUs(unsigned long)
 .text._ZN5codal3Pin8drainPinEv
                0x000000000800a644        0x8 CMakeFiles/STM32_BLUE_PILL.dir/pxtapp/core---stm32bluepill/pins.cpp.o
                0x000000000800a644                codal::Pin::drainPin()
 .text._ZN3pxt6getPinEi
                0x000000000800a64c       0xa8 CMakeFiles/STM32_BLUE_PILL.dir/pxtapp/core---stm32bluepill/pins.cpp.o
                0x000000000800a64c                pxt::getPin(int)
 .text._ZN3pxt9getPinCfgEi
                0x000000000800a6f4       0x14 CMakeFiles/STM32_BLUE_PILL.dir/pxtapp/core---stm32bluepill/pins.cpp.o
                0x000000000800a6f4                pxt::getPinCfg(int)
 .text._ZN3pxt9lookupPinEi
                0x000000000800a708       0x10 CMakeFiles/STM32_BLUE_PILL.dir/pxtapp/core---stm32bluepill/pins.cpp.o
                0x000000000800a708                pxt::lookupPin(int)
 .text._ZN4pins12createBufferEi
                0x000000000800a718        0x8 CMakeFiles/STM32_BLUE_PILL.dir/pxtapp/core---stm32bluepill/pins.cpp.o
                0x000000000800a718                pins::createBuffer(int)
 .text._ZN4pins13pulseDurationEv
                0x000000000800a720        0xc CMakeFiles/STM32_BLUE_PILL.dir/pxtapp/core---stm32bluepill/pins.cpp.o
                0x000000000800a720                pins::pulseDuration()
 .text._ZN18AnalogInPinMethods10analogReadEPN5codal16STM32BluePillPinE
                0x000000000800a72c        0x8 CMakeFiles/STM32_BLUE_PILL.dir/pxtapp/core---stm32bluepill/pinsAnalog.cpp.o
                0x000000000800a72c                AnalogInPinMethods::analogRead(codal::STM32BluePillPin*)
 .text._ZN19AnalogOutPinMethods11analogWriteEPN5codal16STM32BluePillPinEi
                0x000000000800a734        0x8 CMakeFiles/STM32_BLUE_PILL.dir/pxtapp/core---stm32bluepill/pinsAnalog.cpp.o
                0x000000000800a734                AnalogOutPinMethods::analogWrite(codal::STM32BluePillPin*, int)
 .text._ZN22DigitalInOutPinMethods11digitalReadEPN5codal16STM32BluePillPinE
                0x000000000800a73c       0x10 CMakeFiles/STM32_BLUE_PILL.dir/pxtapp/core---stm32bluepill/pinsDigital.cpp.o
                0x000000000800a73c                DigitalInOutPinMethods::digitalRead(codal::STM32BluePillPin*)
 .text._ZN22DigitalInOutPinMethods12digitalWriteEPN5codal16STM32BluePillPinEb
                0x000000000800a74c        0x8 CMakeFiles/STM32_BLUE_PILL.dir/pxtapp/core---stm32bluepill/pinsDigital.cpp.o
                0x000000000800a74c                DigitalInOutPinMethods::digitalWrite(codal::STM32BluePillPin*, bool)
 .text._ZN22DigitalInOutPinMethods8onPulsedEPN5codal16STM32BluePillPinE10PulseValuePN3pxt12TValueStructE
                0x000000000800a754       0x20 CMakeFiles/STM32_BLUE_PILL.dir/pxtapp/core---stm32bluepill/pinsDigital.cpp.o
                0x000000000800a754                DigitalInOutPinMethods::onPulsed(codal::STM32BluePillPin*, PulseValue, pxt::TValueStruct*)
 .text._ZN22DigitalInOutPinMethods7onEventEPN5codal16STM32BluePillPinE8PinEventPN3pxt12TValueStructE
                0x000000000800a774       0x38 CMakeFiles/STM32_BLUE_PILL.dir/pxtapp/core---stm32bluepill/pinsDigital.cpp.o
                0x000000000800a774                DigitalInOutPinMethods::onEvent(codal::STM32BluePillPin*, PinEvent, pxt::TValueStruct*)
 .text._ZN22DigitalInOutPinMethods7pulseInEPN5codal16STM32BluePillPinE10PulseValuei
                0x000000000800a7ac       0x80 CMakeFiles/STM32_BLUE_PILL.dir/pxtapp/core---stm32bluepill/pinsDigital.cpp.o
                0x000000000800a7ac                DigitalInOutPinMethods::pulseIn(codal::STM32BluePillPin*, PulseValue, int)
 .text._ZN22DigitalInOutPinMethods7setPullEPN5codal16STM32BluePillPinE11PinPullMode
                0x000000000800a82c       0x18 CMakeFiles/STM32_BLUE_PILL.dir/pxtapp/core---stm32bluepill/pinsDigital.cpp.o
                0x000000000800a82c                DigitalInOutPinMethods::setPull(codal::STM32BluePillPin*, PinPullMode)
 .text._ZN17PwmOnlyPinMethods15analogSetPeriodEPN5codal16STM32BluePillPinEi
                0x000000000800a844        0x4 CMakeFiles/STM32_BLUE_PILL.dir/pxtapp/core---stm32bluepill/pinsPWM.cpp.o
                0x000000000800a844                PwmOnlyPinMethods::analogSetPeriod(codal::STM32BluePillPin*, int)
 .text._ZN17PwmOnlyPinMethods10servoWriteEPN5codal16STM32BluePillPinEi
                0x000000000800a848       0x14 CMakeFiles/STM32_BLUE_PILL.dir/pxtapp/core---stm32bluepill/pinsPWM.cpp.o
                0x000000000800a848                PwmOnlyPinMethods::servoWrite(codal::STM32BluePillPin*, int)
 .text._ZN17PwmOnlyPinMethods13servoSetPulseEPN5codal16STM32BluePillPinEi
                0x000000000800a85c        0x4 CMakeFiles/STM32_BLUE_PILL.dir/pxtapp/core---stm32bluepill/pinsPWM.cpp.o
                0x000000000800a85c                PwmOnlyPinMethods::servoSetPulse(codal::STM32BluePillPin*, int)
 .text._ZN3pxt13platform_initEv
                0x000000000800a860       0x18 CMakeFiles/STM32_BLUE_PILL.dir/pxtapp/core---stm32bluepill/platform.cpp.o
                0x000000000800a860                pxt::platform_init()
 .text._Z14cpu_clock_initv
                0x000000000800a878       0x1c CMakeFiles/STM32_BLUE_PILL.dir/pxtapp/core---stm32bluepill/platform.cpp.o
                0x000000000800a878                cpu_clock_init()
 .text._ZN4pinsL7initSPIEv.part.0
                0x000000000800a894       0x54 CMakeFiles/STM32_BLUE_PILL.dir/pxtapp/core---stm32bluepill/spi.cpp.o
 .text._ZN4pins8spiWriteEi
                0x000000000800a8e8       0x28 CMakeFiles/STM32_BLUE_PILL.dir/pxtapp/core---stm32bluepill/spi.cpp.o
                0x000000000800a8e8                pins::spiWrite(int)
 .text._ZN4pins11spiTransferEPN3pxt11BoxedBufferES2_
                0x000000000800a910       0x40 CMakeFiles/STM32_BLUE_PILL.dir/pxtapp/core---stm32bluepill/spi.cpp.o
                0x000000000800a910                pins::spiTransfer(pxt::BoxedBuffer*, pxt::BoxedBuffer*)
 .text._ZN4pins12spiFrequencyEi
                0x000000000800a950       0x28 CMakeFiles/STM32_BLUE_PILL.dir/pxtapp/core---stm32bluepill/spi.cpp.o
                0x000000000800a950                pins::spiFrequency(int)
 .text._ZN4pins7spiModeEi
                0x000000000800a978       0x2c CMakeFiles/STM32_BLUE_PILL.dir/pxtapp/core---stm32bluepill/spi.cpp.o
                0x000000000800a978                pins::spiMode(int)
 .text._ZN3pxt8usb_initEv
                0x000000000800a9a4        0x4 CMakeFiles/STM32_BLUE_PILL.dir/pxtapp/core---stm32bluepill/usb.cpp.o
                0x000000000800a9a4                pxt::usb_init()
 .text._ZN3pxt10sendSerialEPKci
                0x000000000800a9a8       0x10 CMakeFiles/STM32_BLUE_PILL.dir/pxtapp/core---stm32bluepill/usb.cpp.o
                0x000000000800a9a8                pxt::sendSerial(char const*, int)
 .text._ZN3pxt9dumpDmesgEv
                0x000000000800a9b8       0x3c CMakeFiles/STM32_BLUE_PILL.dir/pxtapp/core---stm32bluepill/usb.cpp.o
                0x000000000800a9b8                pxt::dumpDmesg()
 .text._ZN3pxt4incrEPNS_12TValueStructE
                0x000000000800a9f4        0x4 CMakeFiles/STM32_BLUE_PILL.dir/pxtapp/pointers.cpp.o
                0x000000000800a9f4                pxt::incr(pxt::TValueStruct*)
 .text._ZN3pxt4decrEPNS_12TValueStructE
                0x000000000800a9f8        0x4 CMakeFiles/STM32_BLUE_PILL.dir/pxtapp/pointers.cpp.o
                0x000000000800a9f8                pxt::decr(pxt::TValueStruct*)
 .text._ZN3pxt12ptrOfLiteralEi
                0x000000000800a9fc       0x10 CMakeFiles/STM32_BLUE_PILL.dir/pxtapp/pointers.cpp.o
                0x000000000800a9fc                pxt::ptrOfLiteral(int)
 .text._ZN3pxt16startPerfCounterENS_12PerfCountersE
                0x000000000800aa0c        0x4 CMakeFiles/STM32_BLUE_PILL.dir/pxtapp/pointers.cpp.o
                0x000000000800aa0c                pxt::startPerfCounter(pxt::PerfCounters)
 .text._ZN3pxt15stopPerfCounterENS_12PerfCountersE
                0x000000000800aa10        0x4 CMakeFiles/STM32_BLUE_PILL.dir/pxtapp/pointers.cpp.o
                0x000000000800aa10                pxt::stopPerfCounter(pxt::PerfCounters)
 .text._ZN3pxt16dumpPerfCountersEv
                0x000000000800aa14        0x4 CMakeFiles/STM32_BLUE_PILL.dir/pxtapp/pointers.cpp.o
                0x000000000800aa14                pxt::dumpPerfCounters()
 .text._ZN5codal14string_reverseEPc
                0x000000000800aa18       0x2c libcodal-core.a(CodalCompat.cpp.o)
                0x000000000800aa18                codal::string_reverse(char*)
 .text._ZN5codal4itoaEiPc
                0x000000000800aa44       0x64 libcodal-core.a(CodalCompat.cpp.o)
                0x000000000800aa44                codal::itoa(int, char*)
 .text._ZN5codal14CodalComponent16periodicCallbackEv
                0x000000000800aaa8        0x4 libcodal-core.a(CodalComponent.cpp.o)
                0x000000000800aaa8                codal::CodalComponent::periodicCallback()
 .text._ZN5codal14CodalComponent12idleCallbackEv
                0x000000000800aaac        0x4 libcodal-core.a(CodalComponent.cpp.o)
                0x000000000800aaac                codal::CodalComponent::idleCallback()
 .text._ZN5codal10EventModel3addEPNS_8ListenerE
                0x000000000800aab0        0x8 libcodal-core.a(CodalComponent.cpp.o)
                0x000000000800aab0                codal::EventModel::add(codal::Listener*)
 .text._Z18component_callbackN5codal5EventE
                0x000000000800aab8       0x78 libcodal-core.a(CodalComponent.cpp.o)
                0x000000000800aab8                component_callback(codal::Event)
 .text._ZN5codal14CodalComponent12addComponentEv
                0x000000000800ab30       0xdc libcodal-core.a(CodalComponent.cpp.o)
                0x000000000800ab30                codal::CodalComponent::addComponent()
 .text._ZN5codal14CodalComponent15removeComponentEv
                0x000000000800ac0c       0x28 libcodal-core.a(CodalComponent.cpp.o)
                0x000000000800ac0c                codal::CodalComponent::removeComponent()
 .text._ZN5codal11CodalDevice10getVersionEv
                0x000000000800ac34        0x8 libcodal-core.a(CodalDevice.cpp.o)
                0x000000000800ac34                codal::CodalDevice::getVersion()
 .text._ZN5codal11CodalDevice5sleepEm
                0x000000000800ac3c        0x8 libcodal-core.a(CodalDevice.cpp.o)
                0x000000000800ac3c                codal::CodalDevice::sleep(unsigned long)
 .text._ZN5codal11CodalDevice10seedRandomEm
                0x000000000800ac44        0x8 libcodal-core.a(CodalDevice.cpp.o)
                0x000000000800ac44                codal::CodalDevice::seedRandom(unsigned long)
 .text._ZN5codal11CodalDevice5panicEi
                0x000000000800ac4c        0x8 libcodal-core.a(CodalDevice.cpp.o)
                0x000000000800ac4c                codal::CodalDevice::panic(int)
 .text._ZN5codal11CodalDevice15getSerialNumberEv
                0x000000000800ac54        0x4 libcodal-core.a(CodalDevice.cpp.o)
                0x000000000800ac54                codal::CodalDevice::getSerialNumber()
 .text._ZN5codal11CodalDevice4waitEm
                0x000000000800ac58        0x8 libcodal-core.a(CodalDevice.cpp.o)
                0x000000000800ac58                codal::CodalDevice::wait(unsigned long)
 .text._ZN5codal11CodalDevice5resetEv
                0x000000000800ac60        0x4 libcodal-core.a(CodalDevice.cpp.o)
                0x000000000800ac60                codal::CodalDevice::reset()
 .text._ZL9logwritenPKci
                0x000000000800ac64       0x80 libcodal-core.a(CodalDmesg.cpp.o)
 .text._ZL11logwritenummbb
                0x000000000800ace4       0x7c libcodal-core.a(CodalDmesg.cpp.o)
 .text.codal_vdmesg
                0x000000000800ad60       0xdc libcodal-core.a(CodalDmesg.cpp.o)
                0x000000000800ad60                codal_vdmesg
 .text.codal_dmesg
                0x000000000800ae3c       0x20 libcodal-core.a(CodalDmesg.cpp.o)
                0x000000000800ae3c                codal_dmesg
 .text._ZN5codal10EventModel6removeEPNS_8ListenerE
                0x000000000800ae5c        0x8 libcodal-core.a(CodalFiber.cpp.o)
                0x000000000800ae5c                codal::EventModel::remove(codal::Listener*)
 .text._ZL15get_fibers_fromPPPN5codal5FiberEPiS1_
                0x000000000800ae64       0x34 libcodal-core.a(CodalFiber.cpp.o)
 .text._ZN5codal13dequeue_fiberEPNS_5FiberE.part.0
                0x000000000800ae98       0x30 libcodal-core.a(CodalFiber.cpp.o)
 .text._ZN5codal11list_fibersEPPNS_5FiberE
                0x000000000800aec8       0x5c libcodal-core.a(CodalFiber.cpp.o)
                0x000000000800aec8                codal::list_fibers(codal::Fiber**)
 .text._ZN5codal11queue_fiberEPNS_5FiberEPS1_
                0x000000000800af24       0x38 libcodal-core.a(CodalFiber.cpp.o)
                0x000000000800af24                codal::queue_fiber(codal::Fiber*, codal::Fiber**)
 .text._ZN5codal14scheduler_tickENS_5EventE
                0x000000000800af5c       0x40 libcodal-core.a(CodalFiber.cpp.o)
                0x000000000800af5c                codal::scheduler_tick(codal::Event)
 .text._ZN5codal15scheduler_eventENS_5EventE
                0x000000000800af9c       0xe8 libcodal-core.a(CodalFiber.cpp.o)
                0x000000000800af9c                codal::scheduler_event(codal::Event)
 .text._Z15getFiberContextv
                0x000000000800b084       0x54 libcodal-core.a(CodalFiber.cpp.o)
                0x000000000800b084                getFiberContext()
 .text._ZL10handle_fobv
                0x000000000800b0d8       0x34 libcodal-core.a(CodalFiber.cpp.o)
 .text._ZN5codal14scheduler_initERNS_10EventModelE
                0x000000000800b10c      0x140 libcodal-core.a(CodalFiber.cpp.o)
                0x000000000800b10c                codal::scheduler_init(codal::EventModel&)
 .text._ZN5codal23fiber_scheduler_runningEv
                0x000000000800b24c       0x10 libcodal-core.a(CodalFiber.cpp.o)
                0x000000000800b24c                codal::fiber_scheduler_running()
 .text._ZN5codal19fiber_wake_on_eventEtt
                0x000000000800b25c       0x98 libcodal-core.a(CodalFiber.cpp.o)
                0x000000000800b25c                codal::fiber_wake_on_event(unsigned short, unsigned short)
 .text._Z14__create_fibermmmi
                0x000000000800b2f4       0x68 libcodal-core.a(CodalFiber.cpp.o)
                0x000000000800b2f4                __create_fiber(unsigned long, unsigned long, unsigned long, int)
 .text._ZN5codal12create_fiberEPFvvES1_
                0x000000000800b35c       0x1c libcodal-core.a(CodalFiber.cpp.o)
                0x000000000800b35c                codal::create_fiber(void (*)(), void (*)())
 .text._ZN5codal12create_fiberEPFvPvES0_S2_
                0x000000000800b378       0x24 libcodal-core.a(CodalFiber.cpp.o)
                0x000000000800b378                codal::create_fiber(void (*)(void*), void*, void (*)(void*))
 .text._ZN5codal24scheduler_runqueue_emptyEv
                0x000000000800b39c       0x10 libcodal-core.a(CodalFiber.cpp.o)
                0x000000000800b39c                codal::scheduler_runqueue_empty()
 .text._ZN5codal4idleEv
                0x000000000800b3ac       0x48 libcodal-core.a(CodalFiber.cpp.o)
                0x000000000800b3ac                codal::idle()
 .text._ZN5codal8scheduleEv.part.3
                0x000000000800b3f4      0x188 libcodal-core.a(CodalFiber.cpp.o)
 .text._ZN5codal8scheduleEv
                0x000000000800b57c       0x14 libcodal-core.a(CodalFiber.cpp.o)
                0x000000000800b57c                codal::schedule()
 .text._ZN5codal11fiber_sleepEm
                0x000000000800b590       0x4c libcodal-core.a(CodalFiber.cpp.o)
                0x000000000800b590                codal::fiber_sleep(unsigned long)
 .text._ZN5codal20fiber_wait_for_eventEtt
                0x000000000800b5dc       0x2c libcodal-core.a(CodalFiber.cpp.o)
                0x000000000800b5dc                codal::fiber_wait_for_event(unsigned short, unsigned short)
 .text._ZN5codal13release_fiberEv.part.4
                0x000000000800b608       0x7c libcodal-core.a(CodalFiber.cpp.o)
 .text._ZN5codal13release_fiberEv
                0x000000000800b684       0x14 libcodal-core.a(CodalFiber.cpp.o)
                0x000000000800b684                codal::release_fiber()
 .text._ZN5codal16launch_new_fiberEPFvvES1_
                0x000000000800b698       0x20 libcodal-core.a(CodalFiber.cpp.o)
                0x000000000800b698                codal::launch_new_fiber(void (*)(), void (*)())
 .text._ZN5codal13release_fiberEPv
                0x000000000800b6b8       0x14 libcodal-core.a(CodalFiber.cpp.o)
                0x000000000800b6b8                codal::release_fiber(void*)
 .text._ZN5codal6invokeEPFvPvES0_
                0x000000000800b6cc       0xa0 libcodal-core.a(CodalFiber.cpp.o)
                0x000000000800b6cc                codal::invoke(void (*)(void*), void*)
 .text._ZN5codal22launch_new_fiber_paramEPFvPvES2_S0_
                0x000000000800b76c       0x28 libcodal-core.a(CodalFiber.cpp.o)
                0x000000000800b76c                codal::launch_new_fiber_param(void (*)(void*), void (*)(void*), void*)
 .text._ZN5codal9idle_taskEv
                0x000000000800b794       0x18 libcodal-core.a(CodalFiber.cpp.o)
                0x000000000800b794                codal::idle_task()
 .text._Z18device_create_heapmm
                0x000000000800b7ac       0x3c libcodal-core.a(CodalHeapAllocator.cpp.o)
                0x000000000800b7ac                device_create_heap(unsigned long, unsigned long)
 .text._Z16device_heap_sizeh
                0x000000000800b7e8       0x24 libcodal-core.a(CodalHeapAllocator.cpp.o)
                0x000000000800b7e8                device_heap_size(unsigned char)
 .text._Z16device_malloc_injR14HeapDefinition
                0x000000000800b80c       0x90 libcodal-core.a(CodalHeapAllocator.cpp.o)
                0x000000000800b80c                device_malloc_in(unsigned int, HeapDefinition&)
 .text.device_malloc
                0x000000000800b89c       0x4c libcodal-core.a(CodalHeapAllocator.cpp.o)
                0x000000000800b89c                device_malloc
 .text.device_free
                0x000000000800b8e8       0x40 libcodal-core.a(CodalHeapAllocator.cpp.o)
                0x000000000800b8e8                device_free
 .text.calloc   0x000000000800b928       0x20 libcodal-core.a(CodalHeapAllocator.cpp.o)
                0x000000000800b928                calloc
 .text.device_realloc
                0x000000000800b948       0x30 libcodal-core.a(CodalHeapAllocator.cpp.o)
                0x000000000800b948                device_realloc
 .text._ZN5codal8ListenerC2EttPFvNS_5EventEEt
                0x000000000800b978       0x30 libcodal-core.a(CodalListener.cpp.o)
                0x000000000800b978                codal::Listener::Listener(unsigned short, unsigned short, void (*)(codal::Event), unsigned short)
                0x000000000800b978                codal::Listener::Listener(unsigned short, unsigned short, void (*)(codal::Event), unsigned short)
 .text._ZN5codal8ListenerD2Ev
                0x000000000800b9a8       0x14 libcodal-core.a(CodalListener.cpp.o)
                0x000000000800b9a8                codal::Listener::~Listener()
                0x000000000800b9a8                codal::Listener::~Listener()
 .text._ZN5codal8Listener5queueENS_5EventE
                0x000000000800b9bc       0x68 libcodal-core.a(CodalListener.cpp.o)
                0x000000000800b9bc                codal::Listener::queue(codal::Event)
 .text._ZN5codal5Timer17disableInterruptsEv
                0x000000000800ba24        0xc libcodal-core.a(Timer.cpp.o)
                0x000000000800ba24                codal::Timer::disableInterrupts()
 .text._ZN5codal5Timer16enableInterruptsEv
                0x000000000800ba30        0xc libcodal-core.a(Timer.cpp.o)
                0x000000000800ba30                codal::Timer::enableInterrupts()
 .text._ZN5codal5TimerC2Ev
                0x000000000800ba3c       0x30 libcodal-core.a(Timer.cpp.o)
                0x000000000800ba3c                codal::Timer::Timer()
                0x000000000800ba3c                codal::Timer::Timer()
 .text._ZN5codal5Timer8setEventEmttb
                0x000000000800ba6c       0xb8 libcodal-core.a(Timer.cpp.o)
                0x000000000800ba6c                codal::Timer::setEvent(unsigned long, unsigned short, unsigned short, bool)
 .text._ZN5codal5Timer4syncEm
                0x000000000800bb24       0x28 libcodal-core.a(Timer.cpp.o)
                0x000000000800bb24                codal::Timer::sync(unsigned long)
 .text._ZN5codal5Timer7triggerEv
                0x000000000800bb4c       0xc4 libcodal-core.a(Timer.cpp.o)
                0x000000000800bb4c                codal::Timer::trigger()
 .text._ZN5codal5TimerD2Ev
                0x000000000800bc10        0x4 libcodal-core.a(Timer.cpp.o)
                0x000000000800bc10                codal::Timer::~Timer()
                0x000000000800bc10                codal::Timer::~Timer()
 .text._ZN5codal25system_timer_current_timeEv
                0x000000000800bc14       0x1c libcodal-core.a(Timer.cpp.o)
                0x000000000800bc14                codal::system_timer_current_time()
 .text._ZN5codal28system_timer_current_time_usEv
                0x000000000800bc30       0x1c libcodal-core.a(Timer.cpp.o)
                0x000000000800bc30                codal::system_timer_current_time_us()
 .text._ZN5codal27system_timer_event_every_usEmtt
                0x000000000800bc4c       0x2c libcodal-core.a(Timer.cpp.o)
                0x000000000800bc4c                codal::system_timer_event_every_us(unsigned long, unsigned short, unsigned short)
 .text._ZN5codal10EventModel4sendENS_5EventE
                0x000000000800bc78       0x14 libcodal-core.a(MessageBus.cpp.o)
                0x000000000800bc78                codal::EventModel::send(codal::Event)
 .text._ZN5codal10MessageBus9elementAtEi
                0x000000000800bc8c       0x18 libcodal-core.a(MessageBus.cpp.o)
                0x000000000800bc8c                codal::MessageBus::elementAt(int)
 .text._ZN5codal14CodalComponentD2Ev
                0x000000000800bca4       0x18 libcodal-core.a(MessageBus.cpp.o)
                0x000000000800bca4                codal::CodalComponent::~CodalComponent()
                0x000000000800bca4                codal::CodalComponent::~CodalComponent()
 .text._ZN5codal14CodalComponentD0Ev
                0x000000000800bcbc       0x20 libcodal-core.a(MessageBus.cpp.o)
                0x000000000800bcbc                codal::CodalComponent::~CodalComponent()
 .text._ZN5codal22MemberFunctionCallback10methodCallINS_10MessageBusEEEvPvPmNS_5EventE
                0x000000000800bcdc       0x30 libcodal-core.a(MessageBus.cpp.o)
                0x000000000800bcdc                void codal::MemberFunctionCallback::methodCall<codal::MessageBus>(void*, unsigned long*, codal::Event)
 .text._ZN5codal10MessageBus6removeEPNS_8ListenerE
                0x000000000800bd0c       0x84 libcodal-core.a(MessageBus.cpp.o)
                0x000000000800bd0c                codal::MessageBus::remove(codal::Listener*)
 .text._ZN5codal10MessageBus3addEPNS_8ListenerE
                0x000000000800bd90       0xe8 libcodal-core.a(MessageBus.cpp.o)
                0x000000000800bd90                codal::MessageBus::add(codal::Listener*)
 .text._Z14async_callbackPv
                0x000000000800be78       0x7c libcodal-core.a(MessageBus.cpp.o)
                0x000000000800be78                async_callback(void*)
 .text._ZN5codal10MessageBusD2Ev
                0x000000000800bef4       0x84 libcodal-core.a(MessageBus.cpp.o)
                0x000000000800bef4                codal::MessageBus::~MessageBus()
                0x000000000800bef4                codal::MessageBus::~MessageBus()
 .text._ZThn8_N5codal10MessageBusD1Ev
                0x000000000800bf78        0x8 libcodal-core.a(MessageBus.cpp.o)
                0x000000000800bf78                non-virtual thunk to codal::MessageBus::~MessageBus()
 .text._ZN5codal10MessageBusD0Ev
                0x000000000800bf80       0x14 libcodal-core.a(MessageBus.cpp.o)
                0x000000000800bf80                codal::MessageBus::~MessageBus()
 .text._ZThn8_N5codal10MessageBusD0Ev
                0x000000000800bf94        0x8 libcodal-core.a(MessageBus.cpp.o)
                0x000000000800bf94                non-virtual thunk to codal::MessageBus::~MessageBus()
 .text._ZN5codal10MessageBusC2Ev
                0x000000000800bf9c       0xb0 libcodal-core.a(MessageBus.cpp.o)
                0x000000000800bf9c                codal::MessageBus::MessageBus()
                0x000000000800bf9c                codal::MessageBus::MessageBus()
 .text._ZN5codal10MessageBus12dequeueEventEv
                0x000000000800c04c       0x24 libcodal-core.a(MessageBus.cpp.o)
                0x000000000800c04c                codal::MessageBus::dequeueEvent()
 .text._ZN5codal10MessageBus21deleteMarkedListenersEv
                0x000000000800c070       0x54 libcodal-core.a(MessageBus.cpp.o)
                0x000000000800c070                codal::MessageBus::deleteMarkedListeners()
 .text._ZN5codal10MessageBus7processERNS_5EventEb
                0x000000000800c0c4       0x9c libcodal-core.a(MessageBus.cpp.o)
                0x000000000800c0c4                codal::MessageBus::process(codal::Event&, bool)
 .text._ZN5codal10MessageBus10queueEventERNS_5EventE
                0x000000000800c160       0x64 libcodal-core.a(MessageBus.cpp.o)
                0x000000000800c160                codal::MessageBus::queueEvent(codal::Event&)
 .text._ZN5codal10MessageBus4sendENS_5EventE
                0x000000000800c1c4       0x18 libcodal-core.a(MessageBus.cpp.o)
                0x000000000800c1c4                codal::MessageBus::send(codal::Event)
 .text._ZN5codal10MessageBus4idleENS_5EventE
                0x000000000800c1dc       0x44 libcodal-core.a(MessageBus.cpp.o)
                0x000000000800c1dc                codal::MessageBus::idle(codal::Event)
 .text._ZN5codal19allocateNotifyEventEv
                0x000000000800c220       0x10 libcodal-core.a(MessageBus.cpp.o)
                0x000000000800c220                codal::allocateNotifyEvent()
 .text._ZN5codal5EventC2EttNS_15EventLaunchModeE.part.0
                0x000000000800c230       0x2c libcodal-core.a(Event.cpp.o)
 .text._ZN5codal5EventC2EttNS_15EventLaunchModeE
                0x000000000800c25c       0x1c libcodal-core.a(Event.cpp.o)
                0x000000000800c25c                codal::Event::Event(unsigned short, unsigned short, codal::EventLaunchMode)
                0x000000000800c25c                codal::Event::Event(unsigned short, unsigned short, codal::EventLaunchMode)
 .text._ZN5codal5EventC2EttmNS_15EventLaunchModeE
                0x000000000800c278       0x18 libcodal-core.a(Event.cpp.o)
                0x000000000800c278                codal::Event::Event(unsigned short, unsigned short, unsigned long, codal::EventLaunchMode)
                0x000000000800c278                codal::Event::Event(unsigned short, unsigned short, unsigned long, codal::EventLaunchMode)
 .text._ZN5codal5EventC2Ev
                0x000000000800c290       0x14 libcodal-core.a(Event.cpp.o)
                0x000000000800c290                codal::Event::Event()
                0x000000000800c290                codal::Event::Event()
 .text._ZN5codal14EventQueueItemC2ENS_5EventE
                0x000000000800c2a4       0x24 libcodal-core.a(Event.cpp.o)
                0x000000000800c2a4                codal::EventQueueItem::EventQueueItem(codal::Event)
                0x000000000800c2a4                codal::EventQueueItem::EventQueueItem(codal::Event)
 .text._ZN5codal22MemberFunctionCallback4fireENS_5EventE
                0x000000000800c2c8       0x1c libcodal-core.a(MemberFunctionCallback.cpp.o)
                0x000000000800c2c8                codal::MemberFunctionCallback::fire(codal::Event)
 .text._ZN5codal22MemberFunctionCallbackeqERKS0_
                0x000000000800c2e4       0x20 libcodal-core.a(MemberFunctionCallback.cpp.o)
                0x000000000800c2e4                codal::MemberFunctionCallback::operator==(codal::MemberFunctionCallback const&)
 .text._ZN5codal3_cm3I2C12setFrequencyEm
                0x000000000800c304        0x4 libcm.a(CmI2C.cpp.o)
                0x000000000800c304                codal::_cm::I2C::setFrequency(unsigned long)
 .text._ZN5codal3_cm3I2C5writeEtPhib
                0x000000000800c308        0x4 libcm.a(CmI2C.cpp.o)
                0x000000000800c308                codal::_cm::I2C::read(unsigned short, unsigned char*, int, bool)
                0x000000000800c308                codal::_cm::I2C::write(unsigned short, unsigned char*, int, bool)
 .text._ZN5codal3_cm3I2C12readRegisterEthPhib
                0x000000000800c30c        0x4 libcm.a(CmI2C.cpp.o)
                0x000000000800c30c                codal::_cm::I2C::readRegister(unsigned short, unsigned char, unsigned char*, int, bool)
 .text._ZN5codal3_cm3I2CC2ERNS_3PinES3_
                0x000000000800c310       0x1c libcm.a(CmI2C.cpp.o)
                0x000000000800c310                codal::_cm::I2C::I2C(codal::Pin&, codal::Pin&)
                0x000000000800c310                codal::_cm::I2C::I2C(codal::Pin&, codal::Pin&)
 .text._ZN5codal3_cm3Pin15getDigitalValueEv
                0x000000000800c32c        0x4 libcm.a(CmPin.cpp.o)
                0x000000000800c32c                codal::_cm::Pin::getDigitalValue()
 .text._ZN5codal3_cm3Pin14setAnalogValueEi
                0x000000000800c330       0x1c libcm.a(CmPin.cpp.o)
                0x000000000800c330                codal::_cm::Pin::setAnalogValue(int)
 .text._ZN5codal3_cm3Pin13setServoValueEiii
                0x000000000800c34c       0x2c libcm.a(CmPin.cpp.o)
                0x000000000800c34c                codal::_cm::Pin::setServoValue(int, int, int)
 .text._ZN5codal3_cm3Pin14getAnalogValueEv
                0x000000000800c378        0x4 libcm.a(CmPin.cpp.o)
                0x000000000800c378                codal::_cm::Pin::getAnalogValue()
 .text._ZN5codal3_cm3Pin7isInputEv
                0x000000000800c37c       0x10 libcm.a(CmPin.cpp.o)
                0x000000000800c37c                codal::_cm::Pin::isInput()
 .text._ZN5codal3_cm3Pin8isOutputEv
                0x000000000800c38c       0x10 libcm.a(CmPin.cpp.o)
                0x000000000800c38c                codal::_cm::Pin::isOutput()
 .text._ZN5codal3_cm3Pin9isDigitalEv
                0x000000000800c39c        0xc libcm.a(CmPin.cpp.o)
                0x000000000800c39c                codal::_cm::Pin::isDigital()
 .text._ZN5codal3_cm3Pin8isAnalogEv
                0x000000000800c3a8       0x10 libcm.a(CmPin.cpp.o)
                0x000000000800c3a8                codal::_cm::Pin::isAnalog()
 .text._ZN5codal3_cm3Pin9isTouchedEv
                0x000000000800c3b8        0x8 libcm.a(CmPin.cpp.o)
                0x000000000800c3b8                codal::_cm::Pin::isTouched()
 .text._ZN5codal3_cm3Pin17getAnalogPeriodUsEv
                0x000000000800c3c0        0x8 libcm.a(CmPin.cpp.o)
                0x000000000800c3c0                codal::_cm::Pin::getAnalogPeriodUs()
 .text._ZN5codal3_cm3Pin7setPullENS_8PullModeE
                0x000000000800c3c8        0x8 libcm.a(CmPin.cpp.o)
                0x000000000800c3c8                codal::_cm::Pin::setPull(codal::PullMode)
 .text._ZN5codal3_cm3Pin15setDigitalValueEi
                0x000000000800c3d0       0x60 libcm.a(CmPin.cpp.o)
                0x000000000800c3d0                codal::_cm::Pin::setDigitalValue(int)
 .text._ZN5codal3_cm3Pin15getAnalogPeriodEv
                0x000000000800c430       0x28 libcm.a(CmPin.cpp.o)
                0x000000000800c430                codal::_cm::Pin::getAnalogPeriod()
 .text._ZN5codal3_cm3Pin15getDigitalValueENS_8PullModeE
                0x000000000800c458       0x38 libcm.a(CmPin.cpp.o)
                0x000000000800c458                codal::_cm::Pin::getDigitalValue(codal::PullMode)
 .text._ZN5codal3_cm3Pin7eventOnEi
                0x000000000800c490       0x40 libcm.a(CmPin.cpp.o)
                0x000000000800c490                codal::_cm::Pin::eventOn(int)
 .text._ZN5codal3_cm3Pin17setAnalogPeriodUsEi.part.1
                0x000000000800c4d0       0x24 libcm.a(CmPin.cpp.o)
 .text._ZN5codal3_cm3Pin15setAnalogPeriodEi
                0x000000000800c4f4       0x10 libcm.a(CmPin.cpp.o)
                0x000000000800c4f4                codal::_cm::Pin::setAnalogPeriod(int)
 .text._ZN5codal3_cm3PinC2Ei7PinNameNS_13PinCapabilityE
                0x000000000800c504       0x20 libcm.a(CmPin.cpp.o)
                0x000000000800c504                codal::_cm::Pin::Pin(int, PinName, codal::PinCapability)
                0x000000000800c504                codal::_cm::Pin::Pin(int, PinName, codal::PinCapability)
 .text._ZN5codal3_cm3Pin5setupEhh
                0x000000000800c524       0x20 libcm.a(CmPin.cpp.o)
                0x000000000800c524                codal::_cm::Pin::setup(unsigned char, unsigned char)
 .text._ZN5codal3_cm3Pin15setServoPulseUsEi
                0x000000000800c544        0x4 libcm.a(CmPin.cpp.o)
                0x000000000800c544                codal::_cm::Pin::setServoPulseUs(int)
 .text._ZN5codal3_cm3Pin17setAnalogPeriodUsEi
                0x000000000800c548       0x10 libcm.a(CmPin.cpp.o)
                0x000000000800c548                codal::_cm::Pin::setAnalogPeriodUs(int)
 .text._ZN5codal3_cm3SPI12setFrequencyEm
                0x000000000800c558        0xc libcm.a(CmSPI.cpp.o)
                0x000000000800c558                codal::_cm::SPI::setFrequency(unsigned long)
 .text._ZN5codal3_cm3SPI5writeEi
                0x000000000800c564       0x10 libcm.a(CmSPI.cpp.o)
                0x000000000800c564                codal::_cm::SPI::write(int)
 .text._ZN5codal3_cm3SPI8transferEPKhmPhm
                0x000000000800c574        0x4 libcm.a(CmSPI.cpp.o)
                0x000000000800c574                codal::_cm::SPI::transfer(unsigned char const*, unsigned long, unsigned char*, unsigned long)
 .text._ZN5codal3_cm3SPI7setModeEii
                0x000000000800c578       0x18 libcm.a(CmSPI.cpp.o)
                0x000000000800c578                codal::_cm::SPI::setMode(int, int)
 .text._ZN5codal3_cm16_codal_setup_pinEPNS0_3PinEmPK6PinMap.part.0
                0x000000000800c590       0x50 libcm.a(CmSPI.cpp.o)
 .text._ZN5codal3_cm3SPI4initEv.part.1
                0x000000000800c5e0       0x5c libcm.a(CmSPI.cpp.o)
 .text._ZN5codal3_cm3SPI13startTransferEPKhmPhmPFvPvES5_
                0x000000000800c63c       0x30 libcm.a(CmSPI.cpp.o)
                0x000000000800c63c                codal::_cm::SPI::startTransfer(unsigned char const*, unsigned long, unsigned char*, unsigned long, void (*)(void*), void*)
 .text._ZN5codal3_cm3SPIC2ERNS0_3PinES3_S3_
                0x000000000800c66c       0x60 libcm.a(CmSPI.cpp.o)
                0x000000000800c66c                codal::_cm::SPI::SPI(codal::_cm::Pin&, codal::_cm::Pin&, codal::_cm::Pin&)
                0x000000000800c66c                codal::_cm::SPI::SPI(codal::_cm::Pin&, codal::_cm::Pin&, codal::_cm::Pin&)
 .text._ZN5codal3_cm14alarm_callbackEv
                0x000000000800c6cc       0x10 libcm.a(CmTimer.cpp.o)
                0x000000000800c6cc                codal::_cm::alarm_callback()
 .text._ZN5codal3_cm5Timer9triggerInEm
                0x000000000800c6dc       0x20 libcm.a(CmTimer.cpp.o)
                0x000000000800c6dc                codal::_cm::Timer::triggerIn(unsigned long)
 .text._ZN5codal3_cm13tick_callbackEv
                0x000000000800c6fc       0x30 libcm.a(CmTimer.cpp.o)
                0x000000000800c6fc                codal::_cm::tick_callback()
 .text._ZN5codal3_cm5Timer11syncRequestEv
                0x000000000800c72c       0x48 libcm.a(CmTimer.cpp.o)
                0x000000000800c72c                codal::_cm::Timer::syncRequest()
 .text._ZN5codal3_cm5TimerC2Ev
                0x000000000800c774       0x34 libcm.a(CmTimer.cpp.o)
                0x000000000800c774                codal::_cm::Timer::Timer()
                0x000000000800c774                codal::_cm::Timer::Timer()
 .text._ZN5codal3_cm5Timer4initEv
                0x000000000800c7a8       0x5c libcm.a(CmTimer.cpp.o)
                0x000000000800c7a8                codal::_cm::Timer::init()
 .text._ZL10flush_taskv
                0x000000000800c804       0x18 libcm.a(tasks.cpp.o)
 .text._ZL15restart_handlerN5codal5EventE
                0x000000000800c81c       0x50 libcm.a(tasks.cpp.o)
 .text.restart_callback
                0x000000000800c86c       0x70 libcm.a(tasks.cpp.o)
                0x000000000800c86c                restart_callback
 .text.start_background_tasks
                0x000000000800c8dc       0xe0 libcm.a(tasks.cpp.o)
                0x000000000800c8dc                start_background_tasks
 .text.startup._GLOBAL__sub_I_restart_callback
                0x000000000800c9bc       0x14 libcm.a(tasks.cpp.o)
 .text.pinmap_peripheral
                0x000000000800c9d0       0x3c libcm.a(CmPinMap.cpp.o)
                0x000000000800c9d0                pinmap_peripheral
 .text.pinmap_mode
                0x000000000800ca0c       0x38 libcm.a(CmPinMap.cpp.o)
                0x000000000800ca0c                pinmap_mode
 .text.pinmap_cnf
                0x000000000800ca44       0x38 libcm.a(CmPinMap.cpp.o)
                0x000000000800ca44                pinmap_cnf
 .text._ZN5codal3I2C12setFrequencyEm
                0x000000000800ca7c        0x8 libcodal-core.a(I2C.cpp.o)
                0x000000000800ca7c                codal::I2C::setFrequency(unsigned long)
 .text._ZN5codal3I2C5startEv
                0x000000000800ca84        0x8 libcodal-core.a(I2C.cpp.o)
                0x000000000800ca84                codal::I2C::stop()
                0x000000000800ca84                codal::I2C::start()
 .text._ZN5codal3I2C5writeEh
                0x000000000800ca8c        0x8 libcodal-core.a(I2C.cpp.o)
                0x000000000800ca8c                codal::I2C::read(codal::AcknowledgeType)
                0x000000000800ca8c                codal::I2C::write(unsigned char)
 .text._ZN5codal3I2C13writeRegisterEthh
                0x000000000800ca94       0x20 libcodal-core.a(I2C.cpp.o)
                0x000000000800ca94                codal::I2C::writeRegister(unsigned short, unsigned char, unsigned char)
 .text._ZN5codal3I2C12readRegisterEthPhib
                0x000000000800cab4       0x50 libcodal-core.a(I2C.cpp.o)
                0x000000000800cab4                codal::I2C::readRegister(unsigned short, unsigned char, unsigned char*, int, bool)
 .text._ZN5codal3I2C5writeEtPhib
                0x000000000800cb04       0x94 libcodal-core.a(I2C.cpp.o)
                0x000000000800cb04                codal::I2C::write(unsigned short, unsigned char*, int, bool)
 .text._ZN5codal3I2C4readEtPhib
                0x000000000800cb98       0xd4 libcodal-core.a(I2C.cpp.o)
                0x000000000800cb98                codal::I2C::read(unsigned short, unsigned char*, int, bool)
 .text._ZN5codal3I2CC2ERNS_3PinES2_
                0x000000000800cc6c        0xc libcodal-core.a(I2C.cpp.o)
                0x000000000800cc6c                codal::I2C::I2C(codal::Pin&, codal::Pin&)
                0x000000000800cc6c                codal::I2C::I2C(codal::Pin&, codal::Pin&)
                0x000000000800cc78                . = ALIGN (0x4)
 *(SORT_BY_ALIGNMENT(.rodata*))
 *fill*         0x000000000800cc78        0x8 
 .rodata._ZN3pxt20functionsAndBytecodeE
                0x000000000800cc80      0x324 CMakeFiles/STM32_BLUE_PILL.dir/pxtapp/pointers.cpp.o
                0x000000000800cc80                pxt::functionsAndBytecode
 *fill*         0x000000000800cfa4        0xc 
 .rodata._ZN3pxt9buffer_vtE
                0x000000000800cfb0       0x24 CMakeFiles/STM32_BLUE_PILL.dir/pxtapp/base/core.cpp.o
                0x000000000800cfb0                pxt::buffer_vt
 *fill*         0x000000000800cfd4        0xc 
 .rodata._ZN3pxt9number_vtE
                0x000000000800cfe0       0x24 CMakeFiles/STM32_BLUE_PILL.dir/pxtapp/base/core.cpp.o
                0x000000000800cfe0                pxt::number_vt
 *fill*         0x000000000800d004        0xc 
 .rodata._ZN3pxt9string_vtE
                0x000000000800d010       0x24 CMakeFiles/STM32_BLUE_PILL.dir/pxtapp/base/core.cpp.o
                0x000000000800d010                pxt::string_vt
 *fill*         0x000000000800d034        0xc 
 .rodata._ZN3pxt16RefAction_vtableE
                0x000000000800d040       0x24 CMakeFiles/STM32_BLUE_PILL.dir/pxtapp/base/pxt.cpp.o
                0x000000000800d040                pxt::RefAction_vtable
 *fill*         0x000000000800d064        0xc 
 .rodata._ZN3pxtL13RefMap_vtableE
                0x000000000800d070       0x24 CMakeFiles/STM32_BLUE_PILL.dir/pxtapp/base/pxt.cpp.o
 *fill*         0x000000000800d094        0xc 
 .rodata._ZN3pxtL18RefRefLocal_vtableE
                0x000000000800d0a0       0x24 CMakeFiles/STM32_BLUE_PILL.dir/pxtapp/base/pxt.cpp.o
 *fill*         0x000000000800d0c4        0xc 
 .rodata._ZN3pxtL20RefCollection_vtableE
                0x000000000800d0d0       0x24 CMakeFiles/STM32_BLUE_PILL.dir/pxtapp/base/pxt.cpp.o
 .rodata._ZN13BufferMethods5toHexEPN3pxt11BoxedBufferE.str1.4
                0x000000000800d0f4       0x11 CMakeFiles/STM32_BLUE_PILL.dir/pxtapp/base/buffer.cpp.o
 *fill*         0x000000000800d105        0x3 
 .rodata._ZN3pxt10failedCastEPNS_12TValueStructE.str1.4
                0x000000000800d108       0x3a CMakeFiles/STM32_BLUE_PILL.dir/pxtapp/base/core.cpp.o
 *fill*         0x000000000800d142        0x2 
 .rodata._ZN3pxt15missingPropertyEPNS_12TValueStructE.str1.4
                0x000000000800d144       0x17 CMakeFiles/STM32_BLUE_PILL.dir/pxtapp/base/core.cpp.o
 *fill*         0x000000000800d15b        0x1 
 .rodata._ZN3pxt8anyPrintEPNS_12TValueStructE.str1.4
                0x000000000800d15c       0x41 CMakeFiles/STM32_BLUE_PILL.dir/pxtapp/base/core.cpp.o
 *fill*         0x000000000800d19d        0x3 
 .rodata._ZN3pxtL10sBooleanTpE
                0x000000000800d1a0        0xe CMakeFiles/STM32_BLUE_PILL.dir/pxtapp/base/core.cpp.o
 *fill*         0x000000000800d1ae        0x2 
 .rodata._ZN3pxtL10sUndefinedE
                0x000000000800d1b0       0x10 CMakeFiles/STM32_BLUE_PILL.dir/pxtapp/base/core.cpp.o
 .rodata._ZN3pxtL11emptyBufferE
                0x000000000800d1c0        0xa CMakeFiles/STM32_BLUE_PILL.dir/pxtapp/base/core.cpp.o
 *fill*         0x000000000800d1ca        0x2 
 .rodata._ZN3pxtL11emptyStringE
                0x000000000800d1cc        0x7 CMakeFiles/STM32_BLUE_PILL.dir/pxtapp/base/core.cpp.o
 *fill*         0x000000000800d1d3        0x1 
 .rodata._ZN3pxtL11sFunctionTpE
                0x000000000800d1d4        0xf CMakeFiles/STM32_BLUE_PILL.dir/pxtapp/base/core.cpp.o
 *fill*         0x000000000800d1e3        0x1 
 .rodata._ZN3pxtL12sUndefinedTpE
                0x000000000800d1e4       0x10 CMakeFiles/STM32_BLUE_PILL.dir/pxtapp/base/core.cpp.o
 .rodata._ZN3pxtL4sInfE
                0x000000000800d1f4        0xf CMakeFiles/STM32_BLUE_PILL.dir/pxtapp/base/core.cpp.o
 *fill*         0x000000000800d203        0x1 
 .rodata._ZN3pxtL4sNaNE
                0x000000000800d204        0xa CMakeFiles/STM32_BLUE_PILL.dir/pxtapp/base/core.cpp.o
 *fill*         0x000000000800d20e        0x2 
 .rodata._ZN3pxtL5sMInfE
                0x000000000800d210       0x10 CMakeFiles/STM32_BLUE_PILL.dir/pxtapp/base/core.cpp.o
 .rodata._ZN3pxtL5sNullE
                0x000000000800d220        0xb CMakeFiles/STM32_BLUE_PILL.dir/pxtapp/base/core.cpp.o
 *fill*         0x000000000800d22b        0x1 
 .rodata._ZN3pxtL5sTrueE
                0x000000000800d22c        0xb CMakeFiles/STM32_BLUE_PILL.dir/pxtapp/base/core.cpp.o
 *fill*         0x000000000800d237        0x1 
 .rodata._ZN3pxtL6sFalseE
                0x000000000800d238        0xc CMakeFiles/STM32_BLUE_PILL.dir/pxtapp/base/core.cpp.o
 .rodata._ZN3pxtL7sObjectE
                0x000000000800d244        0xf CMakeFiles/STM32_BLUE_PILL.dir/pxtapp/base/core.cpp.o
 *fill*         0x000000000800d253        0x1 
 .rodata._ZN3pxtL9sFunctionE
                0x000000000800d254       0x11 CMakeFiles/STM32_BLUE_PILL.dir/pxtapp/base/core.cpp.o
 *fill*         0x000000000800d265        0x3 
 .rodata._ZN3pxtL9sNumberTpE
                0x000000000800d268        0xd CMakeFiles/STM32_BLUE_PILL.dir/pxtapp/base/core.cpp.o
 *fill*         0x000000000800d275        0x3 
 .rodata._ZN3pxtL9sObjectTpE
                0x000000000800d278        0xd CMakeFiles/STM32_BLUE_PILL.dir/pxtapp/base/core.cpp.o
 *fill*         0x000000000800d285        0x3 
 .rodata._ZN3pxtL9sStringTpE
                0x000000000800d288        0xd CMakeFiles/STM32_BLUE_PILL.dir/pxtapp/base/core.cpp.o
 .rodata._ZN7String_7mkEmptyEv.str1.4
                0x000000000800d295       0x41 CMakeFiles/STM32_BLUE_PILL.dir/pxtapp/base/core.cpp.o
                                          0x1 (size before relaxing)
 *fill*         0x000000000800d295        0x3 
 .rodata._ZN3pxt2gcEi.str1.4
                0x000000000800d298       0x2e CMakeFiles/STM32_BLUE_PILL.dir/pxtapp/base/gc.cpp.o
 *fill*         0x000000000800d2c6        0x2 
 .rodata._ZN3pxt11RefRefLocal5printEPS0_.str1.4
                0x000000000800d2c8       0x19 CMakeFiles/STM32_BLUE_PILL.dir/pxtapp/base/pxt.cpp.o
 *fill*         0x000000000800d2e1        0x3 
 .rodata._ZN3pxt11exec_binaryEPj.str1.4
                0x000000000800d2e4       0xf4 CMakeFiles/STM32_BLUE_PILL.dir/pxtapp/base/pxt.cpp.o
                                         0xf8 (size before relaxing)
 .rodata._ZN3pxt13RefCollection5printEPS0_.str1.4
                0x000000000800d3d8       0x1e CMakeFiles/STM32_BLUE_PILL.dir/pxtapp/base/pxt.cpp.o
 *fill*         0x000000000800d3f6        0x2 
 .rodata._ZN3pxt15RefRecord_printEPNS_9RefRecordE.str1.4
                0x000000000800d3f8       0x20 CMakeFiles/STM32_BLUE_PILL.dir/pxtapp/base/pxt.cpp.o
 .rodata._ZN3pxt6RefMap5printEPS0_.str1.4
                0x000000000800d418       0x17 CMakeFiles/STM32_BLUE_PILL.dir/pxtapp/base/pxt.cpp.o
 *fill*         0x000000000800d42f        0x1 
 .rodata._ZN3pxt7Segment5printEv.str1.4
                0x000000000800d430       0x2a CMakeFiles/STM32_BLUE_PILL.dir/pxtapp/base/pxt.cpp.o
 *fill*         0x000000000800d45a        0x2 
 .rodata._ZN3pxt8checkStrEbPKc.part.6.str1.4
                0x000000000800d45c       0x15 CMakeFiles/STM32_BLUE_PILL.dir/pxtapp/base/pxt.cpp.o
 *fill*         0x000000000800d471        0x3 
 .rodata._ZN3pxt8mkActionEiPNS_9RefActionE.str1.4
                0x000000000800d474        0xf CMakeFiles/STM32_BLUE_PILL.dir/pxtapp/base/pxt.cpp.o
 *fill*         0x000000000800d483        0x1 
 .rodata._ZN3pxt9RefAction5printEPS0_.str1.4
                0x000000000800d484       0x20 CMakeFiles/STM32_BLUE_PILL.dir/pxtapp/base/pxt.cpp.o
 .rodata._ZN3pxt11initRuntimeEv.str1.4
                0x000000000800d4a4       0x9a CMakeFiles/STM32_BLUE_PILL.dir/pxtapp/core---stm32bluepill/codal.cpp.o
 *fill*         0x000000000800d53e        0x2 
 .rodata._ZN3pxt15gcProcessStacksEi.str1.4
                0x000000000800d540        0xb CMakeFiles/STM32_BLUE_PILL.dir/pxtapp/core---stm32bluepill/codal.cpp.o
 *fill*         0x000000000800d54b        0x1 
 .rodata._ZN7control16deviceDalVersionEv.str1.4
                0x000000000800d54c        0x8 CMakeFiles/STM32_BLUE_PILL.dir/pxtapp/core---stm32bluepill/control.cpp.o
 .rodata._ZN7control5dmesgEPN3pxt11BoxedStringE.str1.4
                0x000000000800d554        0x5 CMakeFiles/STM32_BLUE_PILL.dir/pxtapp/core---stm32bluepill/control.cpp.o
 *fill*         0x000000000800d559        0x3 
 .rodata._ZN7control8dmesgPtrEPN3pxt11BoxedStringEPv.str1.4
                0x000000000800d55c        0x9 CMakeFiles/STM32_BLUE_PILL.dir/pxtapp/core---stm32bluepill/control.cpp.o
 *fill*         0x000000000800d565        0x3 
 .rodata._ZTVN5codal16STM32BluePillPinE
                0x000000000800d568       0x54 CMakeFiles/STM32_BLUE_PILL.dir/pxtapp/core---stm32bluepill/pins.cpp.o
                0x000000000800d568                vtable for codal::STM32BluePillPin
 .rodata._Z14cpu_clock_initv.str1.4
                0x000000000800d5bc       0x17 CMakeFiles/STM32_BLUE_PILL.dir/pxtapp/core---stm32bluepill/platform.cpp.o
 *fill*         0x000000000800d5d3        0x1 
 .rodata._ZN3pxt13platform_initEv.str1.4
                0x000000000800d5d4       0x16 CMakeFiles/STM32_BLUE_PILL.dir/pxtapp/core---stm32bluepill/platform.cpp.o
 *fill*         0x000000000800d5ea        0x2 
 .rodata._ZN3pxt9dumpDmesgEv.str1.4
                0x000000000800d5ec        0xf CMakeFiles/STM32_BLUE_PILL.dir/pxtapp/core---stm32bluepill/usb.cpp.o
 .rodata._ZN5codal11CodalDevice10getVersionEv.str1.4
                0x000000000800d5fb        0x8 libcodal-core.a(CodalDevice.cpp.o)
 *fill*         0x000000000800d5fb        0x1 
 .rodata._ZTVN5codal11CodalDeviceE
                0x000000000800d5fc       0x24 libcodal-core.a(CodalDevice.cpp.o)
                0x000000000800d5fc                vtable for codal::CodalDevice
 .rodata._ZL11logwritenummbb.str1.4
                0x000000000800d620        0x3 libcodal-core.a(CodalDmesg.cpp.o)
 *fill*         0x000000000800d623        0x1 
 .rodata._ZL9logwritenPKci.str1.4
                0x000000000800d624       0x16 libcodal-core.a(CodalDmesg.cpp.o)
 *fill*         0x000000000800d63a        0x2 
 .rodata.codal_vdmesg.str1.4
                0x000000000800d63c        0xb libcodal-core.a(CodalDmesg.cpp.o)
 *fill*         0x000000000800d647        0x1 
 .rodata._ZTVN5codal5TimerE
                0x000000000800d648       0x18 libcodal-core.a(Timer.cpp.o)
                0x000000000800d648                vtable for codal::Timer
 .rodata._ZTVN5codal14CodalComponentE
                0x000000000800d660       0x1c libcodal-core.a(MessageBus.cpp.o)
                0x000000000800d660                vtable for codal::CodalComponent
 .rodata._ZTVN5codal10EventModelE
                0x000000000800d67c       0x14 libcodal-core.a(MessageBus.cpp.o)
                0x000000000800d67c                vtable for codal::EventModel
 .rodata._ZTVN5codal10MessageBusE
                0x000000000800d690       0x3c libcodal-core.a(MessageBus.cpp.o)
                0x000000000800d690                vtable for codal::MessageBus
 .rodata._ZTVN5codal3_cm3I2CE
                0x000000000800d6cc       0x2c libcm.a(CmI2C.cpp.o)
                0x000000000800d6cc                vtable for codal::_cm::I2C
 .rodata._ZN5codal3_cm3Pin15setDigitalValueEi.str1.4
                0x000000000800d6f8        0x5 libcm.a(CmPin.cpp.o)
 *fill*         0x000000000800d6fd        0x3 
 .rodata._ZTVN5codal3_cm3PinE
                0x000000000800d700       0x54 libcm.a(CmPin.cpp.o)
                0x000000000800d700                vtable for codal::_cm::Pin
 .rodata._ZN5codal3_cm3SPI4initEv.part.1.str1.4
                0x000000000800d754       0x10 libcm.a(CmSPI.cpp.o)
 .rodata._ZN5codal3_cm3SPIC2ERNS0_3PinES3_S3_.str1.4
                0x000000000800d764       0x23 libcm.a(CmSPI.cpp.o)
                                         0x25 (size before relaxing)
 *fill*         0x000000000800d787        0x1 
 .rodata._ZTVN5codal3_cm3SPIE
                0x000000000800d788       0x1c libcm.a(CmSPI.cpp.o)
                0x000000000800d788                vtable for codal::_cm::SPI
 .rodata._ZN5codal3_cm5Timer11syncRequestEv.str1.4
                0x000000000800d7a4        0x7 libcm.a(CmTimer.cpp.o)
 *fill*         0x000000000800d7ab        0x1 
 .rodata._ZN5codal3_cm5Timer4initEv.str1.4
                0x000000000800d7ac        0xb libcm.a(CmTimer.cpp.o)
 *fill*         0x000000000800d7b7        0x1 
 .rodata._ZN5codal3_cm5Timer9triggerInEm.str1.4
                0x000000000800d7b8       0x13 libcm.a(CmTimer.cpp.o)
 *fill*         0x000000000800d7cb        0x1 
 .rodata._ZTVN5codal3_cm5TimerE
                0x000000000800d7cc       0x18 libcm.a(CmTimer.cpp.o)
                0x000000000800d7cc                vtable for codal::_cm::Timer
 .rodata.application_start.str1.4
                0x000000000800d7e4       0x37 libcm.a(application.cpp.o)
 *fill*         0x000000000800d81b        0x1 
 .rodata._ZL10flush_taskv.str1.4
                0x000000000800d81c        0xb libcm.a(tasks.cpp.o)
 *fill*         0x000000000800d827        0x1 
 .rodata._ZL15restart_handlerN5codal5EventE.str1.4
                0x000000000800d828       0x25 libcm.a(tasks.cpp.o)
 *fill*         0x000000000800d84d        0x3 
 .rodata.restart_callback.str1.4
                0x000000000800d850       0x5d libcm.a(tasks.cpp.o)
                                         0x61 (size before relaxing)
 *fill*         0x000000000800d8ad        0x3 
 .rodata.start_background_tasks.str1.4
                0x000000000800d8b0       0x83 libcm.a(tasks.cpp.o)
 *fill*         0x000000000800d933        0x1 
 .rodata.pinmap_cnf.str1.4
                0x000000000800d934       0x19 libcm.a(CmPinMap.cpp.o)
 *fill*         0x000000000800d94d        0x3 
 .rodata.pinmap_mode.str1.4
                0x000000000800d950       0x1a libcm.a(CmPinMap.cpp.o)
 *fill*         0x000000000800d96a        0x2 
 .rodata.pinmap_peripheral.str1.4
                0x000000000800d96c       0x20 libcm.a(CmPinMap.cpp.o)
 .rodata.PinMap_SPI_MISO
                0x000000000800d98c       0x48 libmodel.a(STM32BluePillIO.cpp.o)
                0x000000000800d98c                PinMap_SPI_MISO
 .rodata.PinMap_SPI_MOSI
                0x000000000800d9d4       0x48 libmodel.a(STM32BluePillIO.cpp.o)
                0x000000000800d9d4                PinMap_SPI_MOSI
 .rodata.PinMap_SPI_NSS
                0x000000000800da1c       0x48 libmodel.a(STM32BluePillIO.cpp.o)
                0x000000000800da1c                PinMap_SPI_NSS
 .rodata.PinMap_SPI_SCK
                0x000000000800da64       0x48 libmodel.a(STM32BluePillIO.cpp.o)
                0x000000000800da64                PinMap_SPI_SCK
 .rodata._ZTVN5codal3I2CE
                0x000000000800daac       0x2c libcodal-core.a(I2C.cpp.o)
                0x000000000800daac                vtable for codal::I2C
                0x000000000800dad8                . = ALIGN (0x4)

.glue_7         0x000000000800dad8        0x0
 .glue_7        0x000000000800dad8        0x0 linker stubs

.glue_7t        0x000000000800dad8        0x0
 .glue_7t       0x000000000800dad8        0x0 linker stubs

.vfp11_veneer   0x000000000800dad8        0x0
 .vfp11_veneer  0x000000000800dad8        0x0 linker stubs

.v4_bx          0x000000000800dad8        0x0
 .v4_bx         0x000000000800dad8        0x0 linker stubs

.iplt           0x000000000800dad8        0x0
 .iplt          0x000000000800dad8        0x0 /Users/Luppy/stm32bluepill-makecode/pxt-maker/libs/stm32bluepill/built/codal/build/libraries/codal-libopencm3/CMakeFiles/hal.dir/stm32/hal/reset_handler.c.o

.rel.dyn        0x000000000800dad8        0x0
 .rel.iplt      0x000000000800dad8        0x0 /Users/Luppy/stm32bluepill-makecode/pxt-maker/libs/stm32bluepill/built/codal/build/libraries/codal-libopencm3/CMakeFiles/hal.dir/stm32/hal/reset_handler.c.o

.boot_preinit_array
                0x0000000008006bd4        0x0
                0x0000000008006bd4                . = ALIGN (0x4)
                0x0000000008006bd4                __boot_preinit_array_start = .
 :*reset_handler*(SORT_BY_ALIGNMENT(.preinit_array))
 *libhal.a:*reset_handler*(SORT_BY_ALIGNMENT(.preinit_array))
 :*codal_target_hal*(SORT_BY_ALIGNMENT(.preinit_array))
 *libhal.a:*codal_target_hal*(SORT_BY_ALIGNMENT(.preinit_array))
 :*CortexContextSwitch*(SORT_BY_ALIGNMENT(.preinit_array))
 *libhal.a:(SORT_BY_ALIGNMENT(.preinit_array))
 *liblibopencm3.a:(SORT_BY_ALIGNMENT(.preinit_array))
 *libFrameworkLibOpenCM3.a:(SORT_BY_ALIGNMENT(.preinit_array))
 *libcocoos.a:(SORT_BY_ALIGNMENT(.preinit_array))
 *libcocoOS_?.?.?.a:(SORT_BY_ALIGNMENT(.preinit_array))
 *libgcc.a:(SORT_BY_ALIGNMENT(.preinit_array))
 *libqfplib.a:(SORT_BY_ALIGNMENT(.preinit_array))
 *libnano-float.a:(SORT_BY_ALIGNMENT(.preinit_array))
 *libnewlib.a:(SORT_BY_ALIGNMENT(.preinit_array))
 *liblogger.a:(SORT_BY_ALIGNMENT(.preinit_array))
 *libbluepill.a:(SORT_BY_ALIGNMENT(.preinit_array))
 *libbootloader.a:(SORT_BY_ALIGNMENT(.preinit_array))
                0x0000000008006bd4                __boot_preinit_array_end = .

.preinit_array  0x000000000800dad8        0x0
                0x000000000800dad8                . = ALIGN (0x4)
                0x000000000800dad8                __preinit_array_start = .
 *(SORT_BY_ALIGNMENT(.preinit_array))
                0x000000000800dad8                __preinit_array_end = .

.boot_init_array
                0x0000000008006bd4        0x0
                0x0000000008006bd4                . = ALIGN (0x4)
                0x0000000008006bd4                __boot_init_array_start = .
 :*reset_handler*(SORT_BY_NAME(SORT_BY_ALIGNMENT(.init_array.*)))
 *libhal.a:*reset_handler*(SORT_BY_NAME(SORT_BY_ALIGNMENT(.init_array.*)))
 :*codal_target_hal*(SORT_BY_NAME(SORT_BY_ALIGNMENT(.init_array.*)))
 *libhal.a:*codal_target_hal*(SORT_BY_NAME(SORT_BY_ALIGNMENT(.init_array.*)))
 :*CortexContextSwitch*(SORT_BY_NAME(SORT_BY_ALIGNMENT(.init_array.*)))
 *libhal.a:(SORT_BY_NAME(SORT_BY_ALIGNMENT(.init_array.*)))
 *liblibopencm3.a:(SORT_BY_NAME(SORT_BY_ALIGNMENT(.init_array.*)))
 *libFrameworkLibOpenCM3.a:(SORT_BY_NAME(SORT_BY_ALIGNMENT(.init_array.*)))
 *libcocoos.a:(SORT_BY_NAME(SORT_BY_ALIGNMENT(.init_array.*)))
 *libcocoOS_?.?.?.a:(SORT_BY_NAME(SORT_BY_ALIGNMENT(.init_array.*)))
 *libgcc.a:(SORT_BY_NAME(SORT_BY_ALIGNMENT(.init_array.*)))
 *libqfplib.a:(SORT_BY_NAME(SORT_BY_ALIGNMENT(.init_array.*)))
 *libnano-float.a:(SORT_BY_NAME(SORT_BY_ALIGNMENT(.init_array.*)))
 *libnewlib.a:(SORT_BY_NAME(SORT_BY_ALIGNMENT(.init_array.*)))
 *liblogger.a:(SORT_BY_NAME(SORT_BY_ALIGNMENT(.init_array.*)))
 *libbluepill.a:(SORT_BY_NAME(SORT_BY_ALIGNMENT(.init_array.*)))
 *libbootloader.a:(SORT_BY_NAME(SORT_BY_ALIGNMENT(.init_array.*)))
 :*reset_handler*(SORT_BY_ALIGNMENT(.init_array))
 *libhal.a:*reset_handler*(SORT_BY_ALIGNMENT(.init_array))
 :*codal_target_hal*(SORT_BY_ALIGNMENT(.init_array))
 *libhal.a:*codal_target_hal*(SORT_BY_ALIGNMENT(.init_array))
 :*CortexContextSwitch*(SORT_BY_ALIGNMENT(.init_array))
 *libhal.a:(SORT_BY_ALIGNMENT(.init_array))
 *liblibopencm3.a:(SORT_BY_ALIGNMENT(.init_array))
 *libFrameworkLibOpenCM3.a:(SORT_BY_ALIGNMENT(.init_array))
 *libcocoos.a:(SORT_BY_ALIGNMENT(.init_array))
 *libcocoOS_?.?.?.a:(SORT_BY_ALIGNMENT(.init_array))
 *libgcc.a:(SORT_BY_ALIGNMENT(.init_array))
 *libqfplib.a:(SORT_BY_ALIGNMENT(.init_array))
 *libnano-float.a:(SORT_BY_ALIGNMENT(.init_array))
 *libnewlib.a:(SORT_BY_ALIGNMENT(.init_array))
 *liblogger.a:(SORT_BY_ALIGNMENT(.init_array))
 *libbluepill.a:(SORT_BY_ALIGNMENT(.init_array))
 *libbootloader.a:(SORT_BY_ALIGNMENT(.init_array))
                0x0000000008006bd4                __boot_init_array_end = .
                0x0000000008006bd4                . = ALIGN (0x4)
                0x0000000008006bd4                _boot_etext = .

.init_array     0x000000000800dad8        0xc
                0x000000000800dad8                . = ALIGN (0x4)
                0x000000000800dad8                __init_array_start = .
 *(SORT_BY_NAME(SORT_BY_ALIGNMENT(.init_array.*)))
 *(SORT_BY_ALIGNMENT(.init_array))
 .init_array    0x000000000800dad8        0x4 CMakeFiles/STM32_BLUE_PILL.dir/pxtapp/base/gc.cpp.o
 .init_array    0x000000000800dadc        0x4 CMakeFiles/STM32_BLUE_PILL.dir/pxtapp/core---stm32bluepill/codal.cpp.o
 .init_array    0x000000000800dae0        0x4 libcm.a(tasks.cpp.o)
                0x000000000800dae4                __init_array_end = .
                0x000000000800dae4                . = ALIGN (0x4)
                0x000000000800dae4                _etext = .

.boot_fini_array
                0x0000000008006bd4        0x0
                0x0000000008006bd4                . = ALIGN (0x4)
                0x0000000008006bd4                __boot_fini_array_start = .
 :*reset_handler*(SORT_BY_ALIGNMENT(.fini_array))
 *libhal.a:*reset_handler*(SORT_BY_ALIGNMENT(.fini_array))
 :*codal_target_hal*(SORT_BY_ALIGNMENT(.fini_array))
 *libhal.a:*codal_target_hal*(SORT_BY_ALIGNMENT(.fini_array))
 :*CortexContextSwitch*(SORT_BY_ALIGNMENT(.fini_array))
 *libhal.a:(SORT_BY_ALIGNMENT(.fini_array))
 *liblibopencm3.a:(SORT_BY_ALIGNMENT(.fini_array))
 *libFrameworkLibOpenCM3.a:(SORT_BY_ALIGNMENT(.fini_array))
 *libcocoos.a:(SORT_BY_ALIGNMENT(.fini_array))
 *libcocoOS_?.?.?.a:(SORT_BY_ALIGNMENT(.fini_array))
 *libgcc.a:(SORT_BY_ALIGNMENT(.fini_array))
 *libqfplib.a:(SORT_BY_ALIGNMENT(.fini_array))
 *libnano-float.a:(SORT_BY_ALIGNMENT(.fini_array))
 *libnewlib.a:(SORT_BY_ALIGNMENT(.fini_array))
 *liblogger.a:(SORT_BY_ALIGNMENT(.fini_array))
 *libbluepill.a:(SORT_BY_ALIGNMENT(.fini_array))
 *libbootloader.a:(SORT_BY_ALIGNMENT(.fini_array))
 :*reset_handler*(SORT_BY_NAME(SORT_BY_ALIGNMENT(.fini_array.*)))
 *libhal.a:*reset_handler*(SORT_BY_NAME(SORT_BY_ALIGNMENT(.fini_array.*)))
 :*codal_target_hal*(SORT_BY_NAME(SORT_BY_ALIGNMENT(.fini_array.*)))
 *libhal.a:*codal_target_hal*(SORT_BY_NAME(SORT_BY_ALIGNMENT(.fini_array.*)))
 :*CortexContextSwitch*(SORT_BY_NAME(SORT_BY_ALIGNMENT(.fini_array.*)))
 *libhal.a:(SORT_BY_NAME(SORT_BY_ALIGNMENT(.fini_array.*)))
 *liblibopencm3.a:(SORT_BY_NAME(SORT_BY_ALIGNMENT(.fini_array.*)))
 *libFrameworkLibOpenCM3.a:(SORT_BY_NAME(SORT_BY_ALIGNMENT(.fini_array.*)))
 *libcocoos.a:(SORT_BY_NAME(SORT_BY_ALIGNMENT(.fini_array.*)))
 *libcocoOS_?.?.?.a:(SORT_BY_NAME(SORT_BY_ALIGNMENT(.fini_array.*)))
 *libgcc.a:(SORT_BY_NAME(SORT_BY_ALIGNMENT(.fini_array.*)))
 *libqfplib.a:(SORT_BY_NAME(SORT_BY_ALIGNMENT(.fini_array.*)))
 *libnano-float.a:(SORT_BY_NAME(SORT_BY_ALIGNMENT(.fini_array.*)))
 *libnewlib.a:(SORT_BY_NAME(SORT_BY_ALIGNMENT(.fini_array.*)))
 *liblogger.a:(SORT_BY_NAME(SORT_BY_ALIGNMENT(.fini_array.*)))
 *libbluepill.a:(SORT_BY_NAME(SORT_BY_ALIGNMENT(.fini_array.*)))
 *libbootloader.a:(SORT_BY_NAME(SORT_BY_ALIGNMENT(.fini_array.*)))
                0x0000000008006bd4                __boot_fini_array_end = .

.fini_array     0x000000000800dae4        0x0
                0x000000000800dae4                . = ALIGN (0x4)
                0x000000000800dae4                __fini_array_start = .
 *(SORT_BY_ALIGNMENT(.fini_array))
 *(SORT_BY_NAME(SORT_BY_ALIGNMENT(.fini_array.*)))
                0x000000000800dae4                __fini_array_end = .

.boot_data      0x0000000020000000      0x580 load address 0x0000000008006bd4
                0x0000000020000000                _boot_data = .
 *(SORT_BY_ALIGNMENT(.base_para))
 .base_para     0x0000000020000000       0x1c libbaseloader.a(baseloader.c.o)
                0x0000000020000000                base_para
 *(SORT_BY_ALIGNMENT(.base_tmp))
 .base_tmp      0x000000002000001c       0x24 libbaseloader.a(baseloader.c.o)
                0x000000002000001c                base_tmp
 *libbaseloader.a:(SORT_BY_ALIGNMENT(.data*))
 :*reset_handler*(SORT_BY_ALIGNMENT(.data*))
 .data.hal_data_test
                0x0000000020000040        0x4 /Users/Luppy/stm32bluepill-makecode/pxt-maker/libs/stm32bluepill/built/codal/build/libraries/codal-libopencm3/CMakeFiles/hal.dir/stm32/hal/reset_handler.c.o
                0x0000000020000040                hal_data_test
 *libhal.a:*reset_handler*(SORT_BY_ALIGNMENT(.data*))
 :*codal_target_hal*(SORT_BY_ALIGNMENT(.data*))
 *libhal.a:*codal_target_hal*(SORT_BY_ALIGNMENT(.data*))
 .data.codal_heap_start
                0x0000000020000044        0x4 libhal.a(codal_target_hal.cpp.o)
                0x0000000020000044                codal_heap_start
 :*CortexContextSwitch.*(SORT_BY_ALIGNMENT(.data*))
 *libhal.a:(SORT_BY_ALIGNMENT(.data*))
 *liblibopencm3.a:(SORT_BY_ALIGNMENT(.data*))
 .data.rcc_ahb_frequency
                0x0000000020000048        0x4 liblibopencm3.a(rcc.c.o)
                0x0000000020000048                rcc_ahb_frequency
 .data.rcc_apb1_frequency
                0x000000002000004c        0x4 liblibopencm3.a(rcc.c.o)
                0x000000002000004c                rcc_apb1_frequency
 .data.rcc_apb2_frequency
                0x0000000020000050        0x4 liblibopencm3.a(rcc.c.o)
                0x0000000020000050                rcc_apb2_frequency
 *libFrameworkLibOpenCM3.a:(SORT_BY_ALIGNMENT(.data*))
 *libcocoos.a:(SORT_BY_ALIGNMENT(.data*))
 .data.lastSignaledEvent
                0x0000000020000054        0x1 libcocoos.a(os_event.c.o)
 *libcocoOS_?.?.?.a:(SORT_BY_ALIGNMENT(.data*))
 *libgcc.a:(SORT_BY_ALIGNMENT(.data*))
 *libqfplib.a:(SORT_BY_ALIGNMENT(.data*))
 *libnano-float.a:(SORT_BY_ALIGNMENT(.data*))
 *libnewlib.a:(SORT_BY_ALIGNMENT(.data*))
 *fill*         0x0000000020000055        0x3 
 .data.impure_data
                0x0000000020000058      0x410 libnewlib.a(impure.c.o)
 .data._impure_ptr
                0x0000000020000468        0x4 libnewlib.a(impure.c.o)
                0x0000000020000468                _impure_ptr
 *liblogger.a:(SORT_BY_ALIGNMENT(.data*))
 *libbluepill.a:(SORT_BY_ALIGNMENT(.data*))
 *libbootloader.a:(SORT_BY_ALIGNMENT(.data*))
 .data.flushCount
                0x000000002000046c        0x4 libbootloader.a(bootloader.c.o)
 .data.flashAddr
                0x0000000020000470        0x4 libbootloader.a(ghostfat.c.o)
 .data.capabilities
                0x0000000020000474        0x8 libbootloader.a(usb_conf.c.o)
 .data.usb_strings
                0x000000002000047c       0x24 libbootloader.a(usb_conf.c.o)
 .data.msos20_descriptor_set
                0x00000000200004a0       0xb2 libbootloader.a(winusb.c.o)
 *fill*         0x0000000020000552        0x2 
 .data.winusb_wcid
                0x0000000020000554       0x28 libbootloader.a(winusb.c.o)
 .data.firstFlush
                0x000000002000057c        0x1 libbootloader.a(ghostfat.c.o)
                0x0000000020000580                . = ALIGN (0x4)
 *fill*         0x000000002000057d        0x3 
                0x0000000020000580                _boot_edata = .
                0x0000000008006bd4                _boot_data_loadaddr = LOADADDR (.boot_data)

.data           0x0000000020001000        0xc load address 0x000000000800dae4
                0x0000000020001000                _data = .
 *(SORT_BY_ALIGNMENT(.data*))
 .data._ZN3pxtL12random_valueE
                0x0000000020001000        0x4 CMakeFiles/STM32_BLUE_PILL.dir/pxtapp/base/core.cpp.o
 .data.app_data_test
                0x0000000020001004        0x4 libcm.a(application.cpp.o)
                0x0000000020001004                app_data_test
 .data._ZL12userNotifyId
                0x0000000020001008        0x2 libcodal-core.a(MessageBus.cpp.o)
                0x000000002000100c                . = ALIGN (0x4)
 *fill*         0x000000002000100a        0x2 
                0x000000002000100c                _edata = .
                0x000000000800dae4                _data_loadaddr = LOADADDR (.data)

.igot.plt       0x000000002000100c        0x0 load address 0x000000000800daf0
 .igot.plt      0x000000002000100c        0x0 /Users/Luppy/stm32bluepill-makecode/pxt-maker/libs/stm32bluepill/built/codal/build/libraries/codal-libopencm3/CMakeFiles/hal.dir/stm32/hal/reset_handler.c.o

.boot_bss       0x0000000020000580      0x780
 *libbaseloader.a:(SORT_BY_ALIGNMENT(.bss*))
 :*reset_handler*(SORT_BY_ALIGNMENT(.bss*))
 *libhal.a:*reset_handler*(SORT_BY_ALIGNMENT(.bss*))
 :*codal_target_hal*(SORT_BY_ALIGNMENT(.bss*))
 *libhal.a:*codal_target_hal*(SORT_BY_ALIGNMENT(.bss*))
 .bss._ZL11poll_status
                0x0000000020000580        0x4 libhal.a(codal_target_hal.cpp.o)
 .bss._ZL13tick_callback
                0x0000000020000584        0x4 libhal.a(codal_target_hal.cpp.o)
 .bss._ZL14alarm_callback
                0x0000000020000588        0x4 libhal.a(codal_target_hal.cpp.o)
 .bss._ZL16prev_poll_status
                0x000000002000058c        0x4 libhal.a(codal_target_hal.cpp.o)
 .bss._ZL19bootloader_callback
                0x0000000020000590        0x4 libhal.a(codal_target_hal.cpp.o)
 .bss.__dso_handle
                0x0000000020000594        0x4 libhal.a(codal_target_hal.cpp.o)
                0x0000000020000594                __dso_handle
 .bss._ZL11initialised
                0x0000000020000598        0x1 libhal.a(codal_target_hal.cpp.o)
 :*CortexContextSwitch*(SORT_BY_ALIGNMENT(.bss*))
 *libhal.a:(SORT_BY_ALIGNMENT(.bss*))
 *liblibopencm3.a:(SORT_BY_ALIGNMENT(.bss*))
 *libFrameworkLibOpenCM3.a:(SORT_BY_ALIGNMENT(.bss*))
 *libcocoos.a:(SORT_BY_ALIGNMENT(.bss*))
 *fill*         0x0000000020000599        0x3 
 .bss.msgQList  0x000000002000059c       0x20 libcocoos.a(os_msgqueue.c.o)
 .bss.task_list
                0x00000000200005bc       0x8c libcocoos.a(os_task.c.o)
 .bss.eventList
                0x0000000020000648        0xe libcocoos.a(os_event.c.o)
 .bss.l.4990    0x0000000020000656        0x2 libcocoos.a(os_assert.c.o)
 .bss.nQueues   0x0000000020000658        0x1 libcocoos.a(os_msgqueue.c.o)
 .bss.nSemaphores
                0x0000000020000659        0x1 libcocoos.a(os_sem.c.o)
 .bss.nTasks    0x000000002000065a        0x1 libcocoos.a(os_task.c.o)
 .bss.nEvents   0x000000002000065b        0x1 libcocoos.a(os_event.c.o)
 *libcocoOS_?.?.?.a:(SORT_BY_ALIGNMENT(.bss*))
 *libgcc.a:(SORT_BY_ALIGNMENT(.bss*))
 *libqfplib.a:(SORT_BY_ALIGNMENT(.bss*))
 *libnano-float.a:(SORT_BY_ALIGNMENT(.bss*))
 .bss.float_usage
                0x000000002000065c       0x2e libnano-float.a(functions.c.o)
 *libnewlib.a:(SORT_BY_ALIGNMENT(.bss*))
 *liblogger.a:(SORT_BY_ALIGNMENT(.bss*))
 *fill*         0x000000002000068a        0x2 
 .bss._ZL11debugBuffer
                0x000000002000068c      0x201 liblogger.a(logger.cpp.o)
 *fill*         0x000000002000088d        0x3 
 .bss._ZL12output_funcs
                0x0000000020000890       0x10 liblogger.a(logger.cpp.o)
 .bss._ZL17debugBufferLength
                0x00000000200008a0        0x2 liblogger.a(logger.cpp.o)
 .bss._ZL10logEnabled
                0x00000000200008a2        0x1 liblogger.a(logger.cpp.o)
 *libbluepill.a:(SORT_BY_ALIGNMENT(.bss*))
 *fill*         0x00000000200008a3        0x1 
 .bss._ZL10alarmCount
                0x00000000200008a4        0x4 libbluepill.a(timer.cpp.o)
 .bss._ZL8tickFunc
                0x00000000200008a8        0x4 libbluepill.a(timer.cpp.o)
 .bss._ZL9alarmFunc
                0x00000000200008ac        0x4 libbluepill.a(timer.cpp.o)
 .bss._ZL9tickCount
                0x00000000200008b0        0x4 libbluepill.a(timer.cpp.o)
 .bss._ZL12debugEnabled
                0x00000000200008b4        0x1 libbluepill.a(bluepill.cpp.o)
 .bss._ZZ20platform_start_timerE12timerStarted
                0x00000000200008b5        0x1 libbluepill.a(timer.cpp.o)
 *libbootloader.a:(SORT_BY_ALIGNMENT(.bss*))
 *fill*         0x00000000200008b6        0x2 
 .bss.baseloader_addr
                0x00000000200008b8        0x4 libbootloader.a(bootloader.c.o)
 .bss.baseloader_status
                0x00000000200008bc        0x4 libbootloader.a(bootloader.c.o)
 .bss.byte_count
                0x00000000200008c0        0x4 libbootloader.a(bootloader.c.o)
 .bss.cycleCount
                0x00000000200008c4        0x4 libbootloader.a(bootloader.c.o)
 .bss.dest      0x00000000200008c8        0x4 libbootloader.a(bootloader.c.o)
 .bss.last_status
                0x00000000200008cc        0x4 libbootloader.a(bootloader.c.o)
 .bss.msTimer   0x00000000200008d0        0x4 libbootloader.a(bootloader.c.o)
 .bss.src       0x00000000200008d4        0x4 libbootloader.a(bootloader.c.o)
 .bss.status    0x00000000200008d8        0x4 libbootloader.a(bootloader.c.o)
 .bss.tmp_vector_table
                0x00000000200008dc        0x4 libbootloader.a(bootloader.c.o)
 .bss.usbd_dev  0x00000000200008e0        0x4 libbootloader.a(bootloader.c.o)
 .bss.lastFlush
                0x00000000200008e4        0x4 libbootloader.a(ghostfat.c.o)
 .bss.ms        0x00000000200008e8        0x4 libbootloader.a(ghostfat.c.o)
 .bss.config_callback
                0x00000000200008ec       0x28 libbootloader.a(usb_conf.c.o)
 .bss.control_callback
                0x0000000020000914       0x50 libbootloader.a(usb_conf.c.o)
 .bss.last_busy_time
                0x0000000020000964        0x4 libbootloader.a(usb_conf.c.o)
 .bss.last_frame_time
                0x0000000020000968        0x4 libbootloader.a(usb_conf.c.o)
 .bss.serial_number
                0x000000002000096c       0x19 libbootloader.a(usb_conf.c.o)
 *fill*         0x0000000020000985        0x3 
 .bss.usbd_dev  0x0000000020000988        0x4 libbootloader.a(usb_conf.c.o)
                0x0000000020000988                usbd_dev
 .bss.webusb_https_url
                0x000000002000098c        0x4 libbootloader.a(webusb.c.o)
 .bss.connected_func
                0x0000000020000990        0x4 libbootloader.a(cdc.c.o)
 .bss.rx_buf    0x0000000020000994       0x41 libbootloader.a(cdc.c.o)
 *fill*         0x00000000200009d5        0x3 
 .bss._usbd_dev
                0x00000000200009d8        0x4 libbootloader.a(hf2.c.o)
 .bss.cmdId.6013
                0x00000000200009dc        0x4 libbootloader.a(hf2.c.o)
 .bss.connected_func
                0x00000000200009e0        0x4 libbootloader.a(hf2.c.o)
 .bss.new_app_start.6017
                0x00000000200009e4        0x4 libbootloader.a(hf2.c.o)
 .bss.new_base_vector.6016
                0x00000000200009e8        0x4 libbootloader.a(hf2.c.o)
 .bss.new_baseloader_size.6019
                0x00000000200009ec        0x4 libbootloader.a(hf2.c.o)
 .bss.new_bootloader_size.6018
                0x00000000200009f0        0x4 libbootloader.a(hf2.c.o)
 .bss.pkt.6048  0x00000000200009f4        0x4 libbootloader.a(hf2.c.o)
 .bss.prevCmdId.6014
                0x00000000200009f8        0x4 libbootloader.a(hf2.c.o)
 .bss.remDataToSend
                0x00000000200009fc        0x4 libbootloader.a(hf2.c.o)
 .bss.remDataToSendLength
                0x0000000020000a00        0x4 libbootloader.a(hf2.c.o)
 .bss.rx_buf    0x0000000020000a04       0x40 libbootloader.a(hf2.c.o)
 .bss.rx_time   0x0000000020000a44        0x4 libbootloader.a(hf2.c.o)
 .bss.tx_buf    0x0000000020000a48       0x40 libbootloader.a(hf2.c.o)
 .bss.usb21_bos
                0x0000000020000a88        0x4 libbootloader.a(usb21_standard.c.o)
 .bss.usbd_control_buffer
                0x0000000020000a8c      0x100 libbootloader.a(usb_conf.c.o)
 .bss.poll_restart_requested
                0x0000000020000b8c        0x1 libbootloader.a(bootloader.c.o)
 .bss.cdc_is_connected
                0x0000000020000b8d        0x1 libbootloader.a(usb_conf.c.o)
 .bss.hf2_is_connected
                0x0000000020000b8e        0x1 libbootloader.a(usb_conf.c.o)
 .bss.forced_startup_mode
                0x0000000020000b8f        0x1 libbootloader.a(target_stm32f103.c.o)
 .bss.startup_mode
                0x0000000020000b90        0x1 libbootloader.a(target_stm32f103.c.o)
 .bss.connected
                0x0000000020000b91        0x1 libbootloader.a(cdc.c.o)
 .bss.connected
                0x0000000020000b92        0x1 libbootloader.a(hf2.c.o)
 .bss.flush_count.6015
                0x0000000020000b93        0x1 libbootloader.a(hf2.c.o)
 .bss.remDataToSendFlag
                0x0000000020000b94        0x1 libbootloader.a(hf2.c.o)
 .bss.restart_request
                0x0000000020000b95        0x1 libbootloader.a(hf2.c.o)
 :*reset_handler*(SORT_BY_ALIGNMENT(COMMON))
 *fill*         0x0000000020000b96        0x2 
 COMMON         0x0000000020000b98        0x4 /Users/Luppy/stm32bluepill-makecode/pxt-maker/libs/stm32bluepill/built/codal/build/libraries/codal-libopencm3/CMakeFiles/hal.dir/stm32/hal/reset_handler.c.o
                0x0000000020000b98                hal_bss_test
 *libhal.a:*reset_handler*(SORT_BY_ALIGNMENT(COMMON))
 :*codal_target_hal*(SORT_BY_ALIGNMENT(COMMON))
 *libhal.a:*codal_target_hal*(SORT_BY_ALIGNMENT(COMMON))
 :*CortexContextSwitch*(SORT_BY_ALIGNMENT(COMMON))
 *libhal.a:(SORT_BY_ALIGNMENT(COMMON))
 *liblibopencm3.a:(SORT_BY_ALIGNMENT(COMMON))
 COMMON         0x0000000020000b9c      0x104 liblibopencm3.a(st_usbfs_core.c.o)
                0x0000000020000b9c                st_usbfs_force_nak
                0x0000000020000ba4                st_usbfs_dev
 *libFrameworkLibOpenCM3.a:(SORT_BY_ALIGNMENT(COMMON))
 *libcocoos.a:(SORT_BY_ALIGNMENT(COMMON))
 COMMON         0x0000000020000ca0        0x3 libcocoos.a(os_kernel.c.o)
                0x0000000020000ca0                running_tid
                0x0000000020000ca1                running
                0x0000000020000ca2                last_running_task
 *libcocoOS_?.?.?.a:(SORT_BY_ALIGNMENT(COMMON))
 *libgcc.a:(SORT_BY_ALIGNMENT(COMMON))
 *libqfplib.a:(SORT_BY_ALIGNMENT(COMMON))
 *libnano-float.a:(SORT_BY_ALIGNMENT(COMMON))
 *libnewlib.a:(SORT_BY_ALIGNMENT(COMMON))
 *liblogger.a:(SORT_BY_ALIGNMENT(COMMON))
 *libbluepill.a:(SORT_BY_ALIGNMENT(COMMON))
 *libbootloader.a:(SORT_BY_ALIGNMENT(COMMON))
 *fill*         0x0000000020000ca3        0x1 
 COMMON         0x0000000020000ca4       0x5b libbootloader.a(hf2.c.o)
                0x0000000020000ca4                hf2_buffer_mini
                0x0000000020000d00                . = ALIGN (0x4)
 *fill*         0x0000000020000cff        0x1 
                0x0000000020000d00                _boot_ebss = .
                0x0000000020000d00                . = ALIGN (0x4)
                0x0000000020000d00                boot_end = .

.bss            0x000000002000100c      0x66c
 *(SORT_BY_ALIGNMENT(.bss*))
 .bss._ZN3pxtL15handlerBindingsE
                0x000000002000100c        0x4 CMakeFiles/STM32_BLUE_PILL.dir/pxtapp/base/core.cpp.o
 .bss._ZN3pxtL10firstBlockE
                0x0000000020001010        0x4 CMakeFiles/STM32_BLUE_PILL.dir/pxtapp/base/gc.cpp.o
 .bss._ZN3pxtL6midPtrE
                0x0000000020001014        0x4 CMakeFiles/STM32_BLUE_PILL.dir/pxtapp/base/gc.cpp.o
 .bss._ZN3pxtL7gcRootsE
                0x0000000020001018        0x8 CMakeFiles/STM32_BLUE_PILL.dir/pxtapp/base/gc.cpp.o
 .bss._ZN3pxtL8tempRootE
                0x0000000020001020        0x4 CMakeFiles/STM32_BLUE_PILL.dir/pxtapp/base/gc.cpp.o
 .bss._ZN3pxtL9firstFreeE
                0x0000000020001024        0x4 CMakeFiles/STM32_BLUE_PILL.dir/pxtapp/base/gc.cpp.o
 .bss._ZN3pxtL9workQueueE
                0x0000000020001028        0x8 CMakeFiles/STM32_BLUE_PILL.dir/pxtapp/base/gc.cpp.o
 .bss._ZN3pxt7globalsE
                0x0000000020001030        0x4 CMakeFiles/STM32_BLUE_PILL.dir/pxtapp/base/pxt.cpp.o
                0x0000000020001030                pxt::globals
 .bss._ZN3pxt8bytecodeE
                0x0000000020001034        0x4 CMakeFiles/STM32_BLUE_PILL.dir/pxtapp/base/pxt.cpp.o
                0x0000000020001034                pxt::bytecode
 .bss._ZN3pxt13devMessageBusE
                0x0000000020001038       0x24 CMakeFiles/STM32_BLUE_PILL.dir/pxtapp/core---stm32bluepill/codal.cpp.o
                0x0000000020001038                pxt::devMessageBus
 .bss._ZN3pxt6deviceE
                0x000000002000105c        0x4 CMakeFiles/STM32_BLUE_PILL.dir/pxtapp/core---stm32bluepill/codal.cpp.o
                0x000000002000105c                pxt::device
 .bss._ZN3pxt8devTimerE
                0x0000000020001060       0x24 CMakeFiles/STM32_BLUE_PILL.dir/pxtapp/core---stm32bluepill/codal.cpp.o
                0x0000000020001060                pxt::devTimer
 .bss._ZN3pxt9lastEventE
                0x0000000020001084        0x8 CMakeFiles/STM32_BLUE_PILL.dir/pxtapp/core---stm32bluepill/codal.cpp.o
                0x0000000020001084                pxt::lastEvent
 .bss._ZN4pinsL3i2cE
                0x000000002000108c        0x4 CMakeFiles/STM32_BLUE_PILL.dir/pxtapp/core---stm32bluepill/i2c.cpp.o
 .bss._ZN3pxtL6pinPosE
                0x0000000020001090       0x80 CMakeFiles/STM32_BLUE_PILL.dir/pxtapp/core---stm32bluepill/pins.cpp.o
 .bss._ZN3pxtL7pinPtrsE
                0x0000000020001110        0x4 CMakeFiles/STM32_BLUE_PILL.dir/pxtapp/core---stm32bluepill/pins.cpp.o
 .bss._ZN4pinsL3spiE
                0x0000000020001114        0x4 CMakeFiles/STM32_BLUE_PILL.dir/pxtapp/core---stm32bluepill/spi.cpp.o
 .bss._ZN3pxtL11pSendToUARTE
                0x0000000020001118        0x4 CMakeFiles/STM32_BLUE_PILL.dir/pxtapp/core---stm32bluepill/usb.cpp.o
 .bss._ZN5codal14CodalComponent10componentsE
                0x000000002000111c      0x100 libcodal-core.a(CodalComponent.cpp.o)
                0x000000002000111c                codal::CodalComponent::components
 .bss.codalLogStore
                0x000000002000121c      0x404 libcodal-core.a(CodalDmesg.cpp.o)
                0x000000002000121c                codalLogStore
 .bss._ZN5codal12currentFiberE
                0x0000000020001620        0x4 libcodal-core.a(CodalFiber.cpp.o)
                0x0000000020001620                codal::currentFiber
 .bss._ZN5codalL10messageBusE
                0x0000000020001624        0x4 libcodal-core.a(CodalFiber.cpp.o)
 .bss._ZN5codalL10sleepQueueE
                0x0000000020001628        0x4 libcodal-core.a(CodalFiber.cpp.o)
 .bss._ZN5codalL11forkedFiberE
                0x000000002000162c        0x4 libcodal-core.a(CodalFiber.cpp.o)
 .bss._ZN5codalL8runQueueE
                0x0000000020001630        0x4 libcodal-core.a(CodalFiber.cpp.o)
 .bss._ZN5codalL9fiberPoolE
                0x0000000020001634        0x4 libcodal-core.a(CodalFiber.cpp.o)
 .bss._ZN5codalL9idleFiberE
                0x0000000020001638        0x4 libcodal-core.a(CodalFiber.cpp.o)
 .bss._ZN5codalL9waitQueueE
                0x000000002000163c        0x4 libcodal-core.a(CodalFiber.cpp.o)
 .bss.heap      0x0000000020001640        0x8 libcodal-core.a(CodalHeapAllocator.cpp.o)
                0x0000000020001640                heap
 .bss._ZN5codal12system_timerE
                0x0000000020001648        0x4 libcodal-core.a(Timer.cpp.o)
                0x0000000020001648                codal::system_timer
 .bss._ZN5codal10EventModel15defaultEventBusE
                0x000000002000164c        0x4 libcodal-core.a(Event.cpp.o)
                0x000000002000164c                codal::EventModel::defaultEventBus
 .bss._ZN5codal3_cm5Timer8instanceE
                0x0000000020001650        0x4 libcm.a(CmTimer.cpp.o)
                0x0000000020001650                codal::_cm::Timer::instance
 .bss._ZN5codal3_cmL12last_triggerE
                0x0000000020001654        0x4 libcm.a(CmTimer.cpp.o)
 .bss._ZN5codal3_cmL14trigger_periodE
                0x0000000020001658        0x4 libcm.a(CmTimer.cpp.o)
 .bss.app_bss_test
                0x000000002000165c        0x4 libcm.a(application.cpp.o)
                0x000000002000165c                app_bss_test
 .bss._ZL13restart_event
                0x0000000020001660        0x8 libcm.a(tasks.cpp.o)
 .bss._ZL16flush_task_fibre
                0x0000000020001668        0x4 libcm.a(tasks.cpp.o)
 .bss._ZN3pxt4inGCE
                0x000000002000166c        0x1 CMakeFiles/STM32_BLUE_PILL.dir/pxtapp/base/gc.cpp.o
                0x000000002000166c                pxt::inGC
 .bss._ZN3pxtL11tempRootLenE
                0x000000002000166d        0x1 CMakeFiles/STM32_BLUE_PILL.dir/pxtapp/base/gc.cpp.o
 .bss._ZN3pxtL10numPinPtrsE
                0x000000002000166e        0x1 CMakeFiles/STM32_BLUE_PILL.dir/pxtapp/core---stm32bluepill/pins.cpp.o
 .bss._ZN5codal14CodalComponent13configurationE
                0x000000002000166f        0x1 libcodal-core.a(CodalComponent.cpp.o)
                0x000000002000166f                codal::CodalComponent::configuration
 .bss._ZN5codalL11fiber_flagsE
                0x0000000020001670        0x1 libcodal-core.a(CodalFiber.cpp.o)
 .bss._ZZ13device_mallocE11initialised
                0x0000000020001671        0x1 libcodal-core.a(CodalHeapAllocator.cpp.o)
 .bss.heap_count
                0x0000000020001672        0x1 libcodal-core.a(CodalHeapAllocator.cpp.o)
                0x0000000020001672                heap_count
 .bss._ZL24restart_listener_started
                0x0000000020001673        0x1 libcm.a(tasks.cpp.o)
 *(SORT_BY_ALIGNMENT(COMMON))
 COMMON         0x0000000020001674        0x4 libbaseloader.a(baseloader.c.o)
                0x0000000020001674                debug_base_result
                0x0000000020001678                . = ALIGN (0x4)
                0x0000000020001678                _ebss = .

.boot_buf       0x00000000200047bc      0x844
 *(SORT_BY_ALIGNMENT(.boot_buf*))
 .boot_buf      0x00000000200047bc      0x400 libbootloader.a(ghostfat.c.o)
                0x00000000200047bc                flashBuf
 .boot_buf      0x0000000020004bbc      0x442 libbootloader.a(hf2.c.o)
                0x0000000020004bbc                hf2_buffer
                0x0000000020005000                . = ALIGN (0x4)
 *fill*         0x0000000020004ffe        0x2 
                0x0000000020005000                _eboot_buf = .
                0x0000000020005000                . = ALIGN (0x4)
                0x0000000020005000                end = .
                0x0000000020005000                PROVIDE (_stack = (ORIGIN (bootbuf) + LENGTH (bootbuf)))
                0x00000000200047bc                PROVIDE (_boot_stack = (ORIGIN (ram) + LENGTH (ram)))
OUTPUT(STM32_BLUE_PILL elf32-littlearm)

.debug_info     0x0000000000000000    0x899ff
 .debug_info    0x0000000000000000      0xb18 /Users/Luppy/stm32bluepill-makecode/pxt-maker/libs/stm32bluepill/built/codal/build/libraries/codal-libopencm3/CMakeFiles/hal.dir/stm32/hal/reset_handler.c.o
 .debug_info    0x0000000000000b18     0x1e49 CMakeFiles/STM32_BLUE_PILL.dir/pxtapp/base/advmath.cpp.o
 .debug_info    0x0000000000002961     0x2fc2 CMakeFiles/STM32_BLUE_PILL.dir/pxtapp/base/buffer.cpp.o
 .debug_info    0x0000000000005923     0x2110 CMakeFiles/STM32_BLUE_PILL.dir/pxtapp/base/control.cpp.o
 .debug_info    0x0000000000007a33     0x7431 CMakeFiles/STM32_BLUE_PILL.dir/pxtapp/base/core.cpp.o
 .debug_info    0x000000000000ee64     0x48d9 CMakeFiles/STM32_BLUE_PILL.dir/pxtapp/base/gc.cpp.o
 .debug_info    0x000000000001373d     0x1bc7 CMakeFiles/STM32_BLUE_PILL.dir/pxtapp/base/loops.cpp.o
 .debug_info    0x0000000000015304     0x4331 CMakeFiles/STM32_BLUE_PILL.dir/pxtapp/base/pxt.cpp.o
 .debug_info    0x0000000000019635     0x3e2d CMakeFiles/STM32_BLUE_PILL.dir/pxtapp/core---stm32bluepill/codal.cpp.o
 .debug_info    0x000000000001d462     0x205a CMakeFiles/STM32_BLUE_PILL.dir/pxtapp/core---stm32bluepill/control.cpp.o
 .debug_info    0x000000000001f4bc     0x2406 CMakeFiles/STM32_BLUE_PILL.dir/pxtapp/core---stm32bluepill/i2c.cpp.o
 .debug_info    0x00000000000218c2     0x2da7 CMakeFiles/STM32_BLUE_PILL.dir/pxtapp/core---stm32bluepill/pins.cpp.o
 .debug_info    0x0000000000024669     0x2604 CMakeFiles/STM32_BLUE_PILL.dir/pxtapp/core---stm32bluepill/pinsAnalog.cpp.o
 .debug_info    0x0000000000026c6d     0x294f CMakeFiles/STM32_BLUE_PILL.dir/pxtapp/core---stm32bluepill/pinsDigital.cpp.o
 .debug_info    0x00000000000295bc     0x269f CMakeFiles/STM32_BLUE_PILL.dir/pxtapp/core---stm32bluepill/pinsPWM.cpp.o
 .debug_info    0x000000000002bc5b     0x1e07 CMakeFiles/STM32_BLUE_PILL.dir/pxtapp/core---stm32bluepill/platform.cpp.o
 .debug_info    0x000000000002da62     0x23fe CMakeFiles/STM32_BLUE_PILL.dir/pxtapp/core---stm32bluepill/spi.cpp.o
 .debug_info    0x000000000002fe60     0x1e88 CMakeFiles/STM32_BLUE_PILL.dir/pxtapp/core---stm32bluepill/usb.cpp.o
 .debug_info    0x0000000000031ce8     0x1d17 CMakeFiles/STM32_BLUE_PILL.dir/pxtapp/main.cpp.o
 .debug_info    0x00000000000339ff     0x1e3a CMakeFiles/STM32_BLUE_PILL.dir/pxtapp/pointers.cpp.o
 .debug_info    0x0000000000035839      0xba7 libnewlib.a(memcpy-stub.c.o)
 .debug_info    0x00000000000363e0       0x26 libnewlib.a(strcmp.S.o)
 .debug_info    0x0000000000036406       0x26 libnewlib.a(strlen.S.o)
 .debug_info    0x000000000003642c     0x1053 libnewlib.a(strtol.c.o)
 .debug_info    0x000000000003747f      0x8d6 libnewlib.a(memcmp.c.o)
 .debug_info    0x0000000000037d55      0xb90 libnewlib.a(memmove.c.o)
 .debug_info    0x00000000000388e5      0xb70 libnewlib.a(memset.c.o)
 .debug_info    0x0000000000039455      0x8bb libnewlib.a(strstr.c.o)
 .debug_info    0x0000000000039d10      0xb3f libnewlib.a(ctype_.c.o)
 .debug_info    0x000000000003a84f      0x88a libnewlib.a(impure.c.o)
 .debug_info    0x000000000003b0d9     0x17fd libcodal-core.a(CodalCompat.cpp.o)
 .debug_info    0x000000000003c8d6     0x203f libcodal-core.a(CodalComponent.cpp.o)
 .debug_info    0x000000000003e915     0x1a1c libcodal-core.a(CodalDevice.cpp.o)
 .debug_info    0x0000000000040331     0x1c68 libcodal-core.a(CodalDmesg.cpp.o)
 .debug_info    0x0000000000041f99     0x347b libcodal-core.a(CodalFiber.cpp.o)
 .debug_info    0x0000000000045414     0x1be8 libcodal-core.a(CodalHeapAllocator.cpp.o)
 .debug_info    0x0000000000046ffc     0x1b00 libcodal-core.a(CodalListener.cpp.o)
 .debug_info    0x0000000000048afc     0x29cd libcodal-core.a(Timer.cpp.o)
 .debug_info    0x000000000004b4c9     0x30cd libcodal-core.a(MessageBus.cpp.o)
 .debug_info    0x000000000004e596     0x1a95 libcodal-core.a(Event.cpp.o)
 .debug_info    0x000000000005002b     0x17b4 libcodal-core.a(MemberFunctionCallback.cpp.o)
 .debug_info    0x00000000000517df      0x2a4 liblibopencm3.a(vector.c.o)
 .debug_info    0x0000000000051a83     0x1cd6 libnano-float.a(functions.c.o)
 .debug_info    0x0000000000053759     0x1add liblogger.a(logger.cpp.o)
 .debug_info    0x0000000000055236     0x1139 libbluepill.a(bluepill.cpp.o)
 .debug_info    0x000000000005636f      0x393 libbluepill.a(led.cpp.o)
 .debug_info    0x0000000000056702      0xcd2 libbaseloader.a(baseloader.c.o)
 .debug_info    0x00000000000573d4     0x15c5 libbootloader.a(bootloader.c.o)
 .debug_info    0x0000000000058999     0x17d3 libbootloader.a(ghostfat.c.o)
 .debug_info    0x000000000005a16c     0x1eb0 libbootloader.a(usb_conf.c.o)
 .debug_info    0x000000000005c01c      0xfa6 libbootloader.a(webusb.c.o)
 .debug_info    0x000000000005cfc2     0x13d1 libbootloader.a(winusb.c.o)
 .debug_info    0x000000000005e393     0x141d libbootloader.a(target_stm32f103.c.o)
 .debug_info    0x000000000005f7b0     0x103c libbootloader.a(cdc.c.o)
 .debug_info    0x00000000000607ec     0x2439 libbootloader.a(hf2.c.o)
 .debug_info    0x0000000000062c25      0xf28 libbootloader.a(usb21_standard.c.o)
 .debug_info    0x0000000000063b4d      0x35e libbootloader.a(backup.c.o)
 .debug_info    0x0000000000063eab     0x2347 libhal.a(codal_target_hal.cpp.o)
 .debug_info    0x00000000000661f2       0x26 libhal.a(CortexContextSwitch.s.o)
 .debug_info    0x0000000000066218     0x1f2b libcm.a(CmI2C.cpp.o)
 .debug_info    0x0000000000068143     0x3234 libcm.a(CmPin.cpp.o)
 .debug_info    0x000000000006b377     0x26d6 libcm.a(CmSPI.cpp.o)
 .debug_info    0x000000000006da4d     0x1ca2 libcm.a(CmTimer.cpp.o)
 .debug_info    0x000000000006f6ef      0xfca libcm.a(application.cpp.o)
 .debug_info    0x00000000000706b9     0x1fec libcm.a(tasks.cpp.o)
 .debug_info    0x00000000000726a5     0x1cab libcm.a(CmPinMap.cpp.o)
 .debug_info    0x0000000000074350     0x3e2c libmodel.a(STM32BluePillIO.cpp.o)
 .debug_info    0x000000000007817c       0x26 libqfplib.a(qfplib.S.o)
 .debug_info    0x00000000000781a2      0x8db libnewlib.a(strncpy.c.o)
 .debug_info    0x0000000000078a7d     0x22ed libcodal-core.a(I2C.cpp.o)
 .debug_info    0x000000000007ad6a      0x8fd liblibopencm3.a(scb.c.o)
 .debug_info    0x000000000007b667      0x228 liblibopencm3.a(gpio_common_all.c.o)
 .debug_info    0x000000000007b88f      0x1a8 liblibopencm3.a(pwr_common_v1.c.o)
 .debug_info    0x000000000007ba37      0x5f1 liblibopencm3.a(rcc_common_all.c.o)
 .debug_info    0x000000000007c028      0x248 liblibopencm3.a(desig.c.o)
 .debug_info    0x000000000007c270      0x1d5 liblibopencm3.a(gpio.c.o)
 .debug_info    0x000000000007c445     0x18db liblibopencm3.a(rcc.c.o)
 .debug_info    0x000000000007dd20      0xcd9 liblibopencm3.a(st_usbfs_v1.c.o)
 .debug_info    0x000000000007e9f9     0x168c liblibopencm3.a(usb.c.o)
 .debug_info    0x0000000000080085     0x1893 liblibopencm3.a(usb_control.c.o)
 .debug_info    0x0000000000081918     0x1e02 liblibopencm3.a(usb_standard.c.o)
 .debug_info    0x000000000008371a       0xe8 liblibopencm3.a(flash_common_all.c.o)
 .debug_info    0x0000000000083802      0xf10 liblibopencm3.a(st_usbfs_core.c.o)
 .debug_info    0x0000000000084712       0xb4 libcocoos.a(os_cbk.c.o)
 .debug_info    0x00000000000847c6      0x288 libcocoos.a(os_kernel.c.o)
 .debug_info    0x0000000000084a4e      0x678 libcocoos.a(os_msgqueue.c.o)
 .debug_info    0x00000000000850c6      0x285 libcocoos.a(os_sem.c.o)
 .debug_info    0x000000000008534b     0x1786 libcocoos.a(os_task.c.o)
 .debug_info    0x0000000000086ad1      0x97b libcocoos.a(os_assert.c.o)
 .debug_info    0x000000000008744c      0x31d libcocoos.a(os_event.c.o)
 .debug_info    0x0000000000087769     0x1622 libbluepill.a(timer.cpp.o)
 .debug_info    0x0000000000088d8b      0x210 liblibopencm3.a(nvic.c.o)
 .debug_info    0x0000000000088f9b      0x203 liblibopencm3.a(exti_common_all.c.o)
 .debug_info    0x000000000008919e      0x861 liblibopencm3.a(rtc.c.o)

.debug_abbrev   0x0000000000000000    0x16775
 .debug_abbrev  0x0000000000000000      0x274 /Users/Luppy/stm32bluepill-makecode/pxt-maker/libs/stm32bluepill/built/codal/build/libraries/codal-libopencm3/CMakeFiles/hal.dir/stm32/hal/reset_handler.c.o
 .debug_abbrev  0x0000000000000274      0x4c6 CMakeFiles/STM32_BLUE_PILL.dir/pxtapp/base/advmath.cpp.o
 .debug_abbrev  0x000000000000073a      0x709 CMakeFiles/STM32_BLUE_PILL.dir/pxtapp/base/buffer.cpp.o
 .debug_abbrev  0x0000000000000e43      0x5b3 CMakeFiles/STM32_BLUE_PILL.dir/pxtapp/base/control.cpp.o
 .debug_abbrev  0x00000000000013f6      0xafb CMakeFiles/STM32_BLUE_PILL.dir/pxtapp/base/core.cpp.o
 .debug_abbrev  0x0000000000001ef1      0xa0d CMakeFiles/STM32_BLUE_PILL.dir/pxtapp/base/gc.cpp.o
 .debug_abbrev  0x00000000000028fe      0x495 CMakeFiles/STM32_BLUE_PILL.dir/pxtapp/base/loops.cpp.o
 .debug_abbrev  0x0000000000002d93      0xaf4 CMakeFiles/STM32_BLUE_PILL.dir/pxtapp/base/pxt.cpp.o
 .debug_abbrev  0x0000000000003887      0xa2c CMakeFiles/STM32_BLUE_PILL.dir/pxtapp/core---stm32bluepill/codal.cpp.o
 .debug_abbrev  0x00000000000042b3      0x5dd CMakeFiles/STM32_BLUE_PILL.dir/pxtapp/core---stm32bluepill/control.cpp.o
 .debug_abbrev  0x0000000000004890      0x623 CMakeFiles/STM32_BLUE_PILL.dir/pxtapp/core---stm32bluepill/i2c.cpp.o
 .debug_abbrev  0x0000000000004eb3      0x860 CMakeFiles/STM32_BLUE_PILL.dir/pxtapp/core---stm32bluepill/pins.cpp.o
 .debug_abbrev  0x0000000000005713      0x5c1 CMakeFiles/STM32_BLUE_PILL.dir/pxtapp/core---stm32bluepill/pinsAnalog.cpp.o
 .debug_abbrev  0x0000000000005cd4      0x662 CMakeFiles/STM32_BLUE_PILL.dir/pxtapp/core---stm32bluepill/pinsDigital.cpp.o
 .debug_abbrev  0x0000000000006336      0x5e2 CMakeFiles/STM32_BLUE_PILL.dir/pxtapp/core---stm32bluepill/pinsPWM.cpp.o
 .debug_abbrev  0x0000000000006918      0x51f CMakeFiles/STM32_BLUE_PILL.dir/pxtapp/core---stm32bluepill/platform.cpp.o
 .debug_abbrev  0x0000000000006e37      0x602 CMakeFiles/STM32_BLUE_PILL.dir/pxtapp/core---stm32bluepill/spi.cpp.o
 .debug_abbrev  0x0000000000007439      0x546 CMakeFiles/STM32_BLUE_PILL.dir/pxtapp/core---stm32bluepill/usb.cpp.o
 .debug_abbrev  0x000000000000797f      0x464 CMakeFiles/STM32_BLUE_PILL.dir/pxtapp/main.cpp.o
 .debug_abbrev  0x0000000000007de3      0x4e0 CMakeFiles/STM32_BLUE_PILL.dir/pxtapp/pointers.cpp.o
 .debug_abbrev  0x00000000000082c3      0x1ed libnewlib.a(memcpy-stub.c.o)
 .debug_abbrev  0x00000000000084b0       0x14 libnewlib.a(strcmp.S.o)
 .debug_abbrev  0x00000000000084c4       0x14 libnewlib.a(strlen.S.o)
 .debug_abbrev  0x00000000000084d8      0x29c libnewlib.a(strtol.c.o)
 .debug_abbrev  0x0000000000008774      0x1d9 libnewlib.a(memcmp.c.o)
 .debug_abbrev  0x000000000000894d      0x1d7 libnewlib.a(memmove.c.o)
 .debug_abbrev  0x0000000000008b24      0x1d2 libnewlib.a(memset.c.o)
 .debug_abbrev  0x0000000000008cf6      0x1df libnewlib.a(strstr.c.o)
 .debug_abbrev  0x0000000000008ed5      0x194 libnewlib.a(ctype_.c.o)
 .debug_abbrev  0x0000000000009069      0x1a3 libnewlib.a(impure.c.o)
 .debug_abbrev  0x000000000000920c      0x394 libcodal-core.a(CodalCompat.cpp.o)
 .debug_abbrev  0x00000000000095a0      0x5fa libcodal-core.a(CodalComponent.cpp.o)
 .debug_abbrev  0x0000000000009b9a      0x3de libcodal-core.a(CodalDevice.cpp.o)
 .debug_abbrev  0x0000000000009f78      0x4b7 libcodal-core.a(CodalDmesg.cpp.o)
 .debug_abbrev  0x000000000000a42f      0x82b libcodal-core.a(CodalFiber.cpp.o)
 .debug_abbrev  0x000000000000ac5a      0x4bf libcodal-core.a(CodalHeapAllocator.cpp.o)
 .debug_abbrev  0x000000000000b119      0x43c libcodal-core.a(CodalListener.cpp.o)
 .debug_abbrev  0x000000000000b555      0x6dd libcodal-core.a(Timer.cpp.o)
 .debug_abbrev  0x000000000000bc32      0x90e libcodal-core.a(MessageBus.cpp.o)
 .debug_abbrev  0x000000000000c540      0x469 libcodal-core.a(Event.cpp.o)
 .debug_abbrev  0x000000000000c9a9      0x356 libcodal-core.a(MemberFunctionCallback.cpp.o)
 .debug_abbrev  0x000000000000ccff      0x124 liblibopencm3.a(vector.c.o)
 .debug_abbrev  0x000000000000ce23      0x38f libnano-float.a(functions.c.o)
 .debug_abbrev  0x000000000000d1b2      0x5c6 liblogger.a(logger.cpp.o)
 .debug_abbrev  0x000000000000d778      0x354 libbluepill.a(bluepill.cpp.o)
 .debug_abbrev  0x000000000000dacc       0xdd libbluepill.a(led.cpp.o)
 .debug_abbrev  0x000000000000dba9      0x231 libbaseloader.a(baseloader.c.o)
 .debug_abbrev  0x000000000000ddda      0x369 libbootloader.a(bootloader.c.o)
 .debug_abbrev  0x000000000000e143      0x4ce libbootloader.a(ghostfat.c.o)
 .debug_abbrev  0x000000000000e611      0x47c libbootloader.a(usb_conf.c.o)
 .debug_abbrev  0x000000000000ea8d      0x313 libbootloader.a(webusb.c.o)
 .debug_abbrev  0x000000000000eda0      0x38f libbootloader.a(winusb.c.o)
 .debug_abbrev  0x000000000000f12f      0x3b3 libbootloader.a(target_stm32f103.c.o)
 .debug_abbrev  0x000000000000f4e2      0x36b libbootloader.a(cdc.c.o)
 .debug_abbrev  0x000000000000f84d      0x4ca libbootloader.a(hf2.c.o)
 .debug_abbrev  0x000000000000fd17      0x32b libbootloader.a(usb21_standard.c.o)
 .debug_abbrev  0x0000000000010042      0x126 libbootloader.a(backup.c.o)
 .debug_abbrev  0x0000000000010168      0x630 libhal.a(codal_target_hal.cpp.o)
 .debug_abbrev  0x0000000000010798       0x14 libhal.a(CortexContextSwitch.s.o)
 .debug_abbrev  0x00000000000107ac      0x4ef libcm.a(CmI2C.cpp.o)
 .debug_abbrev  0x0000000000010c9b      0x707 libcm.a(CmPin.cpp.o)
 .debug_abbrev  0x00000000000113a2      0x6bd libcm.a(CmSPI.cpp.o)
 .debug_abbrev  0x0000000000011a5f      0x5bd libcm.a(CmTimer.cpp.o)
 .debug_abbrev  0x000000000001201c      0x2f7 libcm.a(application.cpp.o)
 .debug_abbrev  0x0000000000012313      0x5a5 libcm.a(tasks.cpp.o)
 .debug_abbrev  0x00000000000128b8      0x368 libcm.a(CmPinMap.cpp.o)
 .debug_abbrev  0x0000000000012c20      0x3a9 libmodel.a(STM32BluePillIO.cpp.o)
 .debug_abbrev  0x0000000000012fc9       0x14 libqfplib.a(qfplib.S.o)
 .debug_abbrev  0x0000000000012fdd      0x1d9 libnewlib.a(strncpy.c.o)
 .debug_abbrev  0x00000000000131b6      0x5a6 libcodal-core.a(I2C.cpp.o)
 .debug_abbrev  0x000000000001375c      0x1d3 liblibopencm3.a(scb.c.o)
 .debug_abbrev  0x000000000001392f       0xf1 liblibopencm3.a(gpio_common_all.c.o)
 .debug_abbrev  0x0000000000013a20       0x92 liblibopencm3.a(pwr_common_v1.c.o)
 .debug_abbrev  0x0000000000013ab2      0x136 liblibopencm3.a(rcc_common_all.c.o)
 .debug_abbrev  0x0000000000013be8      0x120 liblibopencm3.a(desig.c.o)
 .debug_abbrev  0x0000000000013d08       0xb4 liblibopencm3.a(gpio.c.o)
 .debug_abbrev  0x0000000000013dbc      0x2ab liblibopencm3.a(rcc.c.o)
 .debug_abbrev  0x0000000000014067      0x22d liblibopencm3.a(st_usbfs_v1.c.o)
 .debug_abbrev  0x0000000000014294      0x32b liblibopencm3.a(usb.c.o)
 .debug_abbrev  0x00000000000145bf      0x46e liblibopencm3.a(usb_control.c.o)
 .debug_abbrev  0x0000000000014a2d      0x50c liblibopencm3.a(usb_standard.c.o)
 .debug_abbrev  0x0000000000014f39       0x87 liblibopencm3.a(flash_common_all.c.o)
 .debug_abbrev  0x0000000000014fc0      0x298 liblibopencm3.a(st_usbfs_core.c.o)
 .debug_abbrev  0x0000000000015258       0x60 libcocoos.a(os_cbk.c.o)
 .debug_abbrev  0x00000000000152b8      0x11a libcocoos.a(os_kernel.c.o)
 .debug_abbrev  0x00000000000153d2      0x256 libcocoos.a(os_msgqueue.c.o)
 .debug_abbrev  0x0000000000015628      0x16d libcocoos.a(os_sem.c.o)
 .debug_abbrev  0x0000000000015795      0x45b libcocoos.a(os_task.c.o)
 .debug_abbrev  0x0000000000015bf0      0x203 libcocoos.a(os_assert.c.o)
 .debug_abbrev  0x0000000000015df3      0x1b0 libcocoos.a(os_event.c.o)
 .debug_abbrev  0x0000000000015fa3      0x402 libbluepill.a(timer.cpp.o)
 .debug_abbrev  0x00000000000163a5       0xa3 liblibopencm3.a(nvic.c.o)
 .debug_abbrev  0x0000000000016448       0xe4 liblibopencm3.a(exti_common_all.c.o)
 .debug_abbrev  0x000000000001652c      0x249 liblibopencm3.a(rtc.c.o)

.debug_loc      0x0000000000000000    0x1a46b
 .debug_loc     0x0000000000000000      0x100 /Users/Luppy/stm32bluepill-makecode/pxt-maker/libs/stm32bluepill/built/codal/build/libraries/codal-libopencm3/CMakeFiles/hal.dir/stm32/hal/reset_handler.c.o
 .debug_loc     0x0000000000000100      0x108 CMakeFiles/STM32_BLUE_PILL.dir/pxtapp/base/advmath.cpp.o
 .debug_loc     0x0000000000000208     0x1d04 CMakeFiles/STM32_BLUE_PILL.dir/pxtapp/base/buffer.cpp.o
 .debug_loc     0x0000000000001f0c      0x18e CMakeFiles/STM32_BLUE_PILL.dir/pxtapp/base/control.cpp.o
 .debug_loc     0x000000000000209a     0x4044 CMakeFiles/STM32_BLUE_PILL.dir/pxtapp/base/core.cpp.o
 .debug_loc     0x00000000000060de     0x1711 CMakeFiles/STM32_BLUE_PILL.dir/pxtapp/base/gc.cpp.o
 .debug_loc     0x00000000000077ef       0x4d CMakeFiles/STM32_BLUE_PILL.dir/pxtapp/base/loops.cpp.o
 .debug_loc     0x000000000000783c     0x1348 CMakeFiles/STM32_BLUE_PILL.dir/pxtapp/base/pxt.cpp.o
 .debug_loc     0x0000000000008b84      0x809 CMakeFiles/STM32_BLUE_PILL.dir/pxtapp/core---stm32bluepill/codal.cpp.o
 .debug_loc     0x000000000000938d       0xca CMakeFiles/STM32_BLUE_PILL.dir/pxtapp/core---stm32bluepill/control.cpp.o
 .debug_loc     0x0000000000009457      0x186 CMakeFiles/STM32_BLUE_PILL.dir/pxtapp/core---stm32bluepill/i2c.cpp.o
 .debug_loc     0x00000000000095dd      0x28b CMakeFiles/STM32_BLUE_PILL.dir/pxtapp/core---stm32bluepill/pins.cpp.o
 .debug_loc     0x0000000000009868       0x63 CMakeFiles/STM32_BLUE_PILL.dir/pxtapp/core---stm32bluepill/pinsAnalog.cpp.o
 .debug_loc     0x00000000000098cb      0x353 CMakeFiles/STM32_BLUE_PILL.dir/pxtapp/core---stm32bluepill/pinsDigital.cpp.o
 .debug_loc     0x0000000000009c1e       0xc6 CMakeFiles/STM32_BLUE_PILL.dir/pxtapp/core---stm32bluepill/pinsPWM.cpp.o
 .debug_loc     0x0000000000009ce4       0x42 CMakeFiles/STM32_BLUE_PILL.dir/pxtapp/core---stm32bluepill/platform.cpp.o
 .debug_loc     0x0000000000009d26      0x160 CMakeFiles/STM32_BLUE_PILL.dir/pxtapp/core---stm32bluepill/spi.cpp.o
 .debug_loc     0x0000000000009e86       0xc3 CMakeFiles/STM32_BLUE_PILL.dir/pxtapp/core---stm32bluepill/usb.cpp.o
 .debug_loc     0x0000000000009f49       0x21 CMakeFiles/STM32_BLUE_PILL.dir/pxtapp/pointers.cpp.o
 .debug_loc     0x0000000000009f6a       0x92 libnewlib.a(memcpy-stub.c.o)
 .debug_loc     0x0000000000009ffc      0x3ec libnewlib.a(strtol.c.o)
 .debug_loc     0x000000000000a3e8       0x94 libnewlib.a(memcmp.c.o)
 .debug_loc     0x000000000000a47c       0xe4 libnewlib.a(memmove.c.o)
 .debug_loc     0x000000000000a560       0x3e libnewlib.a(memset.c.o)
 .debug_loc     0x000000000000a59e       0x3f libnewlib.a(strstr.c.o)
 .debug_loc     0x000000000000a5dd      0x24c libcodal-core.a(CodalCompat.cpp.o)
 .debug_loc     0x000000000000a829      0x2b6 libcodal-core.a(CodalComponent.cpp.o)
 .debug_loc     0x000000000000aadf      0x16b libcodal-core.a(CodalDevice.cpp.o)
 .debug_loc     0x000000000000ac4a      0x334 libcodal-core.a(CodalDmesg.cpp.o)
 .debug_loc     0x000000000000af7e     0x10aa libcodal-core.a(CodalFiber.cpp.o)
 .debug_loc     0x000000000000c028      0x4df libcodal-core.a(CodalHeapAllocator.cpp.o)
 .debug_loc     0x000000000000c507      0x1bb libcodal-core.a(CodalListener.cpp.o)
 .debug_loc     0x000000000000c6c2      0xd1d libcodal-core.a(Timer.cpp.o)
 .debug_loc     0x000000000000d3df      0xb49 libcodal-core.a(MessageBus.cpp.o)
 .debug_loc     0x000000000000df28      0x1e0 libcodal-core.a(Event.cpp.o)
 .debug_loc     0x000000000000e108       0xa3 libcodal-core.a(MemberFunctionCallback.cpp.o)
 .debug_loc     0x000000000000e1ab       0xd0 liblibopencm3.a(vector.c.o)
 .debug_loc     0x000000000000e27b      0xb53 libnano-float.a(functions.c.o)
 .debug_loc     0x000000000000edce      0x8fd liblogger.a(logger.cpp.o)
 .debug_loc     0x000000000000f6cb      0x18d libbluepill.a(bluepill.cpp.o)
 .debug_loc     0x000000000000f858       0x4d libbluepill.a(led.cpp.o)
 .debug_loc     0x000000000000f8a5      0x1fc libbaseloader.a(baseloader.c.o)
 .debug_loc     0x000000000000faa1       0x82 libbootloader.a(bootloader.c.o)
 .debug_loc     0x000000000000fb23      0x86b libbootloader.a(ghostfat.c.o)
 .debug_loc     0x000000000001038e      0x588 libbootloader.a(usb_conf.c.o)
 .debug_loc     0x0000000000010916      0x3ae libbootloader.a(webusb.c.o)
 .debug_loc     0x0000000000010cc4      0x444 libbootloader.a(winusb.c.o)
 .debug_loc     0x0000000000011108      0x1e2 libbootloader.a(target_stm32f103.c.o)
 .debug_loc     0x00000000000112ea      0x43c libbootloader.a(cdc.c.o)
 .debug_loc     0x0000000000011726      0xa60 libbootloader.a(hf2.c.o)
 .debug_loc     0x0000000000012186      0x4b3 libbootloader.a(usb21_standard.c.o)
 .debug_loc     0x0000000000012639       0x90 libbootloader.a(backup.c.o)
 .debug_loc     0x00000000000126c9      0x28d libhal.a(codal_target_hal.cpp.o)
 .debug_loc     0x0000000000012956       0xe0 libcm.a(CmI2C.cpp.o)
 .debug_loc     0x0000000000012a36      0x8aa libcm.a(CmPin.cpp.o)
 .debug_loc     0x00000000000132e0      0x6a3 libcm.a(CmSPI.cpp.o)
 .debug_loc     0x0000000000013983      0x184 libcm.a(CmTimer.cpp.o)
 .debug_loc     0x0000000000013b07       0xd0 libcm.a(application.cpp.o)
 .debug_loc     0x0000000000013bd7      0x121 libcm.a(tasks.cpp.o)
 .debug_loc     0x0000000000013cf8      0x222 libcm.a(CmPinMap.cpp.o)
 .debug_loc     0x0000000000013f1a       0x1e libmodel.a(STM32BluePillIO.cpp.o)
 .debug_loc     0x0000000000013f38       0xef libnewlib.a(strncpy.c.o)
 .debug_loc     0x0000000000014027      0x728 libcodal-core.a(I2C.cpp.o)
 .debug_loc     0x000000000001474f       0x21 liblibopencm3.a(scb.c.o)
 .debug_loc     0x0000000000014770       0x97 liblibopencm3.a(gpio_common_all.c.o)
 .debug_loc     0x0000000000014807       0x21 liblibopencm3.a(pwr_common_v1.c.o)
 .debug_loc     0x0000000000014828      0x108 liblibopencm3.a(rcc_common_all.c.o)
 .debug_loc     0x0000000000014930      0x1c8 liblibopencm3.a(desig.c.o)
 .debug_loc     0x0000000000014af8      0x19d liblibopencm3.a(gpio.c.o)
 .debug_loc     0x0000000000014c95      0xb72 liblibopencm3.a(rcc.c.o)
 .debug_loc     0x0000000000015807      0x189 liblibopencm3.a(st_usbfs_v1.c.o)
 .debug_loc     0x0000000000015990      0x4e8 liblibopencm3.a(usb.c.o)
 .debug_loc     0x0000000000015e78      0x71b liblibopencm3.a(usb_control.c.o)
 .debug_loc     0x0000000000016593     0x1a27 liblibopencm3.a(usb_standard.c.o)
 .debug_loc     0x0000000000017fba       0x3f liblibopencm3.a(flash_common_all.c.o)
 .debug_loc     0x0000000000017ff9      0x800 liblibopencm3.a(st_usbfs_core.c.o)
 .debug_loc     0x00000000000187f9       0x63 libcocoos.a(os_kernel.c.o)
 .debug_loc     0x000000000001885c      0x766 libcocoos.a(os_msgqueue.c.o)
 .debug_loc     0x0000000000018fc2      0x111 libcocoos.a(os_sem.c.o)
 .debug_loc     0x00000000000190d3      0xc1b libcocoos.a(os_task.c.o)
 .debug_loc     0x0000000000019cee       0x21 libcocoos.a(os_assert.c.o)
 .debug_loc     0x0000000000019d0f       0xfa libcocoos.a(os_event.c.o)
 .debug_loc     0x0000000000019e09       0xbe libbluepill.a(timer.cpp.o)
 .debug_loc     0x0000000000019ec7      0x142 liblibopencm3.a(nvic.c.o)
 .debug_loc     0x000000000001a009      0x210 liblibopencm3.a(exti_common_all.c.o)
 .debug_loc     0x000000000001a219      0x252 liblibopencm3.a(rtc.c.o)

.debug_aranges  0x0000000000000000     0x26b8
 .debug_aranges
                0x0000000000000000       0x20 /Users/Luppy/stm32bluepill-makecode/pxt-maker/libs/stm32bluepill/built/codal/build/libraries/codal-libopencm3/CMakeFiles/hal.dir/stm32/hal/reset_handler.c.o
 .debug_aranges
                0x0000000000000020       0x58 CMakeFiles/STM32_BLUE_PILL.dir/pxtapp/base/advmath.cpp.o
 .debug_aranges
                0x0000000000000078       0xa0 CMakeFiles/STM32_BLUE_PILL.dir/pxtapp/base/buffer.cpp.o
 .debug_aranges
                0x0000000000000118       0x78 CMakeFiles/STM32_BLUE_PILL.dir/pxtapp/base/control.cpp.o
 .debug_aranges
                0x0000000000000190      0x3b8 CMakeFiles/STM32_BLUE_PILL.dir/pxtapp/base/core.cpp.o
 .debug_aranges
                0x0000000000000548      0x130 CMakeFiles/STM32_BLUE_PILL.dir/pxtapp/base/gc.cpp.o
 .debug_aranges
                0x0000000000000678       0x28 CMakeFiles/STM32_BLUE_PILL.dir/pxtapp/base/loops.cpp.o
 .debug_aranges
                0x00000000000006a0      0x180 CMakeFiles/STM32_BLUE_PILL.dir/pxtapp/base/pxt.cpp.o
 .debug_aranges
                0x0000000000000820       0xc0 CMakeFiles/STM32_BLUE_PILL.dir/pxtapp/core---stm32bluepill/codal.cpp.o
 .debug_aranges
                0x00000000000008e0       0x40 CMakeFiles/STM32_BLUE_PILL.dir/pxtapp/core---stm32bluepill/control.cpp.o
 .debug_aranges
                0x0000000000000920       0x30 CMakeFiles/STM32_BLUE_PILL.dir/pxtapp/core---stm32bluepill/i2c.cpp.o
 .debug_aranges
                0x0000000000000950       0x68 CMakeFiles/STM32_BLUE_PILL.dir/pxtapp/core---stm32bluepill/pins.cpp.o
 .debug_aranges
                0x00000000000009b8       0x28 CMakeFiles/STM32_BLUE_PILL.dir/pxtapp/core---stm32bluepill/pinsAnalog.cpp.o
 .debug_aranges
                0x00000000000009e0       0x48 CMakeFiles/STM32_BLUE_PILL.dir/pxtapp/core---stm32bluepill/pinsDigital.cpp.o
 .debug_aranges
                0x0000000000000a28       0x30 CMakeFiles/STM32_BLUE_PILL.dir/pxtapp/core---stm32bluepill/pinsPWM.cpp.o
 .debug_aranges
                0x0000000000000a58       0x30 CMakeFiles/STM32_BLUE_PILL.dir/pxtapp/core---stm32bluepill/platform.cpp.o
 .debug_aranges
                0x0000000000000a88       0x40 CMakeFiles/STM32_BLUE_PILL.dir/pxtapp/core---stm32bluepill/spi.cpp.o
 .debug_aranges
                0x0000000000000ac8       0x38 CMakeFiles/STM32_BLUE_PILL.dir/pxtapp/core---stm32bluepill/usb.cpp.o
 .debug_aranges
                0x0000000000000b00       0x20 CMakeFiles/STM32_BLUE_PILL.dir/pxtapp/main.cpp.o
 .debug_aranges
                0x0000000000000b20       0x48 CMakeFiles/STM32_BLUE_PILL.dir/pxtapp/pointers.cpp.o
 .debug_aranges
                0x0000000000000b68       0x20 libnewlib.a(memcpy-stub.c.o)
 .debug_aranges
                0x0000000000000b88       0x20 libnewlib.a(strcmp.S.o)
 .debug_aranges
                0x0000000000000ba8       0x20 libnewlib.a(strlen.S.o)
 .debug_aranges
                0x0000000000000bc8       0x38 libnewlib.a(strtol.c.o)
 .debug_aranges
                0x0000000000000c00       0x20 libnewlib.a(memcmp.c.o)
 .debug_aranges
                0x0000000000000c20       0x20 libnewlib.a(memmove.c.o)
 .debug_aranges
                0x0000000000000c40       0x20 libnewlib.a(memset.c.o)
 .debug_aranges
                0x0000000000000c60       0x20 libnewlib.a(strstr.c.o)
 .debug_aranges
                0x0000000000000c80       0x18 libnewlib.a(ctype_.c.o)
 .debug_aranges
                0x0000000000000c98       0x18 libnewlib.a(impure.c.o)
 .debug_aranges
                0x0000000000000cb0       0x38 libcodal-core.a(CodalCompat.cpp.o)
 .debug_aranges
                0x0000000000000ce8       0x48 libcodal-core.a(CodalComponent.cpp.o)
 .debug_aranges
                0x0000000000000d30       0x50 libcodal-core.a(CodalDevice.cpp.o)
 .debug_aranges
                0x0000000000000d80       0x50 libcodal-core.a(CodalDmesg.cpp.o)
 .debug_aranges
                0x0000000000000dd0      0x110 libcodal-core.a(CodalFiber.cpp.o)
 .debug_aranges
                0x0000000000000ee0       0x60 libcodal-core.a(CodalHeapAllocator.cpp.o)
 .debug_aranges
                0x0000000000000f40       0x38 libcodal-core.a(CodalListener.cpp.o)
 .debug_aranges
                0x0000000000000f78       0xe0 libcodal-core.a(Timer.cpp.o)
 .debug_aranges
                0x0000000000001058       0xe0 libcodal-core.a(MessageBus.cpp.o)
 .debug_aranges
                0x0000000000001138       0x50 libcodal-core.a(Event.cpp.o)
 .debug_aranges
                0x0000000000001188       0x28 libcodal-core.a(MemberFunctionCallback.cpp.o)
 .debug_aranges
                0x00000000000011b0       0x30 liblibopencm3.a(vector.c.o)
 .debug_aranges
                0x00000000000011e0      0x188 libnano-float.a(functions.c.o)
 .debug_aranges
                0x0000000000001368       0xf0 liblogger.a(logger.cpp.o)
 .debug_aranges
                0x0000000000001458       0x58 libbluepill.a(bluepill.cpp.o)
 .debug_aranges
                0x00000000000014b0       0x40 libbluepill.a(led.cpp.o)
 .debug_aranges
                0x00000000000014f0       0x28 libbaseloader.a(baseloader.c.o)
 .debug_aranges
                0x0000000000001518       0x48 libbootloader.a(bootloader.c.o)
 .debug_aranges
                0x0000000000001560       0x48 libbootloader.a(ghostfat.c.o)
 .debug_aranges
                0x00000000000015a8       0x90 libbootloader.a(usb_conf.c.o)
 .debug_aranges
                0x0000000000001638       0x30 libbootloader.a(webusb.c.o)
 .debug_aranges
                0x0000000000001668       0x38 libbootloader.a(winusb.c.o)
 .debug_aranges
                0x00000000000016a0       0x70 libbootloader.a(target_stm32f103.c.o)
 .debug_aranges
                0x0000000000001710       0x48 libbootloader.a(cdc.c.o)
 .debug_aranges
                0x0000000000001758       0x50 libbootloader.a(hf2.c.o)
 .debug_aranges
                0x00000000000017a8       0x30 libbootloader.a(usb21_standard.c.o)
 .debug_aranges
                0x00000000000017d8       0x28 libbootloader.a(backup.c.o)
 .debug_aranges
                0x0000000000001800      0x140 libhal.a(codal_target_hal.cpp.o)
 .debug_aranges
                0x0000000000001940       0x20 libhal.a(CortexContextSwitch.s.o)
 .debug_aranges
                0x0000000000001960       0x40 libcm.a(CmI2C.cpp.o)
 .debug_aranges
                0x00000000000019a0      0x110 libcm.a(CmPin.cpp.o)
 .debug_aranges
                0x0000000000001ab0       0x90 libcm.a(CmSPI.cpp.o)
 .debug_aranges
                0x0000000000001b40       0x58 libcm.a(CmTimer.cpp.o)
 .debug_aranges
                0x0000000000001b98       0x20 libcm.a(application.cpp.o)
 .debug_aranges
                0x0000000000001bb8       0x50 libcm.a(tasks.cpp.o)
 .debug_aranges
                0x0000000000001c08       0x30 libcm.a(CmPinMap.cpp.o)
 .debug_aranges
                0x0000000000001c38       0x20 libmodel.a(STM32BluePillIO.cpp.o)
 .debug_aranges
                0x0000000000001c58       0x20 libqfplib.a(qfplib.S.o)
 .debug_aranges
                0x0000000000001c78       0x20 libnewlib.a(strncpy.c.o)
 .debug_aranges
                0x0000000000001c98       0x60 libcodal-core.a(I2C.cpp.o)
 .debug_aranges
                0x0000000000001cf8       0x30 liblibopencm3.a(scb.c.o)
 .debug_aranges
                0x0000000000001d28       0x50 liblibopencm3.a(gpio_common_all.c.o)
 .debug_aranges
                0x0000000000001d78       0x90 liblibopencm3.a(pwr_common_v1.c.o)
 .debug_aranges
                0x0000000000001e08       0x68 liblibopencm3.a(rcc_common_all.c.o)
 .debug_aranges
                0x0000000000001e70       0x38 liblibopencm3.a(desig.c.o)
 .debug_aranges
                0x0000000000001ea8       0x38 liblibopencm3.a(gpio.c.o)
 .debug_aranges
                0x0000000000001ee0      0x160 liblibopencm3.a(rcc.c.o)
 .debug_aranges
                0x0000000000002040       0x30 liblibopencm3.a(st_usbfs_v1.c.o)
 .debug_aranges
                0x0000000000002070       0x88 liblibopencm3.a(usb.c.o)
 .debug_aranges
                0x00000000000020f8       0x58 liblibopencm3.a(usb_control.c.o)
 .debug_aranges
                0x0000000000002150       0x98 liblibopencm3.a(usb_standard.c.o)
 .debug_aranges
                0x00000000000021e8       0x38 liblibopencm3.a(flash_common_all.c.o)
 .debug_aranges
                0x0000000000002220       0x68 liblibopencm3.a(st_usbfs_core.c.o)
 .debug_aranges
                0x0000000000002288       0x20 libcocoos.a(os_cbk.c.o)
 .debug_aranges
                0x00000000000022a8       0x50 libcocoos.a(os_kernel.c.o)
 .debug_aranges
                0x00000000000022f8       0x50 libcocoos.a(os_msgqueue.c.o)
 .debug_aranges
                0x0000000000002348       0x48 libcocoos.a(os_sem.c.o)
 .debug_aranges
                0x0000000000002390      0x110 libcocoos.a(os_task.c.o)
 .debug_aranges
                0x00000000000024a0       0x20 libcocoos.a(os_assert.c.o)
 .debug_aranges
                0x00000000000024c0       0x58 libcocoos.a(os_event.c.o)
 .debug_aranges
                0x0000000000002518       0x58 libbluepill.a(timer.cpp.o)
 .debug_aranges
                0x0000000000002570       0x60 liblibopencm3.a(nvic.c.o)
 .debug_aranges
                0x00000000000025d0       0x48 liblibopencm3.a(exti_common_all.c.o)
 .debug_aranges
                0x0000000000002618       0xa0 liblibopencm3.a(rtc.c.o)

.debug_ranges   0x0000000000000000     0x4b30
 .debug_ranges  0x0000000000000000       0x28 /Users/Luppy/stm32bluepill-makecode/pxt-maker/libs/stm32bluepill/built/codal/build/libraries/codal-libopencm3/CMakeFiles/hal.dir/stm32/hal/reset_handler.c.o
 .debug_ranges  0x0000000000000028       0x48 CMakeFiles/STM32_BLUE_PILL.dir/pxtapp/base/advmath.cpp.o
 .debug_ranges  0x0000000000000070      0x178 CMakeFiles/STM32_BLUE_PILL.dir/pxtapp/base/buffer.cpp.o
 .debug_ranges  0x00000000000001e8       0x68 CMakeFiles/STM32_BLUE_PILL.dir/pxtapp/base/control.cpp.o
 .debug_ranges  0x0000000000000250      0x988 CMakeFiles/STM32_BLUE_PILL.dir/pxtapp/base/core.cpp.o
 .debug_ranges  0x0000000000000bd8      0x610 CMakeFiles/STM32_BLUE_PILL.dir/pxtapp/base/gc.cpp.o
 .debug_ranges  0x00000000000011e8       0x18 CMakeFiles/STM32_BLUE_PILL.dir/pxtapp/base/loops.cpp.o
 .debug_ranges  0x0000000000001200      0x3d8 CMakeFiles/STM32_BLUE_PILL.dir/pxtapp/base/pxt.cpp.o
 .debug_ranges  0x00000000000015d8      0x210 CMakeFiles/STM32_BLUE_PILL.dir/pxtapp/core---stm32bluepill/codal.cpp.o
 .debug_ranges  0x00000000000017e8       0x30 CMakeFiles/STM32_BLUE_PILL.dir/pxtapp/core---stm32bluepill/control.cpp.o
 .debug_ranges  0x0000000000001818       0x70 CMakeFiles/STM32_BLUE_PILL.dir/pxtapp/core---stm32bluepill/i2c.cpp.o
 .debug_ranges  0x0000000000001888       0x80 CMakeFiles/STM32_BLUE_PILL.dir/pxtapp/core---stm32bluepill/pins.cpp.o
 .debug_ranges  0x0000000000001908       0x18 CMakeFiles/STM32_BLUE_PILL.dir/pxtapp/core---stm32bluepill/pinsAnalog.cpp.o
 .debug_ranges  0x0000000000001920       0x38 CMakeFiles/STM32_BLUE_PILL.dir/pxtapp/core---stm32bluepill/pinsDigital.cpp.o
 .debug_ranges  0x0000000000001958       0x20 CMakeFiles/STM32_BLUE_PILL.dir/pxtapp/core---stm32bluepill/pinsPWM.cpp.o
 .debug_ranges  0x0000000000001978       0x20 CMakeFiles/STM32_BLUE_PILL.dir/pxtapp/core---stm32bluepill/platform.cpp.o
 .debug_ranges  0x0000000000001998       0xd0 CMakeFiles/STM32_BLUE_PILL.dir/pxtapp/core---stm32bluepill/spi.cpp.o
 .debug_ranges  0x0000000000001a68       0x58 CMakeFiles/STM32_BLUE_PILL.dir/pxtapp/core---stm32bluepill/usb.cpp.o
 .debug_ranges  0x0000000000001ac0       0x10 CMakeFiles/STM32_BLUE_PILL.dir/pxtapp/main.cpp.o
 .debug_ranges  0x0000000000001ad0       0x38 CMakeFiles/STM32_BLUE_PILL.dir/pxtapp/pointers.cpp.o
 .debug_ranges  0x0000000000001b08       0x10 libnewlib.a(memcpy-stub.c.o)
 .debug_ranges  0x0000000000001b18       0x28 libnewlib.a(strtol.c.o)
 .debug_ranges  0x0000000000001b40       0x10 libnewlib.a(memcmp.c.o)
 .debug_ranges  0x0000000000001b50       0x10 libnewlib.a(memmove.c.o)
 .debug_ranges  0x0000000000001b60       0x10 libnewlib.a(memset.c.o)
 .debug_ranges  0x0000000000001b70       0x10 libnewlib.a(strstr.c.o)
 .debug_ranges  0x0000000000001b80       0x58 libcodal-core.a(CodalCompat.cpp.o)
 .debug_ranges  0x0000000000001bd8       0x98 libcodal-core.a(CodalComponent.cpp.o)
 .debug_ranges  0x0000000000001c70       0x40 libcodal-core.a(CodalDevice.cpp.o)
 .debug_ranges  0x0000000000001cb0       0xf8 libcodal-core.a(CodalDmesg.cpp.o)
 .debug_ranges  0x0000000000001da8      0x338 libcodal-core.a(CodalFiber.cpp.o)
 .debug_ranges  0x00000000000020e0       0x70 libcodal-core.a(CodalHeapAllocator.cpp.o)
 .debug_ranges  0x0000000000002150       0x28 libcodal-core.a(CodalListener.cpp.o)
 .debug_ranges  0x0000000000002178      0x258 libcodal-core.a(Timer.cpp.o)
 .debug_ranges  0x00000000000023d0      0x1e0 libcodal-core.a(MessageBus.cpp.o)
 .debug_ranges  0x00000000000025b0       0x88 libcodal-core.a(Event.cpp.o)
 .debug_ranges  0x0000000000002638       0x18 libcodal-core.a(MemberFunctionCallback.cpp.o)
 .debug_ranges  0x0000000000002650       0x20 liblibopencm3.a(vector.c.o)
 .debug_ranges  0x0000000000002670      0x178 libnano-float.a(functions.c.o)
 .debug_ranges  0x00000000000027e8      0x258 liblogger.a(logger.cpp.o)
 .debug_ranges  0x0000000000002a40       0x48 libbluepill.a(bluepill.cpp.o)
 .debug_ranges  0x0000000000002a88       0x30 libbluepill.a(led.cpp.o)
 .debug_ranges  0x0000000000002ab8       0x18 libbaseloader.a(baseloader.c.o)
 .debug_ranges  0x0000000000002ad0       0x38 libbootloader.a(bootloader.c.o)
 .debug_ranges  0x0000000000002b08      0x120 libbootloader.a(ghostfat.c.o)
 .debug_ranges  0x0000000000002c28       0x98 libbootloader.a(usb_conf.c.o)
 .debug_ranges  0x0000000000002cc0       0x80 libbootloader.a(webusb.c.o)
 .debug_ranges  0x0000000000002d40       0x70 libbootloader.a(winusb.c.o)
 .debug_ranges  0x0000000000002db0       0x60 libbootloader.a(target_stm32f103.c.o)
 .debug_ranges  0x0000000000002e10       0x50 libbootloader.a(cdc.c.o)
 .debug_ranges  0x0000000000002e60      0x2b8 libbootloader.a(hf2.c.o)
 .debug_ranges  0x0000000000003118       0xd0 libbootloader.a(usb21_standard.c.o)
 .debug_ranges  0x00000000000031e8       0x18 libbootloader.a(backup.c.o)
 .debug_ranges  0x0000000000003200      0x170 libhal.a(codal_target_hal.cpp.o)
 .debug_ranges  0x0000000000003370       0x30 libcm.a(CmI2C.cpp.o)
 .debug_ranges  0x00000000000033a0      0x1a0 libcm.a(CmPin.cpp.o)
 .debug_ranges  0x0000000000003540       0xf0 libcm.a(CmSPI.cpp.o)
 .debug_ranges  0x0000000000003630       0x80 libcm.a(CmTimer.cpp.o)
 .debug_ranges  0x00000000000036b0       0x10 libcm.a(application.cpp.o)
 .debug_ranges  0x00000000000036c0       0x78 libcm.a(tasks.cpp.o)
 .debug_ranges  0x0000000000003738       0x20 libcm.a(CmPinMap.cpp.o)
 .debug_ranges  0x0000000000003758       0x10 libmodel.a(STM32BluePillIO.cpp.o)
 .debug_ranges  0x0000000000003768       0x10 libnewlib.a(strncpy.c.o)
 .debug_ranges  0x0000000000003778       0x90 libcodal-core.a(I2C.cpp.o)
 .debug_ranges  0x0000000000003808       0x20 liblibopencm3.a(scb.c.o)
 .debug_ranges  0x0000000000003828       0x40 liblibopencm3.a(gpio_common_all.c.o)
 .debug_ranges  0x0000000000003868       0x80 liblibopencm3.a(pwr_common_v1.c.o)
 .debug_ranges  0x00000000000038e8       0x58 liblibopencm3.a(rcc_common_all.c.o)
 .debug_ranges  0x0000000000003940       0x50 liblibopencm3.a(desig.c.o)
 .debug_ranges  0x0000000000003990       0x28 liblibopencm3.a(gpio.c.o)
 .debug_ranges  0x00000000000039b8      0x758 liblibopencm3.a(rcc.c.o)
 .debug_ranges  0x0000000000004110       0x20 liblibopencm3.a(st_usbfs_v1.c.o)
 .debug_ranges  0x0000000000004130       0x90 liblibopencm3.a(usb.c.o)
 .debug_ranges  0x00000000000041c0       0xa0 liblibopencm3.a(usb_control.c.o)
 .debug_ranges  0x0000000000004260      0x108 liblibopencm3.a(usb_standard.c.o)
 .debug_ranges  0x0000000000004368       0x28 liblibopencm3.a(flash_common_all.c.o)
 .debug_ranges  0x0000000000004390      0x150 liblibopencm3.a(st_usbfs_core.c.o)
 .debug_ranges  0x00000000000044e0       0x10 libcocoos.a(os_cbk.c.o)
 .debug_ranges  0x00000000000044f0       0x58 libcocoos.a(os_kernel.c.o)
 .debug_ranges  0x0000000000004548       0x78 libcocoos.a(os_msgqueue.c.o)
 .debug_ranges  0x00000000000045c0       0x78 libcocoos.a(os_sem.c.o)
 .debug_ranges  0x0000000000004638      0x210 libcocoos.a(os_task.c.o)
 .debug_ranges  0x0000000000004848       0x10 libcocoos.a(os_assert.c.o)
 .debug_ranges  0x0000000000004858       0x48 libcocoos.a(os_event.c.o)
 .debug_ranges  0x00000000000048a0       0x48 libbluepill.a(timer.cpp.o)
 .debug_ranges  0x00000000000048e8       0x50 liblibopencm3.a(nvic.c.o)
 .debug_ranges  0x0000000000004938       0x58 liblibopencm3.a(exti_common_all.c.o)
 .debug_ranges  0x0000000000004990      0x1a0 liblibopencm3.a(rtc.c.o)

.debug_line     0x0000000000000000    0x206f7
 .debug_line    0x0000000000000000      0x459 /Users/Luppy/stm32bluepill-makecode/pxt-maker/libs/stm32bluepill/built/codal/build/libraries/codal-libopencm3/CMakeFiles/hal.dir/stm32/hal/reset_handler.c.o
 .debug_line    0x0000000000000459      0x685 CMakeFiles/STM32_BLUE_PILL.dir/pxtapp/base/advmath.cpp.o
 .debug_line    0x0000000000000ade      0x91e CMakeFiles/STM32_BLUE_PILL.dir/pxtapp/base/buffer.cpp.o
 .debug_line    0x00000000000013fc      0x757 CMakeFiles/STM32_BLUE_PILL.dir/pxtapp/base/control.cpp.o
 .debug_line    0x0000000000001b53     0x171d CMakeFiles/STM32_BLUE_PILL.dir/pxtapp/base/core.cpp.o
 .debug_line    0x0000000000003270      0xc8a CMakeFiles/STM32_BLUE_PILL.dir/pxtapp/base/gc.cpp.o
 .debug_line    0x0000000000003efa      0x625 CMakeFiles/STM32_BLUE_PILL.dir/pxtapp/base/loops.cpp.o
 .debug_line    0x000000000000451f      0xbd5 CMakeFiles/STM32_BLUE_PILL.dir/pxtapp/base/pxt.cpp.o
 .debug_line    0x00000000000050f4      0xadf CMakeFiles/STM32_BLUE_PILL.dir/pxtapp/core---stm32bluepill/codal.cpp.o
 .debug_line    0x0000000000005bd3      0x78a CMakeFiles/STM32_BLUE_PILL.dir/pxtapp/core---stm32bluepill/control.cpp.o
 .debug_line    0x000000000000635d      0x713 CMakeFiles/STM32_BLUE_PILL.dir/pxtapp/core---stm32bluepill/i2c.cpp.o
 .debug_line    0x0000000000006a70      0x84c CMakeFiles/STM32_BLUE_PILL.dir/pxtapp/core---stm32bluepill/pins.cpp.o
 .debug_line    0x00000000000072bc      0x76d CMakeFiles/STM32_BLUE_PILL.dir/pxtapp/core---stm32bluepill/pinsAnalog.cpp.o
 .debug_line    0x0000000000007a29      0x7da CMakeFiles/STM32_BLUE_PILL.dir/pxtapp/core---stm32bluepill/pinsDigital.cpp.o
 .debug_line    0x0000000000008203      0x77e CMakeFiles/STM32_BLUE_PILL.dir/pxtapp/core---stm32bluepill/pinsPWM.cpp.o
 .debug_line    0x0000000000008981      0x6ea CMakeFiles/STM32_BLUE_PILL.dir/pxtapp/core---stm32bluepill/platform.cpp.o
 .debug_line    0x000000000000906b      0x777 CMakeFiles/STM32_BLUE_PILL.dir/pxtapp/core---stm32bluepill/spi.cpp.o
 .debug_line    0x00000000000097e2      0x6fa CMakeFiles/STM32_BLUE_PILL.dir/pxtapp/core---stm32bluepill/usb.cpp.o
 .debug_line    0x0000000000009edc      0x649 CMakeFiles/STM32_BLUE_PILL.dir/pxtapp/main.cpp.o
 .debug_line    0x000000000000a525      0x6a6 CMakeFiles/STM32_BLUE_PILL.dir/pxtapp/pointers.cpp.o
 .debug_line    0x000000000000abcb      0x16f libnewlib.a(memcpy-stub.c.o)
 .debug_line    0x000000000000ad3a       0x63 libnewlib.a(strcmp.S.o)
 .debug_line    0x000000000000ad9d       0x63 libnewlib.a(strlen.S.o)
 .debug_line    0x000000000000ae00      0x1e9 libnewlib.a(strtol.c.o)
 .debug_line    0x000000000000afe9       0xff libnewlib.a(memcmp.c.o)
 .debug_line    0x000000000000b0e8      0x168 libnewlib.a(memmove.c.o)
 .debug_line    0x000000000000b250      0x155 libnewlib.a(memset.c.o)
 .debug_line    0x000000000000b3a5      0x112 libnewlib.a(strstr.c.o)
 .debug_line    0x000000000000b4b7      0x140 libnewlib.a(ctype_.c.o)
 .debug_line    0x000000000000b5f7       0xe4 libnewlib.a(impure.c.o)
 .debug_line    0x000000000000b6db      0x4fb libcodal-core.a(CodalCompat.cpp.o)
 .debug_line    0x000000000000bbd6      0x687 libcodal-core.a(CodalComponent.cpp.o)
 .debug_line    0x000000000000c25d      0x520 libcodal-core.a(CodalDevice.cpp.o)
 .debug_line    0x000000000000c77d      0x5c2 libcodal-core.a(CodalDmesg.cpp.o)
 .debug_line    0x000000000000cd3f      0xb15 libcodal-core.a(CodalFiber.cpp.o)
 .debug_line    0x000000000000d854      0x60c libcodal-core.a(CodalHeapAllocator.cpp.o)
 .debug_line    0x000000000000de60      0x4f6 libcodal-core.a(CodalListener.cpp.o)
 .debug_line    0x000000000000e356      0x8e6 libcodal-core.a(Timer.cpp.o)
 .debug_line    0x000000000000ec3c      0x9d9 libcodal-core.a(MessageBus.cpp.o)
 .debug_line    0x000000000000f615      0x5b4 libcodal-core.a(Event.cpp.o)
 .debug_line    0x000000000000fbc9      0x4ac libcodal-core.a(MemberFunctionCallback.cpp.o)
 .debug_line    0x0000000000010075      0x318 liblibopencm3.a(vector.c.o)
 .debug_line    0x000000000001038d      0x817 libnano-float.a(functions.c.o)
 .debug_line    0x0000000000010ba4      0x64a liblogger.a(logger.cpp.o)
 .debug_line    0x00000000000111ee      0x519 libbluepill.a(bluepill.cpp.o)
 .debug_line    0x0000000000011707      0x32b libbluepill.a(led.cpp.o)
 .debug_line    0x0000000000011a32      0x5b6 libbaseloader.a(baseloader.c.o)
 .debug_line    0x0000000000011fe8      0x6d3 libbootloader.a(bootloader.c.o)
 .debug_line    0x00000000000126bb      0x604 libbootloader.a(ghostfat.c.o)
 .debug_line    0x0000000000012cbf      0x73e libbootloader.a(usb_conf.c.o)
 .debug_line    0x00000000000133fd      0x452 libbootloader.a(webusb.c.o)
 .debug_line    0x000000000001384f      0x463 libbootloader.a(winusb.c.o)
 .debug_line    0x0000000000013cb2      0x86d libbootloader.a(target_stm32f103.c.o)
 .debug_line    0x000000000001451f      0x470 libbootloader.a(cdc.c.o)
 .debug_line    0x000000000001498f      0x915 libbootloader.a(hf2.c.o)
 .debug_line    0x00000000000152a4      0x458 libbootloader.a(usb21_standard.c.o)
 .debug_line    0x00000000000156fc      0x30a libbootloader.a(backup.c.o)
 .debug_line    0x0000000000015a06      0xbe4 libhal.a(codal_target_hal.cpp.o)
 .debug_line    0x00000000000165ea      0x148 libhal.a(CortexContextSwitch.s.o)
 .debug_line    0x0000000000016732      0x51e libcm.a(CmI2C.cpp.o)
 .debug_line    0x0000000000016c50      0xa6a libcm.a(CmPin.cpp.o)
 .debug_line    0x00000000000176ba      0x87d libcm.a(CmSPI.cpp.o)
 .debug_line    0x0000000000017f37      0x9d8 libcm.a(CmTimer.cpp.o)
 .debug_line    0x000000000001890f      0x41e libcm.a(application.cpp.o)
 .debug_line    0x0000000000018d2d      0x6c2 libcm.a(tasks.cpp.o)
 .debug_line    0x00000000000193ef      0x63a libcm.a(CmPinMap.cpp.o)
 .debug_line    0x0000000000019a29      0x61d libmodel.a(STM32BluePillIO.cpp.o)
 .debug_line    0x000000000001a046      0x2a3 libqfplib.a(qfplib.S.o)
 .debug_line    0x000000000001a2e9      0x103 libnewlib.a(strncpy.c.o)
 .debug_line    0x000000000001a3ec      0x57c libcodal-core.a(I2C.cpp.o)
 .debug_line    0x000000000001a968      0x286 liblibopencm3.a(scb.c.o)
 .debug_line    0x000000000001abee      0x20a liblibopencm3.a(gpio_common_all.c.o)
 .debug_line    0x000000000001adf8      0x28f liblibopencm3.a(pwr_common_v1.c.o)
 .debug_line    0x000000000001b087      0x2dd liblibopencm3.a(rcc_common_all.c.o)
 .debug_line    0x000000000001b364      0x245 liblibopencm3.a(desig.c.o)
 .debug_line    0x000000000001b5a9      0x219 liblibopencm3.a(gpio.c.o)
 .debug_line    0x000000000001b7c2      0x985 liblibopencm3.a(rcc.c.o)
 .debug_line    0x000000000001c147      0x4f9 liblibopencm3.a(st_usbfs_v1.c.o)
 .debug_line    0x000000000001c640      0x3d5 liblibopencm3.a(usb.c.o)
 .debug_line    0x000000000001ca15      0x4b1 liblibopencm3.a(usb_control.c.o)
 .debug_line    0x000000000001cec6      0x63e liblibopencm3.a(usb_standard.c.o)
 .debug_line    0x000000000001d504      0x1d0 liblibopencm3.a(flash_common_all.c.o)
 .debug_line    0x000000000001d6d4      0x538 liblibopencm3.a(st_usbfs_core.c.o)
 .debug_line    0x000000000001dc0c      0x20a libcocoos.a(os_cbk.c.o)
 .debug_line    0x000000000001de16      0x2f9 libcocoos.a(os_kernel.c.o)
 .debug_line    0x000000000001e10f      0x368 libcocoos.a(os_msgqueue.c.o)
 .debug_line    0x000000000001e477      0x2ac libcocoos.a(os_sem.c.o)
 .debug_line    0x000000000001e723      0x7b5 libcocoos.a(os_task.c.o)
 .debug_line    0x000000000001eed8      0x375 libcocoos.a(os_assert.c.o)
 .debug_line    0x000000000001f24d      0x35a libcocoos.a(os_event.c.o)
 .debug_line    0x000000000001f5a7      0x70b libbluepill.a(timer.cpp.o)
 .debug_line    0x000000000001fcb2      0x215 liblibopencm3.a(nvic.c.o)
 .debug_line    0x000000000001fec7      0x2de liblibopencm3.a(exti_common_all.c.o)
 .debug_line    0x00000000000201a5      0x552 liblibopencm3.a(rtc.c.o)

.debug_str      0x0000000000000000    0x110a6
 .debug_str     0x0000000000000000      0x773 /Users/Luppy/stm32bluepill-makecode/pxt-maker/libs/stm32bluepill/built/codal/build/libraries/codal-libopencm3/CMakeFiles/hal.dir/stm32/hal/reset_handler.c.o
                                        0x84c (size before relaxing)
 .debug_str     0x0000000000000773      0xc85 CMakeFiles/STM32_BLUE_PILL.dir/pxtapp/base/advmath.cpp.o
                                       0x11f5 (size before relaxing)
 .debug_str     0x00000000000013f8      0x773 CMakeFiles/STM32_BLUE_PILL.dir/pxtapp/base/buffer.cpp.o
                                       0x1878 (size before relaxing)
 .debug_str     0x0000000000001b6b      0x662 CMakeFiles/STM32_BLUE_PILL.dir/pxtapp/base/control.cpp.o
                                       0x17a0 (size before relaxing)
 .debug_str     0x00000000000021cd     0x1c69 CMakeFiles/STM32_BLUE_PILL.dir/pxtapp/base/core.cpp.o
                                       0x32e0 (size before relaxing)
 .debug_str     0x0000000000003e36      0xbfc CMakeFiles/STM32_BLUE_PILL.dir/pxtapp/base/gc.cpp.o
                                       0x26ee (size before relaxing)
 .debug_str     0x0000000000004a32      0x100 CMakeFiles/STM32_BLUE_PILL.dir/pxtapp/base/loops.cpp.o
                                       0x1110 (size before relaxing)
 .debug_str     0x0000000000004b32      0x474 CMakeFiles/STM32_BLUE_PILL.dir/pxtapp/base/pxt.cpp.o
                                       0x2226 (size before relaxing)
 .debug_str     0x0000000000004fa6     0x1721 CMakeFiles/STM32_BLUE_PILL.dir/pxtapp/core---stm32bluepill/codal.cpp.o
                                       0x2d6a (size before relaxing)
 .debug_str     0x00000000000066c7      0x188 CMakeFiles/STM32_BLUE_PILL.dir/pxtapp/core---stm32bluepill/control.cpp.o
                                       0x14d2 (size before relaxing)
 .debug_str     0x000000000000684f       0xf5 CMakeFiles/STM32_BLUE_PILL.dir/pxtapp/core---stm32bluepill/i2c.cpp.o
                                       0x1c59 (size before relaxing)
 .debug_str     0x0000000000006944      0x1e8 CMakeFiles/STM32_BLUE_PILL.dir/pxtapp/core---stm32bluepill/pins.cpp.o
                                       0x2699 (size before relaxing)
 .debug_str     0x0000000000006b2c      0x152 CMakeFiles/STM32_BLUE_PILL.dir/pxtapp/core---stm32bluepill/pinsAnalog.cpp.o
                                       0x1ffc (size before relaxing)
 .debug_str     0x0000000000006c7e      0x355 CMakeFiles/STM32_BLUE_PILL.dir/pxtapp/core---stm32bluepill/pinsDigital.cpp.o
                                       0x2291 (size before relaxing)
 .debug_str     0x0000000000006fd3      0x1d8 CMakeFiles/STM32_BLUE_PILL.dir/pxtapp/core---stm32bluepill/pinsPWM.cpp.o
                                       0x2089 (size before relaxing)
 .debug_str     0x00000000000071ab       0xfd CMakeFiles/STM32_BLUE_PILL.dir/pxtapp/core---stm32bluepill/platform.cpp.o
                                       0x1334 (size before relaxing)
 .debug_str     0x00000000000072a8      0x12d CMakeFiles/STM32_BLUE_PILL.dir/pxtapp/core---stm32bluepill/spi.cpp.o
                                       0x1c5d (size before relaxing)
 .debug_str     0x00000000000073d5       0xc9 CMakeFiles/STM32_BLUE_PILL.dir/pxtapp/core---stm32bluepill/usb.cpp.o
                                       0x12e3 (size before relaxing)
 .debug_str     0x000000000000749e       0x5d CMakeFiles/STM32_BLUE_PILL.dir/pxtapp/main.cpp.o
                                       0x124d (size before relaxing)
 .debug_str     0x00000000000074fb       0xb3 CMakeFiles/STM32_BLUE_PILL.dir/pxtapp/pointers.cpp.o
                                       0x1362 (size before relaxing)
 .debug_str     0x00000000000075ae      0x312 libnewlib.a(memcpy-stub.c.o)
                                        0x7db (size before relaxing)
 .debug_str     0x00000000000078c0       0x3b libnewlib.a(strcmp.S.o)
                                         0xad (size before relaxing)
 .debug_str     0x00000000000078fb       0x2e libnewlib.a(strlen.S.o)
                                         0xae (size before relaxing)
 .debug_str     0x0000000000007929      0x1ce libnewlib.a(strtol.c.o)
                                        0x912 (size before relaxing)
 .debug_str     0x0000000000007af7       0x1f libnewlib.a(memcmp.c.o)
                                        0x567 (size before relaxing)
 .debug_str     0x0000000000007b16       0x32 libnewlib.a(memmove.c.o)
                                        0x7cb (size before relaxing)
 .debug_str     0x0000000000007b48       0x1f libnewlib.a(memset.c.o)
                                        0x7b0 (size before relaxing)
 .debug_str     0x0000000000007b67       0x1f libnewlib.a(strstr.c.o)
                                        0x567 (size before relaxing)
 .debug_str     0x0000000000007b86       0x1e libnewlib.a(ctype_.c.o)
                                        0x7a9 (size before relaxing)
 .debug_str     0x0000000000007ba4       0x2a libnewlib.a(impure.c.o)
                                        0x564 (size before relaxing)
 .debug_str     0x0000000000007bce      0x175 libcodal-core.a(CodalCompat.cpp.o)
                                        0xaf1 (size before relaxing)
 .debug_str     0x0000000000007d43      0x151 libcodal-core.a(CodalComponent.cpp.o)
                                       0x10d4 (size before relaxing)
 .debug_str     0x0000000000007e94       0xee libcodal-core.a(CodalDevice.cpp.o)
                                        0xcc3 (size before relaxing)
 .debug_str     0x0000000000007f82      0x14b libcodal-core.a(CodalDmesg.cpp.o)
                                        0xbd4 (size before relaxing)
 .debug_str     0x00000000000080cd      0x5ec libcodal-core.a(CodalFiber.cpp.o)
                                       0x1592 (size before relaxing)
 .debug_str     0x00000000000086b9      0x1ca libcodal-core.a(CodalHeapAllocator.cpp.o)
                                        0xcfc (size before relaxing)
 .debug_str     0x0000000000008883       0xf5 libcodal-core.a(CodalListener.cpp.o)
                                        0xc20 (size before relaxing)
 .debug_str     0x0000000000008978      0x5c2 libcodal-core.a(Timer.cpp.o)
                                       0x120d (size before relaxing)
 .debug_str     0x0000000000008f3a      0x90c libcodal-core.a(MessageBus.cpp.o)
                                       0x1a19 (size before relaxing)
 .debug_str     0x0000000000009846      0x131 libcodal-core.a(Event.cpp.o)
                                        0xca2 (size before relaxing)
 .debug_str     0x0000000000009977       0x89 libcodal-core.a(MemberFunctionCallback.cpp.o)
                                        0xa84 (size before relaxing)
 .debug_str     0x0000000000009a00      0x1b7 liblibopencm3.a(vector.c.o)
                                        0x3f8 (size before relaxing)
 .debug_str     0x0000000000009bb7      0x576 libnano-float.a(functions.c.o)
                                        0xc31 (size before relaxing)
 .debug_str     0x000000000000a12d      0x27b liblogger.a(logger.cpp.o)
                                        0xa71 (size before relaxing)
 .debug_str     0x000000000000a3a8      0x17e libbluepill.a(bluepill.cpp.o)
                                        0x941 (size before relaxing)
 .debug_str     0x000000000000a526      0x306 libbluepill.a(led.cpp.o)
                                        0x550 (size before relaxing)
 .debug_str     0x000000000000a82c      0x1fd libbaseloader.a(baseloader.c.o)
                                        0x95b (size before relaxing)
 .debug_str     0x000000000000aa29      0x555 libbootloader.a(bootloader.c.o)
                                        0xe61 (size before relaxing)
 .debug_str     0x000000000000af7e      0x40d libbootloader.a(ghostfat.c.o)
                                        0xcd9 (size before relaxing)
 .debug_str     0x000000000000b38b      0x8e5 libbootloader.a(usb_conf.c.o)
                                       0x12f1 (size before relaxing)
 .debug_str     0x000000000000bc70       0xe9 libbootloader.a(webusb.c.o)
                                        0xa8d (size before relaxing)
 .debug_str     0x000000000000bd59      0x4af libbootloader.a(winusb.c.o)
                                        0xe5d (size before relaxing)
 .debug_str     0x000000000000c208      0x3b4 libbootloader.a(target_stm32f103.c.o)
                                        0xe9b (size before relaxing)
 .debug_str     0x000000000000c5bc      0x248 libbootloader.a(cdc.c.o)
                                        0xa91 (size before relaxing)
 .debug_str     0x000000000000c804      0x442 libbootloader.a(hf2.c.o)
                                        0xed2 (size before relaxing)
 .debug_str     0x000000000000cc46      0x112 libbootloader.a(usb21_standard.c.o)
                                        0x98e (size before relaxing)
 .debug_str     0x000000000000cd58       0xdb libbootloader.a(backup.c.o)
                                        0x589 (size before relaxing)
 .debug_str     0x000000000000ce33      0x305 libhal.a(codal_target_hal.cpp.o)
                                        0xfb5 (size before relaxing)
 .debug_str     0x000000000000d138       0x82 libhal.a(CortexContextSwitch.s.o)
                                         0xfe (size before relaxing)
 .debug_str     0x000000000000d1ba      0x2b9 libcm.a(CmI2C.cpp.o)
                                       0x111c (size before relaxing)
 .debug_str     0x000000000000d473      0x54d libcm.a(CmPin.cpp.o)
                                       0x1f4e (size before relaxing)
 .debug_str     0x000000000000d9c0      0x3eb libcm.a(CmSPI.cpp.o)
                                       0x10de (size before relaxing)
 .debug_str     0x000000000000ddab      0x1c9 libcm.a(CmTimer.cpp.o)
                                        0xe4b (size before relaxing)
 .debug_str     0x000000000000df74       0x9c libcm.a(application.cpp.o)
                                        0x8a4 (size before relaxing)
 .debug_str     0x000000000000e010      0x123 libcm.a(tasks.cpp.o)
                                        0xff0 (size before relaxing)
 .debug_str     0x000000000000e133       0xb6 libcm.a(CmPinMap.cpp.o)
                                       0x1419 (size before relaxing)
 .debug_str     0x000000000000e1e9      0x400 libmodel.a(STM32BluePillIO.cpp.o)
                                       0x1725 (size before relaxing)
 .debug_str     0x000000000000e5e9       0xcb libqfplib.a(qfplib.S.o)
                                         0xd9 (size before relaxing)
 .debug_str     0x000000000000e6b4       0x2c libnewlib.a(strncpy.c.o)
                                        0x585 (size before relaxing)
 .debug_str     0x000000000000e6e0      0x227 libcodal-core.a(I2C.cpp.o)
                                       0x1057 (size before relaxing)
 .debug_str     0x000000000000e907       0xb7 liblibopencm3.a(scb.c.o)
                                        0x68c (size before relaxing)
 .debug_str     0x000000000000e9be       0xed liblibopencm3.a(gpio_common_all.c.o)
                                        0x2f8 (size before relaxing)
 .debug_str     0x000000000000eaab      0x182 liblibopencm3.a(pwr_common_v1.c.o)
                                        0x409 (size before relaxing)
 .debug_str     0x000000000000ec2d      0x1cc liblibopencm3.a(rcc_common_all.c.o)
                                        0x82a (size before relaxing)
 .debug_str     0x000000000000edf9       0xf7 liblibopencm3.a(desig.c.o)
                                        0x328 (size before relaxing)
 .debug_str     0x000000000000eef0       0xee liblibopencm3.a(gpio.c.o)
                                        0x30a (size before relaxing)
 .debug_str     0x000000000000efde      0x425 liblibopencm3.a(rcc.c.o)
                                        0x6d3 (size before relaxing)
 .debug_str     0x000000000000f403      0x2e5 liblibopencm3.a(st_usbfs_v1.c.o)
                                        0xcba (size before relaxing)
 .debug_str     0x000000000000f6e8      0x1a8 liblibopencm3.a(usb.c.o)
                                        0xf67 (size before relaxing)
 .debug_str     0x000000000000f890      0x17a liblibopencm3.a(usb_control.c.o)
                                        0xf34 (size before relaxing)
 .debug_str     0x000000000000fa0a      0x298 liblibopencm3.a(usb_standard.c.o)
                                       0x10e7 (size before relaxing)
 .debug_str     0x000000000000fca2       0xe2 liblibopencm3.a(flash_common_all.c.o)
                                        0x2c2 (size before relaxing)
 .debug_str     0x000000000000fd84      0x197 liblibopencm3.a(st_usbfs_core.c.o)
                                        0xbd6 (size before relaxing)
 .debug_str     0x000000000000ff1b       0x86 libcocoos.a(os_cbk.c.o)
                                        0x283 (size before relaxing)
 .debug_str     0x000000000000ffa1      0x106 libcocoos.a(os_kernel.c.o)
                                        0x36a (size before relaxing)
 .debug_str     0x00000000000100a7      0x260 libcocoos.a(os_msgqueue.c.o)
                                        0x4df (size before relaxing)
 .debug_str     0x0000000000010307      0x127 libcocoos.a(os_sem.c.o)
                                        0x337 (size before relaxing)
 .debug_str     0x000000000001042e      0x4e8 libcocoos.a(os_task.c.o)
                                        0xc3d (size before relaxing)
 .debug_str     0x0000000000010916       0x89 libcocoos.a(os_assert.c.o)
                                        0x6c4 (size before relaxing)
 .debug_str     0x000000000001099f      0x112 libcocoos.a(os_event.c.o)
                                        0x404 (size before relaxing)
 .debug_str     0x0000000000010ab1      0x2e0 libbluepill.a(timer.cpp.o)
                                        0xdc9 (size before relaxing)
 .debug_str     0x0000000000010d91      0x139 liblibopencm3.a(nvic.c.o)
                                        0x345 (size before relaxing)
 .debug_str     0x0000000000010eca       0xe7 liblibopencm3.a(exti_common_all.c.o)
                                        0x369 (size before relaxing)
 .debug_str     0x0000000000010fb1       0xf5 liblibopencm3.a(rtc.c.o)
                                        0x73c (size before relaxing)

.comment        0x0000000000000000       0x7f
 .comment       0x0000000000000000       0x7f /Users/Luppy/stm32bluepill-makecode/pxt-maker/libs/stm32bluepill/built/codal/build/libraries/codal-libopencm3/CMakeFiles/hal.dir/stm32/hal/reset_handler.c.o
                                         0x80 (size before relaxing)
 .comment       0x000000000000007f       0x80 CMakeFiles/STM32_BLUE_PILL.dir/pxtapp/base/advmath.cpp.o
 .comment       0x000000000000007f       0x80 CMakeFiles/STM32_BLUE_PILL.dir/pxtapp/base/buffer.cpp.o
 .comment       0x000000000000007f       0x80 CMakeFiles/STM32_BLUE_PILL.dir/pxtapp/base/control.cpp.o
 .comment       0x000000000000007f       0x80 CMakeFiles/STM32_BLUE_PILL.dir/pxtapp/base/core.cpp.o
 .comment       0x000000000000007f       0x80 CMakeFiles/STM32_BLUE_PILL.dir/pxtapp/base/gc.cpp.o
 .comment       0x000000000000007f       0x80 CMakeFiles/STM32_BLUE_PILL.dir/pxtapp/base/loops.cpp.o
 .comment       0x000000000000007f       0x80 CMakeFiles/STM32_BLUE_PILL.dir/pxtapp/base/pxt.cpp.o
 .comment       0x000000000000007f       0x80 CMakeFiles/STM32_BLUE_PILL.dir/pxtapp/core---stm32bluepill/codal.cpp.o
 .comment       0x000000000000007f       0x80 CMakeFiles/STM32_BLUE_PILL.dir/pxtapp/core---stm32bluepill/control.cpp.o
 .comment       0x000000000000007f       0x80 CMakeFiles/STM32_BLUE_PILL.dir/pxtapp/core---stm32bluepill/i2c.cpp.o
 .comment       0x000000000000007f       0x80 CMakeFiles/STM32_BLUE_PILL.dir/pxtapp/core---stm32bluepill/pins.cpp.o
 .comment       0x000000000000007f       0x80 CMakeFiles/STM32_BLUE_PILL.dir/pxtapp/core---stm32bluepill/pinsAnalog.cpp.o
 .comment       0x000000000000007f       0x80 CMakeFiles/STM32_BLUE_PILL.dir/pxtapp/core---stm32bluepill/pinsDigital.cpp.o
 .comment       0x000000000000007f       0x80 CMakeFiles/STM32_BLUE_PILL.dir/pxtapp/core---stm32bluepill/pinsPWM.cpp.o
 .comment       0x000000000000007f       0x80 CMakeFiles/STM32_BLUE_PILL.dir/pxtapp/core---stm32bluepill/platform.cpp.o
 .comment       0x000000000000007f       0x80 CMakeFiles/STM32_BLUE_PILL.dir/pxtapp/core---stm32bluepill/spi.cpp.o
 .comment       0x000000000000007f       0x80 CMakeFiles/STM32_BLUE_PILL.dir/pxtapp/core---stm32bluepill/usb.cpp.o
 .comment       0x000000000000007f       0x80 CMakeFiles/STM32_BLUE_PILL.dir/pxtapp/main.cpp.o
 .comment       0x000000000000007f       0x80 CMakeFiles/STM32_BLUE_PILL.dir/pxtapp/pointers.cpp.o
 .comment       0x000000000000007f       0x80 libnewlib.a(memcpy-stub.c.o)
 .comment       0x000000000000007f       0x80 libnewlib.a(strtol.c.o)
 .comment       0x000000000000007f       0x80 libnewlib.a(memcmp.c.o)
 .comment       0x000000000000007f       0x80 libnewlib.a(memmove.c.o)
 .comment       0x000000000000007f       0x80 libnewlib.a(memset.c.o)
 .comment       0x000000000000007f       0x80 libnewlib.a(strstr.c.o)
 .comment       0x000000000000007f       0x80 libnewlib.a(ctype_.c.o)
 .comment       0x000000000000007f       0x80 libnewlib.a(impure.c.o)
 .comment       0x000000000000007f       0x80 libcodal-core.a(CodalCompat.cpp.o)
 .comment       0x000000000000007f       0x80 libcodal-core.a(CodalComponent.cpp.o)
 .comment       0x000000000000007f       0x80 libcodal-core.a(CodalDevice.cpp.o)
 .comment       0x000000000000007f       0x80 libcodal-core.a(CodalDmesg.cpp.o)
 .comment       0x000000000000007f       0x80 libcodal-core.a(CodalFiber.cpp.o)
 .comment       0x000000000000007f       0x80 libcodal-core.a(CodalHeapAllocator.cpp.o)
 .comment       0x000000000000007f       0x80 libcodal-core.a(CodalListener.cpp.o)
 .comment       0x000000000000007f       0x80 libcodal-core.a(Timer.cpp.o)
 .comment       0x000000000000007f       0x80 libcodal-core.a(MessageBus.cpp.o)
 .comment       0x000000000000007f       0x80 libcodal-core.a(Event.cpp.o)
 .comment       0x000000000000007f       0x80 libcodal-core.a(MemberFunctionCallback.cpp.o)
 .comment       0x000000000000007f       0x80 liblibopencm3.a(vector.c.o)
 .comment       0x000000000000007f       0x80 libnano-float.a(functions.c.o)
 .comment       0x000000000000007f       0x80 liblogger.a(logger.cpp.o)
 .comment       0x000000000000007f       0x80 libbluepill.a(bluepill.cpp.o)
 .comment       0x000000000000007f       0x80 libbluepill.a(led.cpp.o)
 .comment       0x000000000000007f       0x80 libbaseloader.a(baseloader.c.o)
 .comment       0x000000000000007f       0x80 libbootloader.a(bootloader.c.o)
 .comment       0x000000000000007f       0x80 libbootloader.a(ghostfat.c.o)
 .comment       0x000000000000007f       0x80 libbootloader.a(usb_conf.c.o)
 .comment       0x000000000000007f       0x80 libbootloader.a(webusb.c.o)
 .comment       0x000000000000007f       0x80 libbootloader.a(winusb.c.o)
 .comment       0x000000000000007f       0x80 libbootloader.a(target_stm32f103.c.o)
 .comment       0x000000000000007f       0x80 libbootloader.a(cdc.c.o)
 .comment       0x000000000000007f       0x80 libbootloader.a(hf2.c.o)
 .comment       0x000000000000007f       0x80 libbootloader.a(usb21_standard.c.o)
 .comment       0x000000000000007f       0x80 libbootloader.a(backup.c.o)
 .comment       0x000000000000007f       0x80 libhal.a(codal_target_hal.cpp.o)
 .comment       0x000000000000007f       0x80 libcm.a(CmI2C.cpp.o)
 .comment       0x000000000000007f       0x80 libcm.a(CmPin.cpp.o)
 .comment       0x000000000000007f       0x80 libcm.a(CmSPI.cpp.o)
 .comment       0x000000000000007f       0x80 libcm.a(CmTimer.cpp.o)
 .comment       0x000000000000007f       0x80 libcm.a(application.cpp.o)
 .comment       0x000000000000007f       0x80 libcm.a(tasks.cpp.o)
 .comment       0x000000000000007f       0x80 libcm.a(CmPinMap.cpp.o)
 .comment       0x000000000000007f       0x80 libmodel.a(STM32BluePillIO.cpp.o)
 .comment       0x000000000000007f       0x80 libnewlib.a(strncpy.c.o)
 .comment       0x000000000000007f       0x80 libcodal-core.a(I2C.cpp.o)
 .comment       0x000000000000007f       0x80 liblibopencm3.a(scb.c.o)
 .comment       0x000000000000007f       0x80 liblibopencm3.a(gpio_common_all.c.o)
 .comment       0x000000000000007f       0x80 liblibopencm3.a(pwr_common_v1.c.o)
 .comment       0x000000000000007f       0x80 liblibopencm3.a(rcc_common_all.c.o)
 .comment       0x000000000000007f       0x80 liblibopencm3.a(desig.c.o)
 .comment       0x000000000000007f       0x80 liblibopencm3.a(gpio.c.o)
 .comment       0x000000000000007f       0x80 liblibopencm3.a(rcc.c.o)
 .comment       0x000000000000007f       0x80 liblibopencm3.a(st_usbfs_v1.c.o)
 .comment       0x000000000000007f       0x80 liblibopencm3.a(usb.c.o)
 .comment       0x000000000000007f       0x80 liblibopencm3.a(usb_control.c.o)
 .comment       0x000000000000007f       0x80 liblibopencm3.a(usb_standard.c.o)
 .comment       0x000000000000007f       0x80 liblibopencm3.a(flash_common_all.c.o)
 .comment       0x000000000000007f       0x80 liblibopencm3.a(st_usbfs_core.c.o)
 .comment       0x000000000000007f       0x80 libcocoos.a(os_cbk.c.o)
 .comment       0x000000000000007f       0x80 libcocoos.a(os_kernel.c.o)
 .comment       0x000000000000007f       0x80 libcocoos.a(os_msgqueue.c.o)
 .comment       0x000000000000007f       0x80 libcocoos.a(os_sem.c.o)
 .comment       0x000000000000007f       0x80 libcocoos.a(os_task.c.o)
 .comment       0x000000000000007f       0x80 libcocoos.a(os_assert.c.o)
 .comment       0x000000000000007f       0x80 libcocoos.a(os_event.c.o)
 .comment       0x000000000000007f       0x80 libbluepill.a(timer.cpp.o)
 .comment       0x000000000000007f       0x80 liblibopencm3.a(nvic.c.o)
 .comment       0x000000000000007f       0x80 liblibopencm3.a(exti_common_all.c.o)
 .comment       0x000000000000007f       0x80 liblibopencm3.a(rtc.c.o)

.ARM.attributes
                0x0000000000000000       0x31
 .ARM.attributes
                0x0000000000000000       0x33 /Users/Luppy/stm32bluepill-makecode/pxt-maker/libs/stm32bluepill/built/codal/build/libraries/codal-libopencm3/CMakeFiles/hal.dir/stm32/hal/reset_handler.c.o
 .ARM.attributes
                0x0000000000000033       0x33 CMakeFiles/STM32_BLUE_PILL.dir/pxtapp/base/advmath.cpp.o
 .ARM.attributes
                0x0000000000000066       0x33 CMakeFiles/STM32_BLUE_PILL.dir/pxtapp/base/buffer.cpp.o
 .ARM.attributes
                0x0000000000000099       0x33 CMakeFiles/STM32_BLUE_PILL.dir/pxtapp/base/control.cpp.o
 .ARM.attributes
                0x00000000000000cc       0x33 CMakeFiles/STM32_BLUE_PILL.dir/pxtapp/base/core.cpp.o
 .ARM.attributes
                0x00000000000000ff       0x33 CMakeFiles/STM32_BLUE_PILL.dir/pxtapp/base/gc.cpp.o
 .ARM.attributes
                0x0000000000000132       0x33 CMakeFiles/STM32_BLUE_PILL.dir/pxtapp/base/loops.cpp.o
 .ARM.attributes
                0x0000000000000165       0x33 CMakeFiles/STM32_BLUE_PILL.dir/pxtapp/base/pxt.cpp.o
 .ARM.attributes
                0x0000000000000198       0x33 CMakeFiles/STM32_BLUE_PILL.dir/pxtapp/core---stm32bluepill/codal.cpp.o
 .ARM.attributes
                0x00000000000001cb       0x33 CMakeFiles/STM32_BLUE_PILL.dir/pxtapp/core---stm32bluepill/control.cpp.o
 .ARM.attributes
                0x00000000000001fe       0x33 CMakeFiles/STM32_BLUE_PILL.dir/pxtapp/core---stm32bluepill/i2c.cpp.o
 .ARM.attributes
                0x0000000000000231       0x33 CMakeFiles/STM32_BLUE_PILL.dir/pxtapp/core---stm32bluepill/pins.cpp.o
 .ARM.attributes
                0x0000000000000264       0x33 CMakeFiles/STM32_BLUE_PILL.dir/pxtapp/core---stm32bluepill/pinsAnalog.cpp.o
 .ARM.attributes
                0x0000000000000297       0x33 CMakeFiles/STM32_BLUE_PILL.dir/pxtapp/core---stm32bluepill/pinsDigital.cpp.o
 .ARM.attributes
                0x00000000000002ca       0x33 CMakeFiles/STM32_BLUE_PILL.dir/pxtapp/core---stm32bluepill/pinsPWM.cpp.o
 .ARM.attributes
                0x00000000000002fd       0x33 CMakeFiles/STM32_BLUE_PILL.dir/pxtapp/core---stm32bluepill/platform.cpp.o
 .ARM.attributes
                0x0000000000000330       0x33 CMakeFiles/STM32_BLUE_PILL.dir/pxtapp/core---stm32bluepill/spi.cpp.o
 .ARM.attributes
                0x0000000000000363       0x33 CMakeFiles/STM32_BLUE_PILL.dir/pxtapp/core---stm32bluepill/usb.cpp.o
 .ARM.attributes
                0x0000000000000396       0x33 CMakeFiles/STM32_BLUE_PILL.dir/pxtapp/main.cpp.o
 .ARM.attributes
                0x00000000000003c9       0x33 CMakeFiles/STM32_BLUE_PILL.dir/pxtapp/pointers.cpp.o
 .ARM.attributes
                0x00000000000003fc       0x2d libnewlib.a(memcpy-stub.c.o)
 .ARM.attributes
                0x0000000000000429       0x1b libnewlib.a(strcmp.S.o)
 .ARM.attributes
                0x0000000000000444       0x17 libnewlib.a(strlen.S.o)
 .ARM.attributes
                0x000000000000045b       0x2d libnewlib.a(strtol.c.o)
 .ARM.attributes
                0x0000000000000488       0x2d libnewlib.a(memcmp.c.o)
 .ARM.attributes
                0x00000000000004b5       0x2d libnewlib.a(memmove.c.o)
 .ARM.attributes
                0x00000000000004e2       0x2d libnewlib.a(memset.c.o)
 .ARM.attributes
                0x000000000000050f       0x2d libnewlib.a(strstr.c.o)
 .ARM.attributes
                0x000000000000053c       0x2d libnewlib.a(ctype_.c.o)
 .ARM.attributes
                0x0000000000000569       0x2d libnewlib.a(impure.c.o)
 .ARM.attributes
                0x0000000000000596       0x33 libcodal-core.a(CodalCompat.cpp.o)
 .ARM.attributes
                0x00000000000005c9       0x33 libcodal-core.a(CodalComponent.cpp.o)
 .ARM.attributes
                0x00000000000005fc       0x33 libcodal-core.a(CodalDevice.cpp.o)
 .ARM.attributes
                0x000000000000062f       0x33 libcodal-core.a(CodalDmesg.cpp.o)
 .ARM.attributes
                0x0000000000000662       0x33 libcodal-core.a(CodalFiber.cpp.o)
 .ARM.attributes
                0x0000000000000695       0x33 libcodal-core.a(CodalHeapAllocator.cpp.o)
 .ARM.attributes
                0x00000000000006c8       0x33 libcodal-core.a(CodalListener.cpp.o)
 .ARM.attributes
                0x00000000000006fb       0x33 libcodal-core.a(Timer.cpp.o)
 .ARM.attributes
                0x000000000000072e       0x33 libcodal-core.a(MessageBus.cpp.o)
 .ARM.attributes
                0x0000000000000761       0x33 libcodal-core.a(Event.cpp.o)
 .ARM.attributes
                0x0000000000000794       0x33 libcodal-core.a(MemberFunctionCallback.cpp.o)
 .ARM.attributes
                0x00000000000007c7       0x33 liblibopencm3.a(vector.c.o)
 .ARM.attributes
                0x00000000000007fa       0x33 libnano-float.a(functions.c.o)
 .ARM.attributes
                0x000000000000082d       0x33 liblogger.a(logger.cpp.o)
 .ARM.attributes
                0x0000000000000860       0x33 libbluepill.a(bluepill.cpp.o)
 .ARM.attributes
                0x0000000000000893       0x33 libbluepill.a(led.cpp.o)
 .ARM.attributes
                0x00000000000008c6       0x33 libbaseloader.a(baseloader.c.o)
 .ARM.attributes
                0x00000000000008f9       0x33 libbootloader.a(bootloader.c.o)
 .ARM.attributes
                0x000000000000092c       0x33 libbootloader.a(ghostfat.c.o)
 .ARM.attributes
                0x000000000000095f       0x33 libbootloader.a(usb_conf.c.o)
 .ARM.attributes
                0x0000000000000992       0x33 libbootloader.a(webusb.c.o)
 .ARM.attributes
                0x00000000000009c5       0x33 libbootloader.a(winusb.c.o)
 .ARM.attributes
                0x00000000000009f8       0x33 libbootloader.a(target_stm32f103.c.o)
 .ARM.attributes
                0x0000000000000a2b       0x33 libbootloader.a(cdc.c.o)
 .ARM.attributes
                0x0000000000000a5e       0x33 libbootloader.a(hf2.c.o)
 .ARM.attributes
                0x0000000000000a91       0x33 libbootloader.a(usb21_standard.c.o)
 .ARM.attributes
                0x0000000000000ac4       0x33 libbootloader.a(backup.c.o)
 .ARM.attributes
                0x0000000000000af7       0x33 libhal.a(codal_target_hal.cpp.o)
 .ARM.attributes
                0x0000000000000b2a       0x21 libhal.a(CortexContextSwitch.s.o)
 .ARM.attributes
                0x0000000000000b4b       0x33 libcm.a(CmI2C.cpp.o)
 .ARM.attributes
                0x0000000000000b7e       0x33 libcm.a(CmPin.cpp.o)
 .ARM.attributes
                0x0000000000000bb1       0x33 libcm.a(CmSPI.cpp.o)
 .ARM.attributes
                0x0000000000000be4       0x33 libcm.a(CmTimer.cpp.o)
 .ARM.attributes
                0x0000000000000c17       0x33 libcm.a(application.cpp.o)
 .ARM.attributes
                0x0000000000000c4a       0x33 libcm.a(tasks.cpp.o)
 .ARM.attributes
                0x0000000000000c7d       0x33 libcm.a(CmPinMap.cpp.o)
 .ARM.attributes
                0x0000000000000cb0       0x33 libmodel.a(STM32BluePillIO.cpp.o)
 .ARM.attributes
                0x0000000000000ce3       0x21 libqfplib.a(qfplib.S.o)
 .ARM.attributes
                0x0000000000000d04       0x2d libnewlib.a(strncpy.c.o)
 .ARM.attributes
                0x0000000000000d31       0x33 libcodal-core.a(I2C.cpp.o)
 .ARM.attributes
                0x0000000000000d64       0x33 liblibopencm3.a(scb.c.o)
 .ARM.attributes
                0x0000000000000d97       0x33 liblibopencm3.a(gpio_common_all.c.o)
 .ARM.attributes
                0x0000000000000dca       0x33 liblibopencm3.a(pwr_common_v1.c.o)
 .ARM.attributes
                0x0000000000000dfd       0x33 liblibopencm3.a(rcc_common_all.c.o)
 .ARM.attributes
                0x0000000000000e30       0x33 liblibopencm3.a(desig.c.o)
 .ARM.attributes
                0x0000000000000e63       0x33 liblibopencm3.a(gpio.c.o)
 .ARM.attributes
                0x0000000000000e96       0x33 liblibopencm3.a(rcc.c.o)
 .ARM.attributes
                0x0000000000000ec9       0x33 liblibopencm3.a(st_usbfs_v1.c.o)
 .ARM.attributes
                0x0000000000000efc       0x33 liblibopencm3.a(usb.c.o)
 .ARM.attributes
                0x0000000000000f2f       0x33 liblibopencm3.a(usb_control.c.o)
 .ARM.attributes
                0x0000000000000f62       0x33 liblibopencm3.a(usb_standard.c.o)
 .ARM.attributes
                0x0000000000000f95       0x33 liblibopencm3.a(flash_common_all.c.o)
 .ARM.attributes
                0x0000000000000fc8       0x33 liblibopencm3.a(st_usbfs_core.c.o)
 .ARM.attributes
                0x0000000000000ffb       0x33 libcocoos.a(os_cbk.c.o)
 .ARM.attributes
                0x000000000000102e       0x33 libcocoos.a(os_kernel.c.o)
 .ARM.attributes
                0x0000000000001061       0x33 libcocoos.a(os_msgqueue.c.o)
 .ARM.attributes
                0x0000000000001094       0x33 libcocoos.a(os_sem.c.o)
 .ARM.attributes
                0x00000000000010c7       0x33 libcocoos.a(os_task.c.o)
 .ARM.attributes
                0x00000000000010fa       0x33 libcocoos.a(os_assert.c.o)
 .ARM.attributes
                0x000000000000112d       0x33 libcocoos.a(os_event.c.o)
 .ARM.attributes
                0x0000000000001160       0x33 libbluepill.a(timer.cpp.o)
 .ARM.attributes
                0x0000000000001193       0x33 liblibopencm3.a(nvic.c.o)
 .ARM.attributes
                0x00000000000011c6       0x33 liblibopencm3.a(exti_common_all.c.o)
 .ARM.attributes
                0x00000000000011f9       0x33 liblibopencm3.a(rtc.c.o)
 .ARM.attributes
                0x000000000000122c       0x1d /usr/local/Cellar/arm-none-eabi-gcc/7-2018-q2-update/gcc/bin/../lib/gcc/arm-none-eabi/7.3.1/thumb/v7-m/libgcc.a(_arm_addsubdf3.o)
 .ARM.attributes
                0x0000000000001249       0x1d /usr/local/Cellar/arm-none-eabi-gcc/7-2018-q2-update/gcc/bin/../lib/gcc/arm-none-eabi/7.3.1/thumb/v7-m/libgcc.a(_arm_truncdfsf2.o)
 .ARM.attributes
                0x0000000000001266       0x2d /usr/local/Cellar/arm-none-eabi-gcc/7-2018-q2-update/gcc/bin/../lib/gcc/arm-none-eabi/7.3.1/thumb/v7-m/libgcc.a(_powidf2.o)

.debug_frame    0x0000000000000000     0x66c4
 .debug_frame   0x0000000000000000       0x2c /Users/Luppy/stm32bluepill-makecode/pxt-maker/libs/stm32bluepill/built/codal/build/libraries/codal-libopencm3/CMakeFiles/hal.dir/stm32/hal/reset_handler.c.o
 .debug_frame   0x000000000000002c       0xf0 CMakeFiles/STM32_BLUE_PILL.dir/pxtapp/base/advmath.cpp.o
 .debug_frame   0x000000000000011c      0x220 CMakeFiles/STM32_BLUE_PILL.dir/pxtapp/base/buffer.cpp.o
 .debug_frame   0x000000000000033c       0xdc CMakeFiles/STM32_BLUE_PILL.dir/pxtapp/base/control.cpp.o
 .debug_frame   0x0000000000000418      0xcc8 CMakeFiles/STM32_BLUE_PILL.dir/pxtapp/base/core.cpp.o
 .debug_frame   0x00000000000010e0      0x3d8 CMakeFiles/STM32_BLUE_PILL.dir/pxtapp/base/gc.cpp.o
 .debug_frame   0x00000000000014b8       0x30 CMakeFiles/STM32_BLUE_PILL.dir/pxtapp/base/loops.cpp.o
 .debug_frame   0x00000000000014e8      0x438 CMakeFiles/STM32_BLUE_PILL.dir/pxtapp/base/pxt.cpp.o
 .debug_frame   0x0000000000001920      0x244 CMakeFiles/STM32_BLUE_PILL.dir/pxtapp/core---stm32bluepill/codal.cpp.o
 .debug_frame   0x0000000000001b64       0x74 CMakeFiles/STM32_BLUE_PILL.dir/pxtapp/core---stm32bluepill/control.cpp.o
 .debug_frame   0x0000000000001bd8       0x78 CMakeFiles/STM32_BLUE_PILL.dir/pxtapp/core---stm32bluepill/i2c.cpp.o
 .debug_frame   0x0000000000001c50       0xec CMakeFiles/STM32_BLUE_PILL.dir/pxtapp/core---stm32bluepill/pins.cpp.o
 .debug_frame   0x0000000000001d3c       0x30 CMakeFiles/STM32_BLUE_PILL.dir/pxtapp/core---stm32bluepill/pinsAnalog.cpp.o
 .debug_frame   0x0000000000001d6c       0xb8 CMakeFiles/STM32_BLUE_PILL.dir/pxtapp/core---stm32bluepill/pinsDigital.cpp.o
 .debug_frame   0x0000000000001e24       0x4c CMakeFiles/STM32_BLUE_PILL.dir/pxtapp/core---stm32bluepill/pinsPWM.cpp.o
 .debug_frame   0x0000000000001e70       0x58 CMakeFiles/STM32_BLUE_PILL.dir/pxtapp/core---stm32bluepill/platform.cpp.o
 .debug_frame   0x0000000000001ec8       0xcc CMakeFiles/STM32_BLUE_PILL.dir/pxtapp/core---stm32bluepill/spi.cpp.o
 .debug_frame   0x0000000000001f94       0x60 CMakeFiles/STM32_BLUE_PILL.dir/pxtapp/core---stm32bluepill/usb.cpp.o
 .debug_frame   0x0000000000001ff4       0x28 CMakeFiles/STM32_BLUE_PILL.dir/pxtapp/main.cpp.o
 .debug_frame   0x000000000000201c       0x70 CMakeFiles/STM32_BLUE_PILL.dir/pxtapp/pointers.cpp.o
 .debug_frame   0x000000000000208c       0x28 libnewlib.a(memcpy-stub.c.o)
 .debug_frame   0x00000000000020b4       0x20 libnewlib.a(strcmp.S.o)
 .debug_frame   0x00000000000020d4       0x64 libnewlib.a(strtol.c.o)
 .debug_frame   0x0000000000002138       0x2c libnewlib.a(memcmp.c.o)
 .debug_frame   0x0000000000002164       0x28 libnewlib.a(memmove.c.o)
 .debug_frame   0x000000000000218c       0x20 libnewlib.a(memset.c.o)
 .debug_frame   0x00000000000021ac       0x30 libnewlib.a(strstr.c.o)
 .debug_frame   0x00000000000021dc       0x78 libcodal-core.a(CodalCompat.cpp.o)
 .debug_frame   0x0000000000002254       0xb0 libcodal-core.a(CodalComponent.cpp.o)
 .debug_frame   0x0000000000002304       0x80 libcodal-core.a(CodalDevice.cpp.o)
 .debug_frame   0x0000000000002384      0x10c libcodal-core.a(CodalDmesg.cpp.o)
 .debug_frame   0x0000000000002490      0x3e4 libcodal-core.a(CodalFiber.cpp.o)
 .debug_frame   0x0000000000002874      0x108 libcodal-core.a(CodalHeapAllocator.cpp.o)
 .debug_frame   0x000000000000297c       0x9c libcodal-core.a(CodalListener.cpp.o)
 .debug_frame   0x0000000000002a18      0x2dc libcodal-core.a(Timer.cpp.o)
 .debug_frame   0x0000000000002cf4      0x2bc libcodal-core.a(MessageBus.cpp.o)
 .debug_frame   0x0000000000002fb0       0xe4 libcodal-core.a(Event.cpp.o)
 .debug_frame   0x0000000000003094       0x48 libcodal-core.a(MemberFunctionCallback.cpp.o)
 .debug_frame   0x00000000000030dc       0x4c liblibopencm3.a(vector.c.o)
 .debug_frame   0x0000000000003128      0x538 libnano-float.a(functions.c.o)
 .debug_frame   0x0000000000003660      0x2ec liblogger.a(logger.cpp.o)
 .debug_frame   0x000000000000394c       0x9c libbluepill.a(bluepill.cpp.o)
 .debug_frame   0x00000000000039e8       0x6c libbluepill.a(led.cpp.o)
 .debug_frame   0x0000000000003a54       0x6c libbaseloader.a(baseloader.c.o)
 .debug_frame   0x0000000000003ac0       0xd4 libbootloader.a(bootloader.c.o)
 .debug_frame   0x0000000000003b94       0xe0 libbootloader.a(ghostfat.c.o)
 .debug_frame   0x0000000000003c74      0x1e4 libbootloader.a(usb_conf.c.o)
 .debug_frame   0x0000000000003e58       0x84 libbootloader.a(webusb.c.o)
 .debug_frame   0x0000000000003edc       0x8c libbootloader.a(winusb.c.o)
 .debug_frame   0x0000000000003f68      0x108 libbootloader.a(target_stm32f103.c.o)
 .debug_frame   0x0000000000004070       0xc4 libbootloader.a(cdc.c.o)
 .debug_frame   0x0000000000004134      0x130 libbootloader.a(hf2.c.o)
 .debug_frame   0x0000000000004264       0x98 libbootloader.a(usb21_standard.c.o)
 .debug_frame   0x00000000000042fc       0x44 libbootloader.a(backup.c.o)
 .debug_frame   0x0000000000004340      0x314 libhal.a(codal_target_hal.cpp.o)
 .debug_frame   0x0000000000004654       0x6c libcm.a(CmI2C.cpp.o)
 .debug_frame   0x00000000000046c0      0x288 libcm.a(CmPin.cpp.o)
 .debug_frame   0x0000000000004948      0x1a4 libcm.a(CmSPI.cpp.o)
 .debug_frame   0x0000000000004aec       0xd0 libcm.a(CmTimer.cpp.o)
 .debug_frame   0x0000000000004bbc       0x2c libcm.a(application.cpp.o)
 .debug_frame   0x0000000000004be8       0xcc libcm.a(tasks.cpp.o)
 .debug_frame   0x0000000000004cb4       0x7c libcm.a(CmPinMap.cpp.o)
 .debug_frame   0x0000000000004d30       0x40 libmodel.a(STM32BluePillIO.cpp.o)
 .debug_frame   0x0000000000004d70       0x2c libnewlib.a(strncpy.c.o)
 .debug_frame   0x0000000000004d9c      0x114 libcodal-core.a(I2C.cpp.o)
 .debug_frame   0x0000000000004eb0       0x40 liblibopencm3.a(scb.c.o)
 .debug_frame   0x0000000000004ef0       0x80 liblibopencm3.a(gpio_common_all.c.o)
 .debug_frame   0x0000000000004f70      0x100 liblibopencm3.a(pwr_common_v1.c.o)
 .debug_frame   0x0000000000005070       0xd0 liblibopencm3.a(rcc_common_all.c.o)
 .debug_frame   0x0000000000005140       0x7c liblibopencm3.a(desig.c.o)
 .debug_frame   0x00000000000051bc       0x64 liblibopencm3.a(gpio.c.o)
 .debug_frame   0x0000000000005220      0x308 liblibopencm3.a(rcc.c.o)
 .debug_frame   0x0000000000005528       0x58 liblibopencm3.a(st_usbfs_v1.c.o)
 .debug_frame   0x0000000000005580      0x148 liblibopencm3.a(usb.c.o)
 .debug_frame   0x00000000000056c8      0x14c liblibopencm3.a(usb_control.c.o)
 .debug_frame   0x0000000000005814      0x264 liblibopencm3.a(usb_standard.c.o)
 .debug_frame   0x0000000000005a78       0x50 liblibopencm3.a(flash_common_all.c.o)
 .debug_frame   0x0000000000005ac8      0x134 liblibopencm3.a(st_usbfs_core.c.o)
 .debug_frame   0x0000000000005bfc       0x20 libcocoos.a(os_cbk.c.o)
 .debug_frame   0x0000000000005c1c       0x94 libcocoos.a(os_kernel.c.o)
 .debug_frame   0x0000000000005cb0       0xf0 libcocoos.a(os_msgqueue.c.o)
 .debug_frame   0x0000000000005da0       0x88 libcocoos.a(os_sem.c.o)
 .debug_frame   0x0000000000005e28      0x324 libcocoos.a(os_task.c.o)
 .debug_frame   0x000000000000614c       0x28 libcocoos.a(os_assert.c.o)
 .debug_frame   0x0000000000006174       0xe0 libcocoos.a(os_event.c.o)
 .debug_frame   0x0000000000006254       0xd0 libbluepill.a(timer.cpp.o)
 .debug_frame   0x0000000000006324       0xa0 liblibopencm3.a(nvic.c.o)
 .debug_frame   0x00000000000063c4       0x88 liblibopencm3.a(exti_common_all.c.o)
 .debug_frame   0x000000000000644c      0x174 liblibopencm3.a(rtc.c.o)
 .debug_frame   0x00000000000065c0       0xac /usr/local/Cellar/arm-none-eabi-gcc/7-2018-q2-update/gcc/bin/../lib/gcc/arm-none-eabi/7.3.1/thumb/v7-m/libgcc.a(_arm_addsubdf3.o)
 .debug_frame   0x000000000000666c       0x24 /usr/local/Cellar/arm-none-eabi-gcc/7-2018-q2-update/gcc/bin/../lib/gcc/arm-none-eabi/7.3.1/thumb/v7-m/libgcc.a(_arm_truncdfsf2.o)
 .debug_frame   0x0000000000006690       0x34 /usr/local/Cellar/arm-none-eabi-gcc/7-2018-q2-update/gcc/bin/../lib/gcc/arm-none-eabi/7.3.1/thumb/v7-m/libgcc.a(_powidf2.o)
